(dp1
S't_C(trial_PE)[UP]_subj.19'
p2
(dp3
I0
cnumpy.core.multiarray
_reconstruct
p4
(cnumpy
ndarray
p5
(I0
tS'b'
tRp6
(I1
(I0
tcnumpy
dtype
p7
(S'f8'
I0
I1
tRp8
(I3
S'<'
NNNI-1
I-1
I0
tbI00
S''
tbssS't_C(trial_PE)[UP]_subj.18'
p9
(dp10
I0
g4
(g5
(I0
tS'b'
tRp11
(I1
(I0
tg8
I00
S''
tbssS't_C(trial_PE)[UP]_subj.15'
p12
(dp13
I0
g4
(g5
(I0
tS'b'
tRp14
(I1
(I0
tg8
I00
S''
tbssS't_C(trial_PE)[UP]_subj.14'
p15
(dp16
I0
g4
(g5
(I0
tS'b'
tRp17
(I1
(I0
tg8
I00
S''
tbssS't_C(trial_PE)[UP]_subj.17'
p18
(dp19
I0
g4
(g5
(I0
tS'b'
tRp20
(I1
(I0
tg8
I00
S''
tbssS't_C(trial_PE)[UP]_subj.16'
p21
(dp22
I0
g4
(g5
(I0
tS'b'
tRp23
(I1
(I0
tg8
I00
S''
tbssS't_C(trial_PE)[UP]_subj.11'
p24
(dp25
I0
g4
(g5
(I0
tS'b'
tRp26
(I1
(I0
tg8
I00
S''
tbssS't_C(trial_PE)[UP]_subj.10'
p27
(dp28
I0
g4
(g5
(I0
tS'b'
tRp29
(I1
(I0
tg8
I00
S''
tbssS't_C(trial_PE)[UP]_subj.13'
p30
(dp31
I0
g4
(g5
(I0
tS'b'
tRp32
(I1
(I0
tg8
I00
S''
tbssS't_C(trial_PE)[UP]_subj.12'
p33
(dp34
I0
g4
(g5
(I0
tS'b'
tRp35
(I1
(I0
tg8
I00
S''
tbssS't_C(trial_PE)[PP]_subj.32'
p36
(dp37
I0
g4
(g5
(I0
tS'b'
tRp38
(I1
(I0
tg8
I00
S''
tbssS't_C(trial_PE)[PP]_subj.30'
p39
(dp40
I0
g4
(g5
(I0
tS'b'
tRp41
(I1
(I0
tg8
I00
S''
tbssS't_C(trial_PE)[PP]_subj.31'
p42
(dp43
I0
g4
(g5
(I0
tS'b'
tRp44
(I1
(I0
tg8
I00
S''
tbssS'v_C(trial_PE)[PU]'
p45
(dp46
I0
g4
(g5
(I0
tS'b'
tRp47
(I1
(I0
tg8
I00
S''
tbssS'v_C(trial_PE)[UU]_subj.21'
p48
(dp49
I0
g4
(g5
(I0
tS'b'
tRp50
(I1
(I0
tg8
I00
S''
tbssS'v_C(trial_PE)[UU]_subj.20'
p51
(dp52
I0
g4
(g5
(I0
tS'b'
tRp53
(I1
(I0
tg8
I00
S''
tbssS'v_C(trial_PE)[UU]_subj.23'
p54
(dp55
I0
g4
(g5
(I0
tS'b'
tRp56
(I1
(I0
tg8
I00
S''
tbssS'v_C(trial_PE)[UU]_subj.22'
p57
(dp58
I0
g4
(g5
(I0
tS'b'
tRp59
(I1
(I0
tg8
I00
S''
tbssS'v_C(trial_PE)[UU]_subj.25'
p60
(dp61
I0
g4
(g5
(I0
tS'b'
tRp62
(I1
(I0
tg8
I00
S''
tbssS'v_C(trial_PE)[UU]_subj.24'
p63
(dp64
I0
g4
(g5
(I0
tS'b'
tRp65
(I1
(I0
tg8
I00
S''
tbssS'v_C(trial_PE)[UU]_subj.27'
p66
(dp67
I0
g4
(g5
(I0
tS'b'
tRp68
(I1
(I0
tg8
I00
S''
tbssS'v_C(trial_PE)[UU]_subj.26'
p69
(dp70
I0
g4
(g5
(I0
tS'b'
tRp71
(I1
(I0
tg8
I00
S''
tbssS'v_C(trial_PE)[UU]_subj.29'
p72
(dp73
I0
g4
(g5
(I0
tS'b'
tRp74
(I1
(I0
tg8
I00
S''
tbssS'v_C(trial_PE)[UU]_subj.28'
p75
(dp76
I0
g4
(g5
(I0
tS'b'
tRp77
(I1
(I0
tg8
I00
S''
tbssS'v_C(trial_PE)[UP]_subj.20'
p78
(dp79
I0
g4
(g5
(I0
tS'b'
tRp80
(I1
(I0
tg8
I00
S''
tbssS'v_C(trial_PE)[UP]_subj.21'
p81
(dp82
I0
g4
(g5
(I0
tS'b'
tRp83
(I1
(I0
tg8
I00
S''
tbssS'v_C(trial_PE)[UP]_subj.26'
p84
(dp85
I0
g4
(g5
(I0
tS'b'
tRp86
(I1
(I0
tg8
I00
S''
tbssS'v_C(trial_PE)[UP]_subj.27'
p87
(dp88
I0
g4
(g5
(I0
tS'b'
tRp89
(I1
(I0
tg8
I00
S''
tbssS'v_C(trial_PE)[UP]_subj.24'
p90
(dp91
I0
g4
(g5
(I0
tS'b'
tRp92
(I1
(I0
tg8
I00
S''
tbssS'v_C(trial_PE)[UP]_subj.25'
p93
(dp94
I0
g4
(g5
(I0
tS'b'
tRp95
(I1
(I0
tg8
I00
S''
tbssS't_C(trial_PE)[PU]_std'
p96
(dp97
I0
g4
(g5
(I0
tS'b'
tRp98
(I1
(I0
tg8
I00
S''
tbssS'a_subj.32'
p99
(dp100
I0
g4
(g5
(I0
tS'b'
tRp101
(I1
(I0
tg8
I00
S''
tbssS'a_subj.30'
p102
(dp103
I0
g4
(g5
(I0
tS'b'
tRp104
(I1
(I0
tg8
I00
S''
tbssS'a_subj.31'
p105
(dp106
I0
g4
(g5
(I0
tS'b'
tRp107
(I1
(I0
tg8
I00
S''
tbssS'v_C(trial_PE)[PU]_subj.32'
p108
(dp109
I0
g4
(g5
(I0
tS'b'
tRp110
(I1
(I0
tg8
I00
S''
tbssS'v_C(trial_PE)[PU]_subj.31'
p111
(dp112
I0
g4
(g5
(I0
tS'b'
tRp113
(I1
(I0
tg8
I00
S''
tbssS'v_C(trial_PE)[PU]_subj.30'
p114
(dp115
I0
g4
(g5
(I0
tS'b'
tRp116
(I1
(I0
tg8
I00
S''
tbssS'v_C(trial_PE)[UU]'
p117
(dp118
I0
g4
(g5
(I0
tS'b'
tRp119
(I1
(I0
tg8
I00
S''
tbssS'v_C(trial_PE)[T.PU]:pupil_response_1'
p120
(dp121
I0
g4
(g5
(I0
tS'b'
tRp122
(I1
(I0
tg8
I00
S''
tbssS't_C(trial_PE)[PP]_subj.6'
p123
(dp124
I0
g4
(g5
(I0
tS'b'
tRp125
(I1
(I0
tg8
I00
S''
tbssS't_C(trial_PE)[PP]_subj.7'
p126
(dp127
I0
g4
(g5
(I0
tS'b'
tRp128
(I1
(I0
tg8
I00
S''
tbssS't_C(trial_PE)[PP]_subj.4'
p129
(dp130
I0
g4
(g5
(I0
tS'b'
tRp131
(I1
(I0
tg8
I00
S''
tbssS't_C(trial_PE)[PP]_subj.5'
p132
(dp133
I0
g4
(g5
(I0
tS'b'
tRp134
(I1
(I0
tg8
I00
S''
tbssS't_C(trial_PE)[PP]_subj.2'
p135
(dp136
I0
g4
(g5
(I0
tS'b'
tRp137
(I1
(I0
tg8
I00
S''
tbssS't_C(trial_PE)[PP]_subj.3'
p138
(dp139
I0
g4
(g5
(I0
tS'b'
tRp140
(I1
(I0
tg8
I00
S''
tbssS't_C(trial_PE)[PP]_subj.0'
p141
(dp142
I0
g4
(g5
(I0
tS'b'
tRp143
(I1
(I0
tg8
I00
S''
tbssS't_C(trial_PE)[PP]_subj.1'
p144
(dp145
I0
g4
(g5
(I0
tS'b'
tRp146
(I1
(I0
tg8
I00
S''
tbssS't_reg.14'
p147
(dp148
I0
g4
(g5
(I0
tS'b'
tRp149
(I1
(I0
I589
I1
tg8
I00
S''
tbssS't_reg.15'
p150
(dp151
I0
g4
(g5
(I0
tS'b'
tRp152
(I1
(I0
I320
I1
tg8
I00
S''
tbssS't_reg.16'
p153
(dp154
I0
g4
(g5
(I0
tS'b'
tRp155
(I1
(I0
I465
I1
tg8
I00
S''
tbssS't_reg.17'
p156
(dp157
I0
g4
(g5
(I0
tS'b'
tRp158
(I1
(I0
I597
I1
tg8
I00
S''
tbssS't_reg.10'
p159
(dp160
I0
g4
(g5
(I0
tS'b'
tRp161
(I1
(I0
I297
I1
tg8
I00
S''
tbssS't_reg.11'
p162
(dp163
I0
g4
(g5
(I0
tS'b'
tRp164
(I1
(I0
I299
I1
tg8
I00
S''
tbssS't_reg.12'
p165
(dp166
I0
g4
(g5
(I0
tS'b'
tRp167
(I1
(I0
I320
I1
tg8
I00
S''
tbssS't_reg.13'
p168
(dp169
I0
g4
(g5
(I0
tS'b'
tRp170
(I1
(I0
I319
I1
tg8
I00
S''
tbssS'v_reg.29'
p171
(dp172
I0
g4
(g5
(I0
tS'b'
tRp173
(I1
(I0
I598
I1
tg8
I00
S''
tbssS'v_reg.28'
p174
(dp175
I0
g4
(g5
(I0
tS'b'
tRp176
(I1
(I0
I594
I1
tg8
I00
S''
tbssS'v_reg.27'
p177
(dp178
I0
g4
(g5
(I0
tS'b'
tRp179
(I1
(I0
I470
I1
tg8
I00
S''
tbssS'v_reg.26'
p180
(dp181
I0
g4
(g5
(I0
tS'b'
tRp182
(I1
(I0
I573
I1
tg8
I00
S''
tbssS'v_reg.25'
p183
(dp184
I0
g4
(g5
(I0
tS'b'
tRp185
(I1
(I0
I397
I1
tg8
I00
S''
tbssS'v_reg.24'
p186
(dp187
I0
g4
(g5
(I0
tS'b'
tRp188
(I1
(I0
I574
I1
tg8
I00
S''
tbssS'v_reg.23'
p189
(dp190
I0
g4
(g5
(I0
tS'b'
tRp191
(I1
(I0
I599
I1
tg8
I00
S''
tbssS'v_reg.22'
p192
(dp193
I0
g4
(g5
(I0
tS'b'
tRp194
(I1
(I0
I394
I1
tg8
I00
S''
tbssS'v_reg.21'
p195
(dp196
I0
g4
(g5
(I0
tS'b'
tRp197
(I1
(I0
I374
I1
tg8
I00
S''
tbssS'v_reg.20'
p198
(dp199
I0
g4
(g5
(I0
tS'b'
tRp200
(I1
(I0
I361
I1
tg8
I00
S''
tbssS't_C(trial_PE)[UU]_subj.16'
p201
(dp202
I0
g4
(g5
(I0
tS'b'
tRp203
(I1
(I0
tg8
I00
S''
tbssS't_C(trial_PE)[UU]_subj.17'
p204
(dp205
I0
g4
(g5
(I0
tS'b'
tRp206
(I1
(I0
tg8
I00
S''
tbssS't_C(trial_PE)[UU]_subj.14'
p207
(dp208
I0
g4
(g5
(I0
tS'b'
tRp209
(I1
(I0
tg8
I00
S''
tbssS't_C(trial_PE)[UU]_subj.15'
p210
(dp211
I0
g4
(g5
(I0
tS'b'
tRp212
(I1
(I0
tg8
I00
S''
tbssS't_C(trial_PE)[UU]_subj.12'
p213
(dp214
I0
g4
(g5
(I0
tS'b'
tRp215
(I1
(I0
tg8
I00
S''
tbssS't_C(trial_PE)[UU]_subj.13'
p216
(dp217
I0
g4
(g5
(I0
tS'b'
tRp218
(I1
(I0
tg8
I00
S''
tbssS't_C(trial_PE)[UU]_subj.10'
p219
(dp220
I0
g4
(g5
(I0
tS'b'
tRp221
(I1
(I0
tg8
I00
S''
tbssS't_C(trial_PE)[UU]_subj.11'
p222
(dp223
I0
g4
(g5
(I0
tS'b'
tRp224
(I1
(I0
tg8
I00
S''
tbssS't_C(trial_PE)[UU]_subj.18'
p225
(dp226
I0
g4
(g5
(I0
tS'b'
tRp227
(I1
(I0
tg8
I00
S''
tbssS't_C(trial_PE)[UU]_subj.19'
p228
(dp229
I0
g4
(g5
(I0
tS'b'
tRp230
(I1
(I0
tg8
I00
S''
tbssS'v_C(trial_PE)[PP]_subj.18'
p231
(dp232
I0
g4
(g5
(I0
tS'b'
tRp233
(I1
(I0
tg8
I00
S''
tbssS'v_C(trial_PE)[PP]_subj.19'
p234
(dp235
I0
g4
(g5
(I0
tS'b'
tRp236
(I1
(I0
tg8
I00
S''
tbssS'v_C(trial_PE)[PP]_subj.16'
p237
(dp238
I0
g4
(g5
(I0
tS'b'
tRp239
(I1
(I0
tg8
I00
S''
tbssS'v_C(trial_PE)[PP]_subj.17'
p240
(dp241
I0
g4
(g5
(I0
tS'b'
tRp242
(I1
(I0
tg8
I00
S''
tbssS'v_C(trial_PE)[PP]_subj.14'
p243
(dp244
I0
g4
(g5
(I0
tS'b'
tRp245
(I1
(I0
tg8
I00
S''
tbssS'v_C(trial_PE)[PP]_subj.15'
p246
(dp247
I0
g4
(g5
(I0
tS'b'
tRp248
(I1
(I0
tg8
I00
S''
tbssS'v_C(trial_PE)[PP]_subj.12'
p249
(dp250
I0
g4
(g5
(I0
tS'b'
tRp251
(I1
(I0
tg8
I00
S''
tbssS'v_C(trial_PE)[PP]_subj.13'
p252
(dp253
I0
g4
(g5
(I0
tS'b'
tRp254
(I1
(I0
tg8
I00
S''
tbssS'v_C(trial_PE)[PP]_subj.10'
p255
(dp256
I0
g4
(g5
(I0
tS'b'
tRp257
(I1
(I0
tg8
I00
S''
tbssS'v_C(trial_PE)[PP]_subj.11'
p258
(dp259
I0
g4
(g5
(I0
tS'b'
tRp260
(I1
(I0
tg8
I00
S''
tbssS't_C(trial_PE)[UU]_subj.4'
p261
(dp262
I0
g4
(g5
(I0
tS'b'
tRp263
(I1
(I0
tg8
I00
S''
tbssS't_C(trial_PE)[PU]_subj.13'
p264
(dp265
I0
g4
(g5
(I0
tS'b'
tRp266
(I1
(I0
tg8
I00
S''
tbssS't_C(trial_PE)[PU]_subj.12'
p267
(dp268
I0
g4
(g5
(I0
tS'b'
tRp269
(I1
(I0
tg8
I00
S''
tbssS't_C(trial_PE)[PU]_subj.11'
p270
(dp271
I0
g4
(g5
(I0
tS'b'
tRp272
(I1
(I0
tg8
I00
S''
tbssS't_C(trial_PE)[PU]_subj.10'
p273
(dp274
I0
g4
(g5
(I0
tS'b'
tRp275
(I1
(I0
tg8
I00
S''
tbssS't_C(trial_PE)[PU]_subj.17'
p276
(dp277
I0
g4
(g5
(I0
tS'b'
tRp278
(I1
(I0
tg8
I00
S''
tbssS't_C(trial_PE)[PU]_subj.16'
p279
(dp280
I0
g4
(g5
(I0
tS'b'
tRp281
(I1
(I0
tg8
I00
S''
tbssS't_C(trial_PE)[PU]_subj.15'
p282
(dp283
I0
g4
(g5
(I0
tS'b'
tRp284
(I1
(I0
tg8
I00
S''
tbssS't_C(trial_PE)[PU]_subj.14'
p285
(dp286
I0
g4
(g5
(I0
tS'b'
tRp287
(I1
(I0
tg8
I00
S''
tbssS't_C(trial_PE)[PU]_subj.19'
p288
(dp289
I0
g4
(g5
(I0
tS'b'
tRp290
(I1
(I0
tg8
I00
S''
tbssS't_C(trial_PE)[PU]_subj.18'
p291
(dp292
I0
g4
(g5
(I0
tS'b'
tRp293
(I1
(I0
tg8
I00
S''
tbssS't_C(trial_PE)[PP]_std'
p294
(dp295
I0
g4
(g5
(I0
tS'b'
tRp296
(I1
(I0
tg8
I00
S''
tbssS'a'
(dp297
I0
g4
(g5
(I0
tS'b'
tRp298
(I1
(I0
tg8
I00
S''
tbssS'sv'
p299
(dp300
I0
g4
(g5
(I0
tS'b'
tRp301
(I1
(I0
tg8
I00
S''
tbssS't_C(trial_PE)[UP]_std'
p302
(dp303
I0
g4
(g5
(I0
tS'b'
tRp304
(I1
(I0
tg8
I00
S''
tbssS't_reg.8'
p305
(dp306
I0
g4
(g5
(I0
tS'b'
tRp307
(I1
(I0
I300
I1
tg8
I00
S''
tbssS't_reg.9'
p308
(dp309
I0
g4
(g5
(I0
tS'b'
tRp310
(I1
(I0
I299
I1
tg8
I00
S''
tbssS't_reg.2'
p311
(dp312
I0
g4
(g5
(I0
tS'b'
tRp313
(I1
(I0
I285
I1
tg8
I00
S''
tbssS't_reg.3'
p314
(dp315
I0
g4
(g5
(I0
tS'b'
tRp316
(I1
(I0
I199
I1
tg8
I00
S''
tbssS't_reg.0'
p317
(dp318
I0
g4
(g5
(I0
tS'b'
tRp319
(I1
(I0
I298
I1
tg8
I00
S''
tbssS't_reg.1'
p320
(dp321
I0
g4
(g5
(I0
tS'b'
tRp322
(I1
(I0
I299
I1
tg8
I00
S''
tbssS't_reg.6'
p323
(dp324
I0
g4
(g5
(I0
tS'b'
tRp325
(I1
(I0
I299
I1
tg8
I00
S''
tbssS't_reg.7'
p326
(dp327
I0
g4
(g5
(I0
tS'b'
tRp328
(I1
(I0
I264
I1
tg8
I00
S''
tbssS't_reg.4'
p329
(dp330
I0
g4
(g5
(I0
tS'b'
tRp331
(I1
(I0
I300
I1
tg8
I00
S''
tbssS't_reg.5'
p332
(dp333
I0
g4
(g5
(I0
tS'b'
tRp334
(I1
(I0
I300
I1
tg8
I00
S''
tbssS'v_C(trial_PE)[UP]_subj.9'
p335
(dp336
I0
g4
(g5
(I0
tS'b'
tRp337
(I1
(I0
tg8
I00
S''
tbssS'v_C(trial_PE)[UP]_subj.8'
p338
(dp339
I0
g4
(g5
(I0
tS'b'
tRp340
(I1
(I0
tg8
I00
S''
tbssS't_C(trial_PE)[UU]_subj.8'
p341
(dp342
I0
g4
(g5
(I0
tS'b'
tRp343
(I1
(I0
tg8
I00
S''
tbssS't_C(trial_PE)[UU]_subj.9'
p344
(dp345
I0
g4
(g5
(I0
tS'b'
tRp346
(I1
(I0
tg8
I00
S''
tbssS'v_C(trial_PE)[UP]_subj.3'
p347
(dp348
I0
g4
(g5
(I0
tS'b'
tRp349
(I1
(I0
tg8
I00
S''
tbssS't_C(trial_PE)[UU]_subj.5'
p350
(dp351
I0
g4
(g5
(I0
tS'b'
tRp352
(I1
(I0
tg8
I00
S''
tbssS't_C(trial_PE)[UU]_subj.6'
p353
(dp354
I0
g4
(g5
(I0
tS'b'
tRp355
(I1
(I0
tg8
I00
S''
tbssS't_C(trial_PE)[UU]_subj.7'
p356
(dp357
I0
g4
(g5
(I0
tS'b'
tRp358
(I1
(I0
tg8
I00
S''
tbssS'v_C(trial_PE)[UP]_subj.7'
p359
(dp360
I0
g4
(g5
(I0
tS'b'
tRp361
(I1
(I0
tg8
I00
S''
tbssS't_C(trial_PE)[UU]_subj.1'
p362
(dp363
I0
g4
(g5
(I0
tS'b'
tRp364
(I1
(I0
tg8
I00
S''
tbssS't_C(trial_PE)[UU]_subj.2'
p365
(dp366
I0
g4
(g5
(I0
tS'b'
tRp367
(I1
(I0
tg8
I00
S''
tbssS't_C(trial_PE)[UU]_subj.3'
p368
(dp369
I0
g4
(g5
(I0
tS'b'
tRp370
(I1
(I0
tg8
I00
S''
tbssS'v_C(trial_PE)[UP]_subj.28'
p371
(dp372
I0
g4
(g5
(I0
tS'b'
tRp373
(I1
(I0
tg8
I00
S''
tbssS'v_C(trial_PE)[UP]_subj.29'
p374
(dp375
I0
g4
(g5
(I0
tS'b'
tRp376
(I1
(I0
tg8
I00
S''
tbssS'v_C(trial_PE)[UP]_subj.22'
p377
(dp378
I0
g4
(g5
(I0
tS'b'
tRp379
(I1
(I0
tg8
I00
S''
tbssS'v_C(trial_PE)[UP]_subj.23'
p380
(dp381
I0
g4
(g5
(I0
tS'b'
tRp382
(I1
(I0
tg8
I00
S''
tbssS'v_C(trial_PE)[PU]_std'
p383
(dp384
I0
g4
(g5
(I0
tS'b'
tRp385
(I1
(I0
tg8
I00
S''
tbssS'a_std'
p386
(dp387
I0
g4
(g5
(I0
tS'b'
tRp388
(I1
(I0
tg8
I00
S''
tbssS'v_reg.8'
p389
(dp390
I0
g4
(g5
(I0
tS'b'
tRp391
(I1
(I0
I300
I1
tg8
I00
S''
tbssS'v_reg.9'
p392
(dp393
I0
g4
(g5
(I0
tS'b'
tRp394
(I1
(I0
I299
I1
tg8
I00
S''
tbssS'v_reg.0'
p395
(dp396
I0
g4
(g5
(I0
tS'b'
tRp397
(I1
(I0
I298
I1
tg8
I00
S''
tbssS'v_reg.1'
p398
(dp399
I0
g4
(g5
(I0
tS'b'
tRp400
(I1
(I0
I299
I1
tg8
I00
S''
tbssS'v_reg.2'
p401
(dp402
I0
g4
(g5
(I0
tS'b'
tRp403
(I1
(I0
I285
I1
tg8
I00
S''
tbssS'v_reg.3'
p404
(dp405
I0
g4
(g5
(I0
tS'b'
tRp406
(I1
(I0
I199
I1
tg8
I00
S''
tbssS'v_reg.4'
p407
(dp408
I0
g4
(g5
(I0
tS'b'
tRp409
(I1
(I0
I300
I1
tg8
I00
S''
tbssS'v_reg.5'
p410
(dp411
I0
g4
(g5
(I0
tS'b'
tRp412
(I1
(I0
I300
I1
tg8
I00
S''
tbssS'v_reg.6'
p413
(dp414
I0
g4
(g5
(I0
tS'b'
tRp415
(I1
(I0
I299
I1
tg8
I00
S''
tbssS'v_reg.7'
p416
(dp417
I0
g4
(g5
(I0
tS'b'
tRp418
(I1
(I0
I264
I1
tg8
I00
S''
tbssS'v_C(trial_PE)[UU]_subj.32'
p419
(dp420
I0
g4
(g5
(I0
tS'b'
tRp421
(I1
(I0
tg8
I00
S''
tbssS'v_C(trial_PE)[UU]_subj.30'
p422
(dp423
I0
g4
(g5
(I0
tS'b'
tRp424
(I1
(I0
tg8
I00
S''
tbssS'v_C(trial_PE)[UU]_subj.31'
p425
(dp426
I0
g4
(g5
(I0
tS'b'
tRp427
(I1
(I0
tg8
I00
S''
tbssS'v_C(trial_PE)[UP]_subj.19'
p428
(dp429
I0
g4
(g5
(I0
tS'b'
tRp430
(I1
(I0
tg8
I00
S''
tbssS'v_C(trial_PE)[UP]_subj.18'
p431
(dp432
I0
g4
(g5
(I0
tS'b'
tRp433
(I1
(I0
tg8
I00
S''
tbssS'v_C(trial_PE)[UP]_subj.17'
p434
(dp435
I0
g4
(g5
(I0
tS'b'
tRp436
(I1
(I0
tg8
I00
S''
tbssS'v_C(trial_PE)[UP]_subj.16'
p437
(dp438
I0
g4
(g5
(I0
tS'b'
tRp439
(I1
(I0
tg8
I00
S''
tbssS'v_C(trial_PE)[UP]_subj.15'
p440
(dp441
I0
g4
(g5
(I0
tS'b'
tRp442
(I1
(I0
tg8
I00
S''
tbssS'v_C(trial_PE)[UP]_subj.14'
p443
(dp444
I0
g4
(g5
(I0
tS'b'
tRp445
(I1
(I0
tg8
I00
S''
tbssS'v_C(trial_PE)[UP]_subj.13'
p446
(dp447
I0
g4
(g5
(I0
tS'b'
tRp448
(I1
(I0
tg8
I00
S''
tbssS'v_C(trial_PE)[UP]_subj.12'
p449
(dp450
I0
g4
(g5
(I0
tS'b'
tRp451
(I1
(I0
tg8
I00
S''
tbssS'v_C(trial_PE)[UP]_subj.11'
p452
(dp453
I0
g4
(g5
(I0
tS'b'
tRp454
(I1
(I0
tg8
I00
S''
tbssS'v_C(trial_PE)[UP]_subj.10'
p455
(dp456
I0
g4
(g5
(I0
tS'b'
tRp457
(I1
(I0
tg8
I00
S''
tbssS't_C(trial_PE)[UU]'
p458
(dp459
I0
g4
(g5
(I0
tS'b'
tRp460
(I1
(I0
tg8
I00
S''
tbssS'v_C(trial_PE)[PU]_subj.28'
p461
(dp462
I0
g4
(g5
(I0
tS'b'
tRp463
(I1
(I0
tg8
I00
S''
tbssS'v_C(trial_PE)[PU]_subj.29'
p464
(dp465
I0
g4
(g5
(I0
tS'b'
tRp466
(I1
(I0
tg8
I00
S''
tbssS'v_C(trial_PE)[PU]_subj.24'
p467
(dp468
I0
g4
(g5
(I0
tS'b'
tRp469
(I1
(I0
tg8
I00
S''
tbssS'v_C(trial_PE)[PU]_subj.25'
p470
(dp471
I0
g4
(g5
(I0
tS'b'
tRp472
(I1
(I0
tg8
I00
S''
tbssS'v_C(trial_PE)[PU]_subj.26'
p473
(dp474
I0
g4
(g5
(I0
tS'b'
tRp475
(I1
(I0
tg8
I00
S''
tbssS'v_C(trial_PE)[PU]_subj.27'
p476
(dp477
I0
g4
(g5
(I0
tS'b'
tRp478
(I1
(I0
tg8
I00
S''
tbssS'v_C(trial_PE)[PU]_subj.20'
p479
(dp480
I0
g4
(g5
(I0
tS'b'
tRp481
(I1
(I0
tg8
I00
S''
tbssS'v_C(trial_PE)[PU]_subj.21'
p482
(dp483
I0
g4
(g5
(I0
tS'b'
tRp484
(I1
(I0
tg8
I00
S''
tbssS'v_C(trial_PE)[PU]_subj.22'
p485
(dp486
I0
g4
(g5
(I0
tS'b'
tRp487
(I1
(I0
tg8
I00
S''
tbssS'v_C(trial_PE)[PU]_subj.23'
p488
(dp489
I0
g4
(g5
(I0
tS'b'
tRp490
(I1
(I0
tg8
I00
S''
tbssS'v_C(trial_PE)[UP]_std'
p491
(dp492
I0
g4
(g5
(I0
tS'b'
tRp493
(I1
(I0
tg8
I00
S''
tbssS'v_reg.12'
p494
(dp495
I0
g4
(g5
(I0
tS'b'
tRp496
(I1
(I0
I320
I1
tg8
I00
S''
tbssS'v_reg.13'
p497
(dp498
I0
g4
(g5
(I0
tS'b'
tRp499
(I1
(I0
I319
I1
tg8
I00
S''
tbssS'v_reg.10'
p500
(dp501
I0
g4
(g5
(I0
tS'b'
tRp502
(I1
(I0
I297
I1
tg8
I00
S''
tbssS'v_reg.11'
p503
(dp504
I0
g4
(g5
(I0
tS'b'
tRp505
(I1
(I0
I299
I1
tg8
I00
S''
tbssS'v_reg.16'
p506
(dp507
I0
g4
(g5
(I0
tS'b'
tRp508
(I1
(I0
I465
I1
tg8
I00
S''
tbssS'v_reg.17'
p509
(dp510
I0
g4
(g5
(I0
tS'b'
tRp511
(I1
(I0
I597
I1
tg8
I00
S''
tbssS'v_reg.14'
p512
(dp513
I0
g4
(g5
(I0
tS'b'
tRp514
(I1
(I0
I589
I1
tg8
I00
S''
tbssS'v_reg.15'
p515
(dp516
I0
g4
(g5
(I0
tS'b'
tRp517
(I1
(I0
I320
I1
tg8
I00
S''
tbssS'v_reg.18'
p518
(dp519
I0
g4
(g5
(I0
tS'b'
tRp520
(I1
(I0
I599
I1
tg8
I00
S''
tbssS'v_reg.19'
p521
(dp522
I0
g4
(g5
(I0
tS'b'
tRp523
(I1
(I0
I590
I1
tg8
I00
S''
tbssS'_state_'
p524
(dp525
S'stochastics'
p526
(dp527
S'v_C(trial_PE)[UU]_subj.2'
p528
g4
(g5
(I0
tS'b'
tRp529
(I1
(tg8
I00
S'\xfe;m\xff/9\xe6?'
tbsS'v_C(trial_PE)[UU]_subj.3'
p530
g4
(g5
(I0
tS'b'
tRp531
(I1
(tg8
I00
S'C\xfc\x0f\x1e\x99\xcc\xe9?'
tbsS'v_C(trial_PE)[UU]_subj.0'
p532
g4
(g5
(I0
tS'b'
tRp533
(I1
(tg8
I00
S'\xbbO\x9f[\xf5"\xeb?'
tbsS'v_C(trial_PE)[UU]_subj.1'
p534
g4
(g5
(I0
tS'b'
tRp535
(I1
(tg8
I00
S'\xba\x12Mi\xc0D\xe2?'
tbsS'v_C(trial_PE)[UU]_subj.6'
p536
g4
(g5
(I0
tS'b'
tRp537
(I1
(tg8
I00
S'\xea\xd0F\xb1\xb5\x84\xf0?'
tbsS'v_C(trial_PE)[UU]_subj.7'
p538
g4
(g5
(I0
tS'b'
tRp539
(I1
(tg8
I00
S'L\x90\x00%\xfdH\xe6?'
tbsS'v_C(trial_PE)[UU]_subj.4'
p540
g4
(g5
(I0
tS'b'
tRp541
(I1
(tg8
I00
S'\\\xb4\xca\tt\xac\xf0?'
tbsS'v_C(trial_PE)[UU]_subj.5'
p542
g4
(g5
(I0
tS'b'
tRp543
(I1
(tg8
I00
S'\xf8\xceW>q\x1d\xf2?'
tbsS't_C(trial_PE)[PP]_subj.25'
p544
g4
(g5
(I0
tS'b'
tRp545
(I1
(tg8
I00
S'\x01\xed\xc2,\xc9\xae\xd9?'
tbsS't_C(trial_PE)[PP]_subj.24'
p546
g4
(g5
(I0
tS'b'
tRp547
(I1
(tg8
I00
S'Z\xa4\xad\x8e\x88D\xd3?'
tbsS'v_C(trial_PE)[UU]_subj.8'
p548
g4
(g5
(I0
tS'b'
tRp549
(I1
(tg8
I00
S'I![5cY\xec?'
tbsS't_C(trial_PE)[PP]_subj.26'
p550
g4
(g5
(I0
tS'b'
tRp551
(I1
(tg8
I00
S'l\xbb\xbb\x16w\xbb\xd2?'
tbsS't_C(trial_PE)[PP]_subj.21'
p552
g4
(g5
(I0
tS'b'
tRp553
(I1
(tg8
I00
S'\x85\x84\xfc\xbb"\xea\xca?'
tbsS't_C(trial_PE)[PP]_subj.20'
p554
g4
(g5
(I0
tS'b'
tRp555
(I1
(tg8
I00
S'*j\xcb\xbfs[\xd6?'
tbsS't_C(trial_PE)[PP]_subj.23'
p556
g4
(g5
(I0
tS'b'
tRp557
(I1
(tg8
I00
S't2\xbe\xe9\x8e\xa5\xcd?'
tbsS't_C(trial_PE)[PP]_subj.22'
p558
g4
(g5
(I0
tS'b'
tRp559
(I1
(tg8
I00
S't\x7f\xac\x1c\xfa\x96\xda?'
tbsS'v_C(trial_PE)[PU]_subj.15'
p560
g4
(g5
(I0
tS'b'
tRp561
(I1
(tg8
I00
S'\xaaYQV\xe1\x00\xf3?'
tbsS'v_C(trial_PE)[PU]_subj.14'
p562
g4
(g5
(I0
tS'b'
tRp563
(I1
(tg8
I00
S'\x88(\xd6\xec\xae\x96\xf6?'
tbsS'v_C(trial_PE)[PU]_subj.17'
p564
g4
(g5
(I0
tS'b'
tRp565
(I1
(tg8
I00
S':\xcez\xd1\xf2X\xec?'
tbsS'v_C(trial_PE)[PU]_subj.16'
p566
g4
(g5
(I0
tS'b'
tRp567
(I1
(tg8
I00
S'I9\xae\xb8\x05/\xe4?'
tbsS'v_C(trial_PE)[PP]_subj.30'
p568
g4
(g5
(I0
tS'b'
tRp569
(I1
(tg8
I00
S'\xa4W\x1d;\xe4\x04\xcb?'
tbsg9
g4
(g5
(I0
tS'b'
tRp570
(I1
(tg8
I00
S'\xf4\x9ao\x00^1\xd7?'
tbsS'v_C(trial_PE)[PU]_subj.13'
p571
g4
(g5
(I0
tS'b'
tRp572
(I1
(tg8
I00
S'\xbey\x14\xd0\xa5\xa1\xf1?'
tbsS'v_C(trial_PE)[PU]_subj.12'
p573
g4
(g5
(I0
tS'b'
tRp574
(I1
(tg8
I00
S'\xab\x9f\x9a\xdd\xbb\xd8\xe8?'
tbsg261
g4
(g5
(I0
tS'b'
tRp575
(I1
(tg8
I00
S'\xed\xf4\xe9\xbe\xee\x86\xd7?'
tbsg350
g4
(g5
(I0
tS'b'
tRp576
(I1
(tg8
I00
S'\xfb\xbe\x8e\x7fgH\xda?'
tbsS'v_C(trial_PE)[UP]_subj.1'
p577
g4
(g5
(I0
tS'b'
tRp578
(I1
(tg8
I00
S'\xd43\xf0\x8c\x87q\xe6?'
tbsg356
g4
(g5
(I0
tS'b'
tRp579
(I1
(tg8
I00
S'\xd03\x1b\xea\xdeH\xe4?'
tbsg24
g4
(g5
(I0
tS'b'
tRp580
(I1
(tg8
I00
S'S\x0f\xb1\xcd\xc7\x83\xd9?'
tbsS'v_C(trial_PE)[PU]_subj.18'
p581
g4
(g5
(I0
tS'b'
tRp582
(I1
(tg8
I00
S'98(\x9c\xd6u\xf5?'
tbsg365
g4
(g5
(I0
tS'b'
tRp583
(I1
(tg8
I00
S'\xdbt<bk\xdc\xd8?'
tbsS't_C(trial_PE)[PP]_subj.28'
p584
g4
(g5
(I0
tS'b'
tRp585
(I1
(tg8
I00
S'K\x7f\xb1\xed_y\xd1?'
tbsg458
g4
(g5
(I0
tS'b'
tRp586
(I1
(tg8
I00
S'\x16\xc8\x97\x0e\x9a\xd4\xdc?'
tbsS'v_C(trial_PE)[UP]_subj.31'
p587
g4
(g5
(I0
tS'b'
tRp588
(I1
(tg8
I00
S'*j\xeb"g\xb9\xf2?'
tbsS'v_C(trial_PE)[UP]_subj.30'
p589
g4
(g5
(I0
tS'b'
tRp590
(I1
(tg8
I00
S'u0\xe3M\x84\xe6\xcc?'
tbsg455
g4
(g5
(I0
tS'b'
tRp591
(I1
(tg8
I00
S'\\\x9c\xefy\x00\x04\xe1?'
tbsS'v_C(trial_PE)[UP]_subj.32'
p592
g4
(g5
(I0
tS'b'
tRp593
(I1
(tg8
I00
S'\x84%Y\xa4:x\xed?'
tbsS'v_C(trial_PE)[PP]_subj.6'
p594
g4
(g5
(I0
tS'b'
tRp595
(I1
(tg8
I00
S'\x1c\xe6\x10Z\x91\xf1\xe1?'
tbsS't_C(trial_PE)[UU]_subj.28'
p596
g4
(g5
(I0
tS'b'
tRp597
(I1
(tg8
I00
S'K$\xee\xe47\x16\xd4?'
tbsS't_C(trial_PE)[UU]_subj.26'
p598
g4
(g5
(I0
tS'b'
tRp599
(I1
(tg8
I00
S'\xa1+\xda9\x99\xcd\xd5?'
tbsS'v_C(trial_PE)[UP]_subj.5'
p600
g4
(g5
(I0
tS'b'
tRp601
(I1
(tg8
I00
S'0\x88\xf5\xc2f}\xef?'
tbsS'a_subj.22'
p602
g4
(g5
(I0
tS'b'
tRp603
(I1
(tg8
I00
S'\xda\xc1A\xd1\x17Z\x00@'
tbsg362
g4
(g5
(I0
tS'b'
tRp604
(I1
(tg8
I00
S'\x97w%\xe4\xd0\xd6\xdf?'
tbsS't_C(trial_PE)[PP]_subj.27'
p605
g4
(g5
(I0
tS'b'
tRp606
(I1
(tg8
I00
S'.\xf2I\x99\xd3\x19\xd7?'
tbsS'v_C(trial_PE)[PP]_std'
p607
g4
(g5
(I0
tS'b'
tRp608
(I1
(tg8
I00
S'f#\xec\xe90#\xce?'
tbsS'v_C(trial_PE)[PP]_subj.4'
p609
g4
(g5
(I0
tS'b'
tRp610
(I1
(tg8
I00
S'K\x05\xef\xab\t\xbb\xf0?'
tbsS'a_subj.14'
p611
g4
(g5
(I0
tS'b'
tRp612
(I1
(tg8
I00
S')\xa8l\xc9\x84#\x01@'
tbsS'v_C(trial_PE)[UU]_subj.9'
p613
g4
(g5
(I0
tS'b'
tRp614
(I1
(tg8
I00
S'{2\x18AA\x1b\xf1?'
tbsS'v_C(trial_PE)[PP]_subj.5'
p615
g4
(g5
(I0
tS'b'
tRp616
(I1
(tg8
I00
S'\x83\xa4.\x9fi \xee?'
tbsg36
g4
(g5
(I0
tS'b'
tRp617
(I1
(tg8
I00
S'+p\x12I6\xe7\xd6?'
tbsg371
g4
(g5
(I0
tS'b'
tRp618
(I1
(tg8
I00
S'&\x8c\xa3<\x9c\x01\xee?'
tbsg39
g4
(g5
(I0
tS'b'
tRp619
(I1
(tg8
I00
S'\xa0L\x7f\xca\xa9O\xc6?'
tbsg42
g4
(g5
(I0
tS'b'
tRp620
(I1
(tg8
I00
S'\xb6\x9d\x16d%a\xcb?'
tbsg374
g4
(g5
(I0
tS'b'
tRp621
(I1
(tg8
I00
S'\xe7\xe6Y\xf0\x156\xe8?'
tbsS'a_subj.29'
p622
g4
(g5
(I0
tS'b'
tRp623
(I1
(tg8
I00
S'\x15\x13\x8a\x94)\xb9\xfa?'
tbsS'a_subj.28'
p624
g4
(g5
(I0
tS'b'
tRp625
(I1
(tg8
I00
S'\xec\x88\xbc\xe2\xadD\x01@'
tbsS'a_subj.25'
p626
g4
(g5
(I0
tS'b'
tRp627
(I1
(tg8
I00
S'\x89y0\xe9\xd2\xbc\x00@'
tbsS'a_subj.24'
p628
g4
(g5
(I0
tS'b'
tRp629
(I1
(tg8
I00
S'gO\xa3\xa1$\x08\x01@'
tbsS'a_subj.27'
p630
g4
(g5
(I0
tS'b'
tRp631
(I1
(tg8
I00
S':\x07]d\xbb\xe7\x03@'
tbsS'a_subj.26'
p632
g4
(g5
(I0
tS'b'
tRp633
(I1
(tg8
I00
S'\x17}I2\xe0J\x00@'
tbsS'a_subj.21'
p634
g4
(g5
(I0
tS'b'
tRp635
(I1
(tg8
I00
S'\x9c]\x9f/\xb0\xd0\x02@'
tbsS'a_subj.20'
p636
g4
(g5
(I0
tS'b'
tRp637
(I1
(tg8
I00
S'\x08\xa3kbD\xf4\xf9?'
tbsS'a_subj.23'
p638
g4
(g5
(I0
tS'b'
tRp639
(I1
(tg8
I00
S'\xc9y^\xadI\x06\xff?'
tbsg216
g4
(g5
(I0
tS'b'
tRp640
(I1
(tg8
I00
S'\x99\xa3\x81\xcf\xec\xa9\xd9?'
tbsg48
g4
(g5
(I0
tS'b'
tRp641
(I1
(tg8
I00
S'&\x0f\xce\x0f\xba\x9f\xf0?'
tbsg51
g4
(g5
(I0
tS'b'
tRp642
(I1
(tg8
I00
S'\xb9\xb6\xac\xec\xf0\x18\xf2?'
tbsg54
g4
(g5
(I0
tS'b'
tRp643
(I1
(tg8
I00
S')[1s"\x1c\xeb?'
tbsg57
g4
(g5
(I0
tS'b'
tRp644
(I1
(tg8
I00
S'\xb77\x16\xf4\xd1\x17\xeb?'
tbsS'v_pupil_response_1'
p645
g4
(g5
(I0
tS'b'
tRp646
(I1
(tg8
I00
S'M\xc5\xa6Q\xc7\xdfc\xbf'
tbsg63
g4
(g5
(I0
tS'b'
tRp647
(I1
(tg8
I00
S'\x1d\x02\x86fu\x04\xe4?'
tbsg66
g4
(g5
(I0
tS'b'
tRp648
(I1
(tg8
I00
S'DyQ4\x95\xc3\xf0?'
tbsg69
g4
(g5
(I0
tS'b'
tRp649
(I1
(tg8
I00
S'9\r\x8ct<l\xed?'
tbsg377
g4
(g5
(I0
tS'b'
tRp650
(I1
(tg8
I00
S'\x8c\xccX`\xc3\xe5\xed?'
tbsg75
g4
(g5
(I0
tS'b'
tRp651
(I1
(tg8
I00
S'\x86~E\xfd\xd2 \xef?'
tbsg78
g4
(g5
(I0
tS'b'
tRp652
(I1
(tg8
I00
S'\x8e\xa6\x084\xa6\xcd\xf3?'
tbsg81
g4
(g5
(I0
tS'b'
tRp653
(I1
(tg8
I00
S'88\xc0\x7f\xeb5\xe0?'
tbsg84
g4
(g5
(I0
tS'b'
tRp654
(I1
(tg8
I00
S']\xe3\x03\xc1\x8b\x85\xe8?'
tbsg87
g4
(g5
(I0
tS'b'
tRp655
(I1
(tg8
I00
S'\x05?Ob\x1c@\xee?'
tbsg90
g4
(g5
(I0
tS'b'
tRp656
(I1
(tg8
I00
S'\xb4\xb0V\x16Q\xb2\xe0?'
tbsg93
g4
(g5
(I0
tS'b'
tRp657
(I1
(tg8
I00
S'\xa9\xfa\xe0#f\xab\xda?'
tbsg72
g4
(g5
(I0
tS'b'
tRp658
(I1
(tg8
I00
S'\x12\n\xb8\xd9\x97\x83\xe6?'
tbsg335
g4
(g5
(I0
tS'b'
tRp659
(I1
(tg8
I00
S'7\xb8\xef\xfe\xea\xa4\xd5?'
tbsS'a_subj.17'
p660
g4
(g5
(I0
tS'b'
tRp661
(I1
(tg8
I00
S'/\xa0P]\xf2\x9e\xfd?'
tbsS'v_C(trial_PE)[PP]'
p662
g4
(g5
(I0
tS'b'
tRp663
(I1
(tg8
I00
S'\xe99X\xa4b\xc2\xea?'
tbsg491
g4
(g5
(I0
tS'b'
tRp664
(I1
(tg8
I00
S'\xdc\xbc\xdc\xf6\x8e8\xcb?'
tbsg380
g4
(g5
(I0
tS'b'
tRp665
(I1
(tg8
I00
S'\x8e%+\xa1\x0e\xa6\xef?'
tbsg368
g4
(g5
(I0
tS'b'
tRp666
(I1
(tg8
I00
S'\x16\xc5[\x95\x05p\xe5?'
tbsg341
g4
(g5
(I0
tS'b'
tRp667
(I1
(tg8
I00
S'o\xdb\x0f\x82\xeb\xc7\xde?'
tbsg344
g4
(g5
(I0
tS'b'
tRp668
(I1
(tg8
I00
S'HQ_!L.\xdf?'
tbsg96
g4
(g5
(I0
tS'b'
tRp669
(I1
(tg8
I00
S'\xfa;\x1av\xc3\xce\xbb?'
tbsg386
g4
(g5
(I0
tS'b'
tRp670
(I1
(tg8
I00
S'\xfb p2\xad\x7f\xd2?'
tbsg141
g4
(g5
(I0
tS'b'
tRp671
(I1
(tg8
I00
S'\x16(\xaa\x82h\x8f\xe1?'
tbsg213
g4
(g5
(I0
tS'b'
tRp672
(I1
(tg8
I00
S'\x05\xafF\xd8&\xb5\xdc?'
tbsS'a_subj.13'
p673
g4
(g5
(I0
tS'b'
tRp674
(I1
(tg8
I00
S'\xf0k%B\xb5\x80\x01@'
tbsg338
g4
(g5
(I0
tS'b'
tRp675
(I1
(tg8
I00
S'\x9b/\x17\xb7\xd2+\xe7?'
tbsS't_C(trial_PE)[UP]_subj.32'
p676
g4
(g5
(I0
tS'b'
tRp677
(I1
(tg8
I00
S'5\x86*1o\xf1\xd7?'
tbsS't_C(trial_PE)[UP]_subj.31'
p678
g4
(g5
(I0
tS'b'
tRp679
(I1
(tg8
I00
S'\x1f\xdf@\xc9\xea\x08\xd3?'
tbsS't_C(trial_PE)[UP]_subj.30'
p680
g4
(g5
(I0
tS'b'
tRp681
(I1
(tg8
I00
S'\xca\x85N\xb8\xa2\t\xd1?'
tbsg12
g4
(g5
(I0
tS'b'
tRp682
(I1
(tg8
I00
S'h>\x1e\x99Z\xd5\xd2?'
tbsg15
g4
(g5
(I0
tS'b'
tRp683
(I1
(tg8
I00
S'xc\xb7\xea\x9f\xd8\xdd?'
tbsS'a_subj.10'
p684
g4
(g5
(I0
tS'b'
tRp685
(I1
(tg8
I00
S'O\x00\xf9\x1d\x9e\xbb\xff?'
tbsg228
g4
(g5
(I0
tS'b'
tRp686
(I1
(tg8
I00
S'\xe3F_\xf3\xa6\xa2\xdf?'
tbsg99
g4
(g5
(I0
tS'b'
tRp687
(I1
(tg8
I00
S'\xdaD\xb5\xb9.\x88\xfb?'
tbsg18
g4
(g5
(I0
tS'b'
tRp688
(I1
(tg8
I00
S'\xd1\xb8\x90\xac\xa6{\xd8?'
tbsg102
g4
(g5
(I0
tS'b'
tRp689
(I1
(tg8
I00
S']\x1fi\xfe\xcf\x84\x04@'
tbsg105
g4
(g5
(I0
tS'b'
tRp690
(I1
(tg8
I00
S'I\xc7\x86\xdb\x96f\xfe?'
tbsg419
g4
(g5
(I0
tS'b'
tRp691
(I1
(tg8
I00
S'z\xbf\xa8\x87\xc7\xe6\xec?'
tbsg422
g4
(g5
(I0
tS'b'
tRp692
(I1
(tg8
I00
S'\xd7\x9a#:\x9c\xec\xdb?'
tbsg425
g4
(g5
(I0
tS'b'
tRp693
(I1
(tg8
I00
S'\x7f\xb6\x90\x97\xf7/\xed?'
tbsg437
g4
(g5
(I0
tS'b'
tRp694
(I1
(tg8
I00
S'\xa9}\x81\xc1\x9c\xe0\xee?'
tbsg431
g4
(g5
(I0
tS'b'
tRp695
(I1
(tg8
I00
S'{\xa4j\xb4\xb5\x18\xf2?'
tbsg434
g4
(g5
(I0
tS'b'
tRp696
(I1
(tg8
I00
S'\x1c@\x8et@\x8f\xf0?'
tbsg359
g4
(g5
(I0
tS'b'
tRp697
(I1
(tg8
I00
S'\x9e\xa3\x1d\x0b)\xff\xe7?'
tbsg440
g4
(g5
(I0
tS'b'
tRp698
(I1
(tg8
I00
S'\xaf\xfe\xcb.\xfdx\xf2?'
tbsg443
g4
(g5
(I0
tS'b'
tRp699
(I1
(tg8
I00
S'b\xe9h\x8a\xbay\xee?'
tbsg446
g4
(g5
(I0
tS'b'
tRp700
(I1
(tg8
I00
S'7B~\xc8\x8d\x94\xe6?'
tbsg449
g4
(g5
(I0
tS'b'
tRp701
(I1
(tg8
I00
S'\xe8\xbc#\x81\xf4\xb5\xec?'
tbsg452
g4
(g5
(I0
tS'b'
tRp702
(I1
(tg8
I00
S'\x19\xb1\x9b\xb7\x8e\xd4\xe7?'
tbsS't_C(trial_PE)[UU]_subj.21'
p703
g4
(g5
(I0
tS'b'
tRp704
(I1
(tg8
I00
S'R\x03]\xc4\xf20\xd0?'
tbsg30
g4
(g5
(I0
tS'b'
tRp705
(I1
(tg8
I00
S'\x84\xd3;\x1bL\xe2\xcf?'
tbsS'v_C(trial_PE)[UP]_subj.4'
p706
g4
(g5
(I0
tS'b'
tRp707
(I1
(tg8
I00
S'\xf7\xcd\xaf\xfa\xe2\xb8\xf1?'
tbsS't_C(trial_PE)[PP]_subj.14'
p708
g4
(g5
(I0
tS'b'
tRp709
(I1
(tg8
I00
S'\xb1\xbb\xa2:\x94\x1d\xdf?'
tbsS't_C(trial_PE)[PP]_subj.15'
p710
g4
(g5
(I0
tS'b'
tRp711
(I1
(tg8
I00
S'\x7f\xffKz\xc5\xdd\xd7?'
tbsS't_C(trial_PE)[PP]_subj.16'
p712
g4
(g5
(I0
tS'b'
tRp713
(I1
(tg8
I00
S'\xd4\xcc\nRL\xd0\xd5?'
tbsS't_C(trial_PE)[PP]_subj.17'
p714
g4
(g5
(I0
tS'b'
tRp715
(I1
(tg8
I00
S'DX\xfa\x95\x8c\xa9\xd8?'
tbsS't_C(trial_PE)[PP]_subj.10'
p716
g4
(g5
(I0
tS'b'
tRp717
(I1
(tg8
I00
S'\xee\xc9#3\xf2\xd2\xd8?'
tbsg219
g4
(g5
(I0
tS'b'
tRp718
(I1
(tg8
I00
S'S\xd0n\xb4\xf6\x00\xdf?'
tbsS't_C(trial_PE)[PP]_subj.12'
p719
g4
(g5
(I0
tS'b'
tRp720
(I1
(tg8
I00
S'\x8f\xf7\x00\x83\xbf\x17\xdb?'
tbsS't_C(trial_PE)[PP]_subj.13'
p721
g4
(g5
(I0
tS'b'
tRp722
(I1
(tg8
I00
S'\xd1\\\n\xdd?\x8d\xd9?'
tbsS't_C(trial_PE)[PP]_subj.18'
p723
g4
(g5
(I0
tS'b'
tRp724
(I1
(tg8
I00
S'+\xc9l&\xa2:\xd6?'
tbsS't_C(trial_PE)[PP]_subj.19'
p725
g4
(g5
(I0
tS'b'
tRp726
(I1
(tg8
I00
S'\xd2HV\xbd\xfb\xa3\xd9?'
tbsS't_C(trial_PE)[UP]'
p727
g4
(g5
(I0
tS'b'
tRp728
(I1
(tg8
I00
S'4Q\xc2R\xe6\xa8\xd8?'
tbsS't_C(trial_PE)[UP]_subj.24'
p729
g4
(g5
(I0
tS'b'
tRp730
(I1
(tg8
I00
S'\x9c\xb1Jg\x19\x85\xd3?'
tbsS't_C(trial_PE)[UP]_subj.25'
p731
g4
(g5
(I0
tS'b'
tRp732
(I1
(tg8
I00
S'\x04\xab\xa8\x17\xfb-\xd8?'
tbsS't_C(trial_PE)[UP]_subj.26'
p733
g4
(g5
(I0
tS'b'
tRp734
(I1
(tg8
I00
S"\xf3\xde\x87\x9b'a\xd3?"
tbsS't_C(trial_PE)[UP]_subj.27'
p735
g4
(g5
(I0
tS'b'
tRp736
(I1
(tg8
I00
S'\xbc\xbc\x1c8J\x10\xdc?'
tbsS't_C(trial_PE)[UP]_subj.20'
p737
g4
(g5
(I0
tS'b'
tRp738
(I1
(tg8
I00
S'\xb8\xefP9\xaf\xae\xd9?'
tbsS't_C(trial_PE)[UP]_subj.21'
p739
g4
(g5
(I0
tS'b'
tRp740
(I1
(tg8
I00
S'\xe55\x86\xa0\xf5\x8e\xd2?'
tbsS't_C(trial_PE)[UP]_subj.22'
p741
g4
(g5
(I0
tS'b'
tRp742
(I1
(tg8
I00
S'\xc9\x87\xf4\xf0p\xa7\xd6?'
tbsS't_C(trial_PE)[UP]_subj.23'
p743
g4
(g5
(I0
tS'b'
tRp744
(I1
(tg8
I00
S'URV\xacX\xda\xcc?'
tbsS't_C(trial_PE)[UP]_subj.28'
p745
g4
(g5
(I0
tS'b'
tRp746
(I1
(tg8
I00
S'DZ@1\xdb\xff\xd3?'
tbsS't_C(trial_PE)[UP]_subj.29'
p747
g4
(g5
(I0
tS'b'
tRp748
(I1
(tg8
I00
S'kx\xba%\x08\xd7\xd0?'
tbsS'v_C(trial_PE)[UP]_subj.6'
p749
g4
(g5
(I0
tS'b'
tRp750
(I1
(tg8
I00
S'\xacW\xb5\xb2x\x82\xe4?'
tbsg222
g4
(g5
(I0
tS'b'
tRp751
(I1
(tg8
I00
S'\xf9\x871\x0cc\x08\xe1?'
tbsS't_C(trial_PE)[PU]_subj.9'
p752
g4
(g5
(I0
tS'b'
tRp753
(I1
(tg8
I00
S'm\xfb\xda\x04\xc3\xbb\xdc?'
tbsS'v_C(trial_PE)[T.UP]:pupil_response_1'
p754
g4
(g5
(I0
tS'b'
tRp755
(I1
(tg8
I00
S'r\xf6\xd1\xbd?\xc5\xa7?'
tbsg108
g4
(g5
(I0
tS'b'
tRp756
(I1
(tg8
I00
S'D\xe4\xdf\xf8\x9fR\xea?'
tbsg111
g4
(g5
(I0
tS'b'
tRp757
(I1
(tg8
I00
S'\x10\xb2\x9d*\xeb\xc2\xf3?'
tbsg114
g4
(g5
(I0
tS'b'
tRp758
(I1
(tg8
I00
S'H\x80\x1f\\\xdb\x88\xe7?'
tbsS'v_C(trial_PE)[PP]_subj.21'
p759
g4
(g5
(I0
tS'b'
tRp760
(I1
(tg8
I00
S'V\xdd|b\x16\x98\xe8?'
tbsS'v_C(trial_PE)[PU]_subj.19'
p761
g4
(g5
(I0
tS'b'
tRp762
(I1
(tg8
I00
S'\x0e=\x0f"\xce\x07\xdf?'
tbsg21
g4
(g5
(I0
tS'b'
tRp763
(I1
(tg8
I00
S'\xb0#s\x89b\t\xd6?'
tbsS't_C(trial_PE)[PU]_subj.20'
p764
g4
(g5
(I0
tS'b'
tRp765
(I1
(tg8
I00
S'\xe2\xb2>\xad\xf5W\xd4?'
tbsg383
g4
(g5
(I0
tS'b'
tRp766
(I1
(tg8
I00
S'\xa5\xbd%\xc1\xc2o\xd5?'
tbsg117
g4
(g5
(I0
tS'b'
tRp767
(I1
(tg8
I00
S'\xd6\xb3\x1a(\r\xc6\xec?'
tbsS't_C(trial_PE)[PU]'
p768
g4
(g5
(I0
tS'b'
tRp769
(I1
(tg8
I00
S'\xfd9\xaa\x1d\xad\xae\xd7?'
tbsS'v_C(trial_PE)[PU]_subj.9'
p770
g4
(g5
(I0
tS'b'
tRp771
(I1
(tg8
I00
S'G\xed\xef\xdd\xc0\xef\xf2?'
tbsS'v_C(trial_PE)[PU]_subj.8'
p772
g4
(g5
(I0
tS'b'
tRp773
(I1
(tg8
I00
S'0\xee\xa3\xef\xf4\xc4\xf0?'
tbsg120
g4
(g5
(I0
tS'b'
tRp774
(I1
(tg8
I00
S'\xf8\xee9\xf5\xb4<\xa1?'
tbsg479
g4
(g5
(I0
tS'b'
tRp775
(I1
(tg8
I00
S'`F\xeb\x85\xa2\xeb\xf6?'
tbsS'v_C(trial_PE)[PU]_subj.5'
p776
g4
(g5
(I0
tS'b'
tRp777
(I1
(tg8
I00
S'\xa8\x82_\xd2S\x0f\xf3?'
tbsS'v_C(trial_PE)[PU]_subj.4'
p778
g4
(g5
(I0
tS'b'
tRp779
(I1
(tg8
I00
S'\xe4\x87\x82\x9fz\xe1\xeb?'
tbsS'v_C(trial_PE)[PU]_subj.7'
p780
g4
(g5
(I0
tS'b'
tRp781
(I1
(tg8
I00
S'\xf4\'\x92"\xe8#\xe1?'
tbsS'v_C(trial_PE)[PU]_subj.6'
p782
g4
(g5
(I0
tS'b'
tRp783
(I1
(tg8
I00
S'Um\xabx\xa7\x17\xe6?'
tbsS'v_C(trial_PE)[PU]_subj.1'
p784
g4
(g5
(I0
tS'b'
tRp785
(I1
(tg8
I00
S'\xce0\xb2H\xb7`\xf2?'
tbsS'v_C(trial_PE)[PU]_subj.0'
p786
g4
(g5
(I0
tS'b'
tRp787
(I1
(tg8
I00
S'!\x04\xbe\xe0\xfeb\xe9?'
tbsS'v_C(trial_PE)[PU]_subj.3'
p788
g4
(g5
(I0
tS'b'
tRp789
(I1
(tg8
I00
S'1\x83|\xe9\xd5\x02\xf4?'
tbsS'v_C(trial_PE)[PU]_subj.2'
p790
g4
(g5
(I0
tS'b'
tRp791
(I1
(tg8
I00
S'\x82/\xe8\x0b/?\xe8?'
tbsg123
g4
(g5
(I0
tS'b'
tRp792
(I1
(tg8
I00
S'@\xbb\x1e\xb9\x98\xf4\xd8?'
tbsS'a_subj.15'
p793
g4
(g5
(I0
tS'b'
tRp794
(I1
(tg8
I00
S'H\xdev\x93\xba\xf6\x00@'
tbsS'a_subj.16'
p795
g4
(g5
(I0
tS'b'
tRp796
(I1
(tg8
I00
S'\xa85<\xba>\xd2\xff?'
tbsg132
g4
(g5
(I0
tS'b'
tRp797
(I1
(tg8
I00
S'\xa1\xa9\xc8\xdc0\xf0\xd6?'
tbsg135
g4
(g5
(I0
tS'b'
tRp798
(I1
(tg8
I00
S'l\x00o1\xac&\xe0?'
tbsg138
g4
(g5
(I0
tS'b'
tRp799
(I1
(tg8
I00
S'\xa4&\x89\xb9\xd8\x82\xdb?'
tbsS'a_subj.12'
p800
g4
(g5
(I0
tS'b'
tRp801
(I1
(tg8
I00
S'\xfb\xf7?\xa2\xb6,\x02@'
tbsg144
g4
(g5
(I0
tS'b'
tRp802
(I1
(tg8
I00
S'6\x0b\x10\xfd\x8fv\xdb?'
tbsS'a_subj.18'
p803
g4
(g5
(I0
tS'b'
tRp804
(I1
(tg8
I00
S'\xd2\xf1\xb7\xe5X\x82\xfa?'
tbsS'a_subj.19'
p805
g4
(g5
(I0
tS'b'
tRp806
(I1
(tg8
I00
S'\x0e\xe6\x07q\xc4\x9c\x01@'
tbsS't_C(trial_PE)[PP]_subj.8'
p807
g4
(g5
(I0
tS'b'
tRp808
(I1
(tg8
I00
S'\xd5F\x9av\xaf\x00\xde?'
tbsS't_C(trial_PE)[PP]_subj.9'
p809
g4
(g5
(I0
tS'b'
tRp810
(I1
(tg8
I00
S'\xe6\xb6\xe1\xaev6\xda?'
tbsS't_C(trial_PE)[PP]'
p811
g4
(g5
(I0
tS'b'
tRp812
(I1
(tg8
I00
S'\xda\xfcVe\x90\x1f\xd6?'
tbsg461
g4
(g5
(I0
tS'b'
tRp813
(I1
(tg8
I00
S'\xe2\x9dye\xfd\x85\xf0?'
tbsg464
g4
(g5
(I0
tS'b'
tRp814
(I1
(tg8
I00
S'\xf5\xd6.j\x1c\x88\xe9?'
tbsg347
g4
(g5
(I0
tS'b'
tRp815
(I1
(tg8
I00
S"\xae'<\xab)\xe6\xe6?"
tbsg467
g4
(g5
(I0
tS'b'
tRp816
(I1
(tg8
I00
S'\x86\x9c\x15?s\xd6\xda?'
tbsg470
g4
(g5
(I0
tS'b'
tRp817
(I1
(tg8
I00
S'\xaf\xc0\xf3\x1d\x0bE\xe8?'
tbsg473
g4
(g5
(I0
tS'b'
tRp818
(I1
(tg8
I00
S'\xdc\xeboD\x87\xde\xeb?'
tbsg476
g4
(g5
(I0
tS'b'
tRp819
(I1
(tg8
I00
S'*:\x1c\xa6h\x96\xea?'
tbsg27
g4
(g5
(I0
tS'b'
tRp820
(I1
(tg8
I00
S' h\xd8\x9f\xa7\xa8\xe0?'
tbsg482
g4
(g5
(I0
tS'b'
tRp821
(I1
(tg8
I00
S'E\xf5\xf0H\xdd#\xf1?'
tbsg485
g4
(g5
(I0
tS'b'
tRp822
(I1
(tg8
I00
S'gf>El\xe8\xf0?'
tbsg488
g4
(g5
(I0
tS'b'
tRp823
(I1
(tg8
I00
S'\x84\xddTg\x06\x7f\xe8?'
tbsS'v_C(trial_PE)[UU]_subj.18'
p824
g4
(g5
(I0
tS'b'
tRp825
(I1
(tg8
I00
S'&\xd3\x9e\xf30v\xf5?'
tbsS'v_C(trial_PE)[UU]_subj.19'
p826
g4
(g5
(I0
tS'b'
tRp827
(I1
(tg8
I00
S'"\xbf_\xb2\x97\x02\xee?'
tbsS't_C(trial_PE)[UU]_subj.0'
p828
g4
(g5
(I0
tS'b'
tRp829
(I1
(tg8
I00
S'0\x1b\xaafP\x13\xe2?'
tbsS'v_C(trial_PE)[UU]_subj.10'
p830
g4
(g5
(I0
tS'b'
tRp831
(I1
(tg8
I00
S'9\xce}\xb1\x92\xfd\xe5?'
tbsS'v_C(trial_PE)[UU]_subj.11'
p832
g4
(g5
(I0
tS'b'
tRp833
(I1
(tg8
I00
S'\xca\x9c\xd1rQ!\xe0?'
tbsS'v_C(trial_PE)[UU]_subj.12'
p834
g4
(g5
(I0
tS'b'
tRp835
(I1
(tg8
I00
S'\xe3qW&\xcd\x06\xe8?'
tbsS'v_C(trial_PE)[UU]_subj.13'
p836
g4
(g5
(I0
tS'b'
tRp837
(I1
(tg8
I00
S'\x80R\xaa\xa7\x8b\x9f\xed?'
tbsS'v_C(trial_PE)[UU]_subj.14'
p838
g4
(g5
(I0
tS'b'
tRp839
(I1
(tg8
I00
S'0\xe9\xd3\x90l,\xec?'
tbsS'v_C(trial_PE)[UU]_subj.15'
p840
g4
(g5
(I0
tS'b'
tRp841
(I1
(tg8
I00
S'V\xa5\x80i\x80~\xe4?'
tbsS'v_C(trial_PE)[UU]_subj.16'
p842
g4
(g5
(I0
tS'b'
tRp843
(I1
(tg8
I00
S'\xde\xd7Q\xd1iq\xe5?'
tbsS'v_C(trial_PE)[UU]_subj.17'
p844
g4
(g5
(I0
tS'b'
tRp845
(I1
(tg8
I00
S'\xac\xe39\xddy\xfa\xf0?'
tbsS't_C(trial_PE)[PU]_subj.7'
p846
g4
(g5
(I0
tS'b'
tRp847
(I1
(tg8
I00
S'\xff5~\x9e\xff\x18\xd9?'
tbsS't_C(trial_PE)[PU]_subj.6'
p848
g4
(g5
(I0
tS'b'
tRp849
(I1
(tg8
I00
S'\xf8\xa8\xcb4\xff)\xdf?'
tbsS't_C(trial_PE)[PU]_subj.5'
p850
g4
(g5
(I0
tS'b'
tRp851
(I1
(tg8
I00
S'\xbdM\x8f\x7f0\xed\xda?'
tbsS't_C(trial_PE)[PU]_subj.4'
p852
g4
(g5
(I0
tS'b'
tRp853
(I1
(tg8
I00
S'\x16n\x19\t\x15\x01\xd9?'
tbsS't_C(trial_PE)[PU]_subj.3'
p854
g4
(g5
(I0
tS'b'
tRp855
(I1
(tg8
I00
S':\xd5\xadd\xe5F\xde?'
tbsS't_C(trial_PE)[PU]_subj.2'
p856
g4
(g5
(I0
tS'b'
tRp857
(I1
(tg8
I00
S'#%Qjs\xb5\xda?'
tbsS't_C(trial_PE)[PU]_subj.1'
p858
g4
(g5
(I0
tS'b'
tRp859
(I1
(tg8
I00
S'8\xcap\x80uv\xd8?'
tbsS'v_C(trial_PE)[UP]_subj.2'
p860
g4
(g5
(I0
tS'b'
tRp861
(I1
(tg8
I00
S'\xbd\x0c\x8f\xcbn\xb3\xe7?'
tbsg210
g4
(g5
(I0
tS'b'
tRp862
(I1
(tg8
I00
S'\x06\xf1\xaf\xd7\xfe\xdc\xd9?'
tbsS't_C(trial_PE)[PU]_subj.8'
p863
g4
(g5
(I0
tS'b'
tRp864
(I1
(tg8
I00
S'\x86Y\x83Zl\xd5\xde?'
tbsS'v_C(trial_PE)[PP]_subj.8'
p865
g4
(g5
(I0
tS'b'
tRp866
(I1
(tg8
I00
S'\xab\xd8\x1a!\xac\x0e\xe9?'
tbsS'v_C(trial_PE)[PU]_subj.10'
p867
g4
(g5
(I0
tS'b'
tRp868
(I1
(tg8
I00
S'\x8aG\xda\x1b\x97)\xe7?'
tbsg201
g4
(g5
(I0
tS'b'
tRp869
(I1
(tg8
I00
S'K[@\xa8\x95\r\xd7?'
tbsg204
g4
(g5
(I0
tS'b'
tRp870
(I1
(tg8
I00
S'7\x05z\xae\xf9\x8c\xd8?'
tbsg207
g4
(g5
(I0
tS'b'
tRp871
(I1
(tg8
I00
S'\x7fO\xec\xa7\xa4/\xe0?'
tbsS'v_C(trial_PE)[PP]_subj.7'
p872
g4
(g5
(I0
tS'b'
tRp873
(I1
(tg8
I00
S'+\xef\xb2i\x84y\xe3?'
tbsS'v_C(trial_PE)[PP]_subj.0'
p874
g4
(g5
(I0
tS'b'
tRp875
(I1
(tg8
I00
S'\xfd2\xce\xe4*\x86\xe1?'
tbsS'v_C(trial_PE)[PP]_subj.1'
p876
g4
(g5
(I0
tS'b'
tRp877
(I1
(tg8
I00
S'\x00dU|\x0c\x8f\xea?'
tbsS'v_C(trial_PE)[PP]_subj.2'
p878
g4
(g5
(I0
tS'b'
tRp879
(I1
(tg8
I00
S'\xda\x90\xcft\xff6\xe0?'
tbsS'v_C(trial_PE)[PP]_subj.3'
p880
g4
(g5
(I0
tS'b'
tRp881
(I1
(tg8
I00
S'"\xe5m\xeb\x8dy\xeb?'
tbsg33
g4
(g5
(I0
tS'b'
tRp882
(I1
(tg8
I00
S'(a\xff\x10\x9e\x84\xde?'
tbsS't_C(trial_PE)[PU]_subj.31'
p883
g4
(g5
(I0
tS'b'
tRp884
(I1
(tg8
I00
S'\xce\xf0\xdb0G\xbb\xd2?'
tbsS'v_C(trial_PE)[PP]_subj.31'
p885
g4
(g5
(I0
tS'b'
tRp886
(I1
(tg8
I00
S'\x93Q\xb3oq\x00\xf0?'
tbsS'v_C(trial_PE)[PP]_subj.9'
p887
g4
(g5
(I0
tS'b'
tRp888
(I1
(tg8
I00
S'\xa4l\xa1\x87Vr\xf0?'
tbsg225
g4
(g5
(I0
tS'b'
tRp889
(I1
(tg8
I00
S'j\xa3\xfb\x0b\xa7)\xd7?'
tbsS't_C(trial_PE)[PU]_subj.30'
p890
g4
(g5
(I0
tS'b'
tRp891
(I1
(tg8
I00
S'\xcb\x18\xa7\x87Z\xfc\xd7?'
tbsg2
g4
(g5
(I0
tS'b'
tRp892
(I1
(tg8
I00
S'\xc4\xfa\xa1\xeeQ\xba\xd9?'
tbsS't_C(trial_PE)[PU]_subj.28'
p893
g4
(g5
(I0
tS'b'
tRp894
(I1
(tg8
I00
S'\xed\xc1A\xf7\x82)\xd6?'
tbsS't_C(trial_PE)[PU]_subj.29'
p895
g4
(g5
(I0
tS'b'
tRp896
(I1
(tg8
I00
S'\x93a\xf1\xce\xa1;\xd0?'
tbsS't_C(trial_PE)[PU]_subj.26'
p897
g4
(g5
(I0
tS'b'
tRp898
(I1
(tg8
I00
S'Q]&\xad\x82\x1a\xd5?'
tbsS't_C(trial_PE)[PU]_subj.27'
p899
g4
(g5
(I0
tS'b'
tRp900
(I1
(tg8
I00
S'%\xca]6\xd45\xd5?'
tbsS't_C(trial_PE)[PU]_subj.24'
p901
g4
(g5
(I0
tS'b'
tRp902
(I1
(tg8
I00
S'\xc24Pp\xbb\xcf\xd4?'
tbsS't_C(trial_PE)[PU]_subj.25'
p903
g4
(g5
(I0
tS'b'
tRp904
(I1
(tg8
I00
S'\xd2\x93U/kR\xcd?'
tbsS't_C(trial_PE)[PU]_subj.22'
p905
g4
(g5
(I0
tS'b'
tRp906
(I1
(tg8
I00
S'C\xd6\x9b\xde\x90z\xd9?'
tbsS't_C(trial_PE)[PU]_subj.23'
p907
g4
(g5
(I0
tS'b'
tRp908
(I1
(tg8
I00
S"\xf4\x16\x9d'\xb82\xcf?"
tbsS'v_C(trial_PE)[UU]_std'
p909
g4
(g5
(I0
tS'b'
tRp910
(I1
(tg8
I00
S'\xac\x91\xad\xbf\xd8\xda\xcc?'
tbsS't_C(trial_PE)[PU]_subj.21'
p911
g4
(g5
(I0
tS'b'
tRp912
(I1
(tg8
I00
S'0\xc0P(\x8e,\xd1?'
tbsS'v_C(trial_PE)[UP]_subj.0'
p913
g4
(g5
(I0
tS'b'
tRp914
(I1
(tg8
I00
S'Z\x82d\xae\xa9&\xe8?'
tbsS't_C(trial_PE)[PP]_subj.11'
p915
g4
(g5
(I0
tS'b'
tRp916
(I1
(tg8
I00
S'\xa2\x87e](\xf0\xda?'
tbsS't_C(trial_PE)[PP]_subj.29'
p917
g4
(g5
(I0
tS'b'
tRp918
(I1
(tg8
I00
S'\xebr\xef\x11 \xb5\xd1?'
tbsS'v_C(trial_PE)[PP]_subj.32'
p919
g4
(g5
(I0
tS'b'
tRp920
(I1
(tg8
I00
S'\xaa\x9c\xeaB\x8b\xc2\xe5?'
tbsg231
g4
(g5
(I0
tS'b'
tRp921
(I1
(tg8
I00
S'kv\x19wT\xb7\xf4?'
tbsg234
g4
(g5
(I0
tS'b'
tRp922
(I1
(tg8
I00
S'\xc2\x8a\xa2\xfa\x8a\xec\xe3?'
tbsg237
g4
(g5
(I0
tS'b'
tRp923
(I1
(tg8
I00
S'\x05\xc4E\x8e\x8e\xce\xea?'
tbsg240
g4
(g5
(I0
tS'b'
tRp924
(I1
(tg8
I00
S'\xca>T\x8a8t\xe7?'
tbsg243
g4
(g5
(I0
tS'b'
tRp925
(I1
(tg8
I00
S'\x1bmh\x13,\xdc\xec?'
tbsg246
g4
(g5
(I0
tS'b'
tRp926
(I1
(tg8
I00
S'\xed\x9e\x8eW\xef\x8c\xf1?'
tbsg249
g4
(g5
(I0
tS'b'
tRp927
(I1
(tg8
I00
S'\x00ubI2\xab\xe0?'
tbsS'v_C(trial_PE)[UP]'
p928
g4
(g5
(I0
tS'b'
tRp929
(I1
(tg8
I00
S'\xc2AC\xbd\x03L\xe9?'
tbsg255
g4
(g5
(I0
tS'b'
tRp930
(I1
(tg8
I00
S'5\x99\xac\xfaR\x97\xe3?'
tbsg258
g4
(g5
(I0
tS'b'
tRp931
(I1
(tg8
I00
S'\x11\xb6\xbb\xae\xe5\xd5\xf0?'
tbsS't_C(trial_PE)[UP]_subj.5'
p932
g4
(g5
(I0
tS'b'
tRp933
(I1
(tg8
I00
S'\xcc\x9d[\xf9\x9c\x8a\xde?'
tbsS't_C(trial_PE)[UP]_subj.4'
p934
g4
(g5
(I0
tS'b'
tRp935
(I1
(tg8
I00
S'\xbc\xe6\xb6K\r\xed\xda?'
tbsS't_C(trial_PE)[UP]_subj.7'
p936
g4
(g5
(I0
tS'b'
tRp937
(I1
(tg8
I00
S'0>\xb6\x9f}\x0f\xe8?'
tbsS't_C(trial_PE)[UP]_subj.6'
p938
g4
(g5
(I0
tS'b'
tRp939
(I1
(tg8
I00
S'\x83Tx^U\xad\xe1?'
tbsS't_C(trial_PE)[UP]_subj.1'
p940
g4
(g5
(I0
tS'b'
tRp941
(I1
(tg8
I00
S'\xfc\xef\xd2\xbb[\\\xdd?'
tbsS't_C(trial_PE)[UP]_subj.0'
p942
g4
(g5
(I0
tS'b'
tRp943
(I1
(tg8
I00
S'\xe4\xe1\xdb~5S\xdd?'
tbsS't_C(trial_PE)[UP]_subj.3'
p944
g4
(g5
(I0
tS'b'
tRp945
(I1
(tg8
I00
S',\xc1e\xc9\x1d\xff\xe1?'
tbsS't_C(trial_PE)[UP]_subj.2'
p946
g4
(g5
(I0
tS'b'
tRp947
(I1
(tg8
I00
S'6"\x98\x0eYu\xe3?'
tbsS't_C(trial_PE)[PU]_subj.0'
p948
g4
(g5
(I0
tS'b'
tRp949
(I1
(tg8
I00
S'+\xb4S\xc3\xac\x81\xe0?'
tbsS't_C(trial_PE)[UP]_subj.9'
p950
g4
(g5
(I0
tS'b'
tRp951
(I1
(tg8
I00
S';\xa4E\x96\t\xc9\xd6?'
tbsS't_C(trial_PE)[UP]_subj.8'
p952
g4
(g5
(I0
tS'b'
tRp953
(I1
(tg8
I00
S'\n\x7f\xe2\xf5"\x1d\xde?'
tbsg252
g4
(g5
(I0
tS'b'
tRp954
(I1
(tg8
I00
S'\x1d7\xa8\x07}\x91\xe9?'
tbsg264
g4
(g5
(I0
tS'b'
tRp955
(I1
(tg8
I00
S'\xbb\x1d\x11\x15\x0f2\xde?'
tbsg267
g4
(g5
(I0
tS'b'
tRp956
(I1
(tg8
I00
S'FM\xa5P5\xc4\xe0?'
tbsg270
g4
(g5
(I0
tS'b'
tRp957
(I1
(tg8
I00
S'\n\xc8\xedH\x80+\xd0?'
tbsg273
g4
(g5
(I0
tS'b'
tRp958
(I1
(tg8
I00
S'\xa8G8\xc5\x80?\xe2?'
tbsg276
g4
(g5
(I0
tS'b'
tRp959
(I1
(tg8
I00
S'v\xaf\x96U\x9b\x8e\xd9?'
tbsg279
g4
(g5
(I0
tS'b'
tRp960
(I1
(tg8
I00
S'\n"u\xe7\xf1r\xdb?'
tbsg282
g4
(g5
(I0
tS'b'
tRp961
(I1
(tg8
I00
S'\x938\xd8T\xff\xe0\xd9?'
tbsg285
g4
(g5
(I0
tS'b'
tRp962
(I1
(tg8
I00
S'{M\x90\xcf\x9d\x05\xe2?'
tbsS't_C(trial_PE)[UU]_subj.23'
p963
g4
(g5
(I0
tS'b'
tRp964
(I1
(tg8
I00
S'\t\x19\xb5\x8f\x91\x0b\xc8?'
tbsS't_C(trial_PE)[UU]_subj.22'
p965
g4
(g5
(I0
tS'b'
tRp966
(I1
(tg8
I00
S'\xc8\xb1h\x01ld\xd3?'
tbsg288
g4
(g5
(I0
tS'b'
tRp967
(I1
(tg8
I00
S'\xab\xa6\xc2\x81\xcd\xd6\xda?'
tbsS't_C(trial_PE)[UU]_subj.20'
p968
g4
(g5
(I0
tS'b'
tRp969
(I1
(tg8
I00
S'`\xf5\xa8=\x94&\xd8?'
tbsS't_C(trial_PE)[UU]_subj.27'
p970
g4
(g5
(I0
tS'b'
tRp971
(I1
(tg8
I00
S'Z1\xec\xf8\xc2\xb6\xdd?'
tbsg291
g4
(g5
(I0
tS'b'
tRp972
(I1
(tg8
I00
S'\xfb\xfc\xfa\x1d\xc7\xd2\xd6?'
tbsS't_C(trial_PE)[UU]_subj.25'
p973
g4
(g5
(I0
tS'b'
tRp974
(I1
(tg8
I00
S'`W\xa3*#\xa2\xd1?'
tbsS't_C(trial_PE)[UU]_subj.24'
p975
g4
(g5
(I0
tS'b'
tRp976
(I1
(tg8
I00
S'\x8c\xb7)\xf9O\x8f\xd2?'
tbsS'a_subj.6'
p977
g4
(g5
(I0
tS'b'
tRp978
(I1
(tg8
I00
S'\x99\x10\xf3`ec\x01@'
tbsS'a_subj.7'
p979
g4
(g5
(I0
tS'b'
tRp980
(I1
(tg8
I00
S'\xe0\x14c\xd7p\xb6\x04@'
tbsS'a_subj.4'
p981
g4
(g5
(I0
tS'b'
tRp982
(I1
(tg8
I00
S'\xcd\nL\xdf\xb8s\xfb?'
tbsS'a_subj.5'
p983
g4
(g5
(I0
tS'b'
tRp984
(I1
(tg8
I00
S'~~A>\x8c\xe5\xfa?'
tbsS'a_subj.2'
p985
g4
(g5
(I0
tS'b'
tRp986
(I1
(tg8
I00
S'\xc5\xa0z\xadj}\x02@'
tbsS'a_subj.3'
p987
g4
(g5
(I0
tS'b'
tRp988
(I1
(tg8
I00
S'<\x91"\xad\xd8\xcf\xff?'
tbsS'a_subj.0'
p989
g4
(g5
(I0
tS'b'
tRp990
(I1
(tg8
I00
S'\xae4=u\x8fW\x02@'
tbsS'a_subj.1'
p991
g4
(g5
(I0
tS'b'
tRp992
(I1
(tg8
I00
S'<\xde-\x84s\x12\xfb?'
tbsg126
g4
(g5
(I0
tS'b'
tRp993
(I1
(tg8
I00
S'\xdd*\xe7\x8d\xf3\x9e\xde?'
tbsS'a_subj.8'
p994
g4
(g5
(I0
tS'b'
tRp995
(I1
(tg8
I00
S'U\xeam\x9d\xf8D\xfc?'
tbsS'a_subj.9'
p996
g4
(g5
(I0
tS'b'
tRp997
(I1
(tg8
I00
S"X\xa5'\x94NC\xf9?"
tbsS'v_C(trial_PE)[PP]_subj.23'
p998
g4
(g5
(I0
tS'b'
tRp999
(I1
(tg8
I00
S'H\xf1\x80\x98 \x05\xef?'
tbsS'v_C(trial_PE)[PP]_subj.22'
p1000
g4
(g5
(I0
tS'b'
tRp1001
(I1
(tg8
I00
S"\xca\x19\x1b#\x1f'\xeb?"
tbsg294
g4
(g5
(I0
tS'b'
tRp1002
(I1
(tg8
I00
S' \x18\xd28\x9d\xac\xbe?'
tbsS'v_C(trial_PE)[PP]_subj.20'
p1003
g4
(g5
(I0
tS'b'
tRp1004
(I1
(tg8
I00
S'\xf3JX\xa7\x0fU\xf7?'
tbsS'v_C(trial_PE)[PP]_subj.27'
p1005
g4
(g5
(I0
tS'b'
tRp1006
(I1
(tg8
I00
S' \xff\x81]\x1e\xbb\xe5?'
tbsS'v_C(trial_PE)[PP]_subj.26'
p1007
g4
(g5
(I0
tS'b'
tRp1008
(I1
(tg8
I00
S'\xc9\xc7_\xa9\xc9\xbf\xf0?'
tbsS'v_C(trial_PE)[PP]_subj.25'
p1009
g4
(g5
(I0
tS'b'
tRp1010
(I1
(tg8
I00
S'\xc6\xd8\x9c\xc9\x13B\xf1?'
tbsS'v_C(trial_PE)[PP]_subj.24'
p1011
g4
(g5
(I0
tS'b'
tRp1012
(I1
(tg8
I00
S'\xfa)U\n\xdb\xe0\xd9?'
tbsS'v_C(trial_PE)[PP]_subj.29'
p1013
g4
(g5
(I0
tS'b'
tRp1014
(I1
(tg8
I00
S'\x1e\xd8\xe4\xcc\xd04\xeb?'
tbsS'v_C(trial_PE)[PP]_subj.28'
p1015
g4
(g5
(I0
tS'b'
tRp1016
(I1
(tg8
I00
S'\xa59-\xd1\x1c`\xee?'
tbsS'a'
g4
(g5
(I0
tS'b'
tRp1017
(I1
(tg8
I00
S'\xa0\xcc\x9c\x83\xba\x03\x00@'
tbsg353
g4
(g5
(I0
tS'b'
tRp1018
(I1
(tg8
I00
S'\x19\xb8\xf8\xf7\xa0g\xdc?'
tbsS'a_subj.11'
p1019
g4
(g5
(I0
tS'b'
tRp1020
(I1
(tg8
I00
S'>g\x05\xd95\xda\x03@'
tbsg428
g4
(g5
(I0
tS'b'
tRp1021
(I1
(tg8
I00
S'Ax\x1da\xe3\x07\xe2?'
tbsg129
g4
(g5
(I0
tS'b'
tRp1022
(I1
(tg8
I00
S'\n\x07\x85\xc6\x02S\xdb?'
tbsg299
g4
(g5
(I0
tS'b'
tRp1023
(I1
(tg8
I00
S'\xf0\xf8\xf0\xe4\xaa\xa4\xde?'
tbsg45
g4
(g5
(I0
tS'b'
tRp1024
(I1
(tg8
I00
S'\x897\x14\x8f\xf6\x1b\xec?'
tbsS't_C(trial_PE)[PU]_subj.32'
p1025
g4
(g5
(I0
tS'b'
tRp1026
(I1
(tg8
I00
S'xkO\x1c\r\xe7\xd5?'
tbsS't_C(trial_PE)[UU]_subj.32'
p1027
g4
(g5
(I0
tS'b'
tRp1028
(I1
(tg8
I00
S'\xec\xca`D\xe8\x8d\xd9?'
tbsg60
g4
(g5
(I0
tS'b'
tRp1029
(I1
(tg8
I00
S'l\xe3\xd7J\x87H\xe8?'
tbsg302
g4
(g5
(I0
tS'b'
tRp1030
(I1
(tg8
I00
S'b\xec\xe5\xef0\xbb\xbd?'
tbsS't_C(trial_PE)[UU]_std'
p1031
g4
(g5
(I0
tS'b'
tRp1032
(I1
(tg8
I00
S'\xd4{q\xbf3\xea\xc1?'
tbsS't_C(trial_PE)[UU]_subj.29'
p1033
g4
(g5
(I0
tS'b'
tRp1034
(I1
(tg8
I00
S'2\x02j\xa9_\t\xcb?'
tbsS'v_C(trial_PE)[T.UU]:pupil_response_1'
p1035
g4
(g5
(I0
tS'b'
tRp1036
(I1
(tg8
I00
S'\xaf\xd9\x8a\xb7L\x8b\xa0?'
tbsS't_C(trial_PE)[UU]_subj.30'
p1037
g4
(g5
(I0
tS'b'
tRp1038
(I1
(tg8
I00
S'\x89\xafE\xde\xf7\xa9\xd7?'
tbsS't_C(trial_PE)[UU]_subj.31'
p1039
g4
(g5
(I0
tS'b'
tRp1040
(I1
(tg8
I00
S'V\xdfk\x1eR+\xd0?'
tbsS'v_C(trial_PE)[PU]_subj.11'
p1041
g4
(g5
(I0
tS'b'
tRp1042
(I1
(tg8
I00
S'8\x92j.\xd0\xad\xe6?'
tbssS'step_methods'
p1043
(dp1044
S'SliceStep_a_subj.17'
p1045
(dp1046
S'adaptive_scale_factor'
p1047
F1
sS'proposal_distribution'
p1048
S'Normal'
p1049
sS'proposal_sd'
p1050
cnumpy.core.multiarray
scalar
p1051
(g8
S'\xc0\x8e\xad8@A\x00@'
tRp1052
sS'accepted'
p1053
F0
sS'check_before_accepting'
p1054
I01
sS'rejected'
p1055
F0
ssS'SliceStep_t_C(trial_PE)[PU]_subj.13'
p1056
(dp1057
g1047
F1
sg1048
g1049
sg1050
g1051
(g8
S'\\`\xe2\xf1\x9a\xaf\xdd?'
tRp1058
sg1053
F0
sg1054
I01
sg1055
F0
ssS'SliceStep_v_C(trial_PE)[UU]_subj.31'
p1059
(dp1060
g1047
F1
sg1048
g1049
sg1050
g1051
(g8
S'\x84\xfe\xb8\x05\xbe\xb6\xfd?'
tRp1061
sg1053
F0
sg1054
I01
sg1055
F0
ssS'SliceStep_v_C(trial_PE)[UU]_subj.30'
p1062
(dp1063
g1047
F1
sg1048
g1049
sg1050
g1051
(g8
S'\x80w\x11\xc6\xed2\xfa?'
tRp1064
sg1053
F0
sg1054
I01
sg1055
F0
ssS'SliceStep_v_C(trial_PE)[UP]_subj.3'
p1065
(dp1066
g1047
F1
sg1048
g1049
sg1050
g1051
(g8
S'\x88\xa5Y\x0c\xea\x9e\xfe?'
tRp1067
sg1053
F0
sg1054
I01
sg1055
F0
ssS'SliceStep_v_C(trial_PE)[PP]_subj.15'
p1068
(dp1069
g1047
F1
sg1048
g1049
sg1050
g1051
(g8
S'l\x84\xd6\r\x8d3\xfb?'
tRp1070
sg1053
F0
sg1054
I01
sg1055
F0
ssS'kNormalNormal_v_C(trial_PE)[PU]'
p1071
(dp1072
g1047
F1
sg1048
g1049
sg1050
g1051
(g8
S'\x12\x94\xbc\xb1b\xb8\xfd?'
tRp1073
sg1053
F0
sg1054
I01
sg1055
F0
ssS'SliceStep_t_C(trial_PE)[UU]_subj.10'
p1074
(dp1075
g1047
F1
sg1048
g1049
sg1050
g1051
(g8
S'3\x0b\xb4\xfb\x01\xf2\xe1?'
tRp1076
sg1053
F0
sg1054
I01
sg1055
F0
ssS'SliceStep_a_subj.18'
p1077
(dp1078
g1047
F1
sg1048
g1049
sg1050
g1051
(g8
S'R!t\xb9\t\xfc\xfa?'
tRp1079
sg1053
F0
sg1054
I01
sg1055
F0
ssS'SliceStep_t_C(trial_PE)[UU]'
p1080
(dp1081
g1047
F1
sg1048
g1049
sg1050
g1051
(g8
S'\xd5=\xf0]\xe3\x1a\xdc?'
tRp1082
sg1053
F0
sg1054
I01
sg1055
F0
ssS'SliceStep_a_subj.27'
p1083
(dp1084
g1047
F1
sg1048
g1049
sg1050
g1051
(g8
S'\x1fpe\\\xe9\x9a\x05@'
tRp1085
sg1053
F0
sg1054
I01
sg1055
F0
ssS'SliceStep_v_C(trial_PE)[UP]_subj.1'
p1086
(dp1087
g1047
F1
sg1048
g1049
sg1050
g1051
(g8
S'\x15\xf8\x9fN3\x12\xfe?'
tRp1088
sg1053
F0
sg1054
I01
sg1055
F0
ssS'SliceStep_t_C(trial_PE)[PU]_subj.16'
p1089
(dp1090
g1047
F1
sg1048
g1049
sg1050
g1051
(g8
S'\x1d\x99\x93\xc9KO\xdb?'
tRp1091
sg1053
F0
sg1054
I01
sg1055
F0
ssS'SliceStep_a_subj.9'
p1092
(dp1093
g1047
F1
sg1048
g1049
sg1050
g1051
(g8
S'\xef\xc3\x03\x9f\x0b\x11\xf9?'
tRp1094
sg1053
F0
sg1054
I01
sg1055
F0
ssS'SliceStep_a_subj.8'
p1095
(dp1096
g1047
F1
sg1048
g1049
sg1050
g1051
(g8
S'O\xb6\\)\x1fK\xfe?'
tRp1097
sg1053
F0
sg1054
I01
sg1055
F0
ssS'SliceStep_a_subj.7'
p1098
(dp1099
g1047
F1
sg1048
g1049
sg1050
g1051
(g8
S'\x9c\x1b\x02\x0c\x91Q\x05@'
tRp1100
sg1053
F0
sg1054
I01
sg1055
F0
ssS'SliceStep_v_C(trial_PE)[UP]_subj.6'
p1101
(dp1102
g1047
F1
sg1048
g1049
sg1050
g1051
(g8
S'\x04\xe5\xc3\x1f\x18\x9b\xfd?'
tRp1103
sg1053
F0
sg1054
I01
sg1055
F0
ssS'SliceStep_a_subj.5'
p1104
(dp1105
g1047
F1
sg1048
g1049
sg1050
g1051
(g8
S'e\r\xde\xad\x9e~\xfd?'
tRp1106
sg1053
F0
sg1054
I01
sg1055
F0
ssS'SliceStep_a_subj.4'
p1107
(dp1108
g1047
F1
sg1048
g1049
sg1050
g1051
(g8
S'\x8b\xf0(aA8\xfc?'
tRp1109
sg1053
F0
sg1054
I01
sg1055
F0
ssS'SliceStep_a_subj.3'
p1110
(dp1111
g1047
F1
sg1048
g1049
sg1050
g1051
(g8
S'\x95\xcb\xfd\xda\xcd\xe1\xfe?'
tRp1112
sg1053
F0
sg1054
I01
sg1055
F0
ssS'SliceStep_a_subj.2'
p1113
(dp1114
g1047
F1
sg1048
g1049
sg1050
g1051
(g8
S'x\xa1H\xe6\xac\x1c\x03@'
tRp1115
sg1053
F0
sg1054
I01
sg1055
F0
ssS'SliceStep_a_subj.1'
p1116
(dp1117
g1047
F1
sg1048
g1049
sg1050
g1051
(g8
S')\xa6\x9e\xbe\x9e\xee\xfc?'
tRp1118
sg1053
F0
sg1054
I01
sg1055
F0
ssS'SliceStep_a_subj.0'
p1119
(dp1120
g1047
F1
sg1048
g1049
sg1050
g1051
(g8
S'p,O\xc6\xaf\xb8\x01@'
tRp1121
sg1053
F0
sg1054
I01
sg1055
F0
ssS'SliceStep_t_C(trial_PE)[PP]_subj.22'
p1122
(dp1123
g1047
F1
sg1048
g1049
sg1050
g1051
(g8
S'\x10\x8f\x88p\xf0\xe2\xda?'
tRp1124
sg1053
F0
sg1054
I01
sg1055
F0
ssS'SliceStep_t_C(trial_PE)[PP]_subj.23'
p1125
(dp1126
g1047
F1
sg1048
g1049
sg1050
g1051
(g8
S'7\xc99(\x14G\xcc?'
tRp1127
sg1053
F0
sg1054
I01
sg1055
F0
ssS'SliceStep_t_C(trial_PE)[PP]_subj.20'
p1128
(dp1129
g1047
F1
sg1048
g1049
sg1050
g1051
(g8
S'\xf0\xcf\x88\xf2\xbe\xdf\xd5?'
tRp1130
sg1053
F0
sg1054
I01
sg1055
F0
ssS'SliceStep_t_C(trial_PE)[PP]_subj.21'
p1131
(dp1132
g1047
F1
sg1048
g1049
sg1050
g1051
(g8
S'\x0c2\xa9\x0b\x16\xc5\xd1?'
tRp1133
sg1053
F0
sg1054
I01
sg1055
F0
ssS'SliceStep_t_C(trial_PE)[PP]_subj.26'
p1134
(dp1135
g1047
F1
sg1048
g1049
sg1050
g1051
(g8
S'\xa0\xeb!o#1\xd3?'
tRp1136
sg1053
F0
sg1054
I01
sg1055
F0
ssS'SliceStep_v_C(trial_PE)[PP]_subj.16'
p1137
(dp1138
g1047
F1
sg1048
g1049
sg1050
g1051
(g8
S'e\xd5I\xda\x0e\x14\xf8?'
tRp1139
sg1053
F0
sg1054
I01
sg1055
F0
ssS'SliceStep_t_C(trial_PE)[PP]_subj.24'
p1140
(dp1141
g1047
F1
sg1048
g1049
sg1050
g1051
(g8
S' \xbb?\x9f\x8b\x88\xd4?'
tRp1142
sg1053
F0
sg1054
I01
sg1055
F0
ssS'SliceStep_t_C(trial_PE)[PP]_subj.25'
p1143
(dp1144
g1047
F1
sg1048
g1049
sg1050
g1051
(g8
S'V\x08\xbaxP\x80\xd9?'
tRp1145
sg1053
F0
sg1054
I01
sg1055
F0
ssS'SliceStep_t_C(trial_PE)[UU]_subj.32'
p1146
(dp1147
g1047
F1
sg1048
g1049
sg1050
g1051
(g8
S'O\x05\xa7O/S\xd9?'
tRp1148
sg1053
F0
sg1054
I01
sg1055
F0
ssS'SliceStep_t_C(trial_PE)[PP]_subj.28'
p1149
(dp1150
g1047
F1
sg1048
g1049
sg1050
g1051
(g8
S'\xc5\xdci\xa1\r\x87\xd2?'
tRp1151
sg1053
F0
sg1054
I01
sg1055
F0
ssS'SliceStep_t_C(trial_PE)[UU]_subj.30'
p1152
(dp1153
g1047
F1
sg1048
g1049
sg1050
g1051
(g8
S'\xf5F\xeb\x11\xee\xf0\xdb?'
tRp1154
sg1053
F0
sg1054
I01
sg1055
F0
ssS'SliceStep_t_C(trial_PE)[PP]_subj.9'
p1155
(dp1156
g1047
F1
sg1048
g1049
sg1050
g1051
(g8
S'B\x04*\x85~E\xdb?'
tRp1157
sg1053
F0
sg1054
I01
sg1055
F0
ssS'SliceStep_v_C(trial_PE)[UP]_subj.32'
p1158
(dp1159
g1047
F1
sg1048
g1049
sg1050
g1051
(g8
S'\x04.3\x96\x7f_\xfd?'
tRp1160
sg1053
F0
sg1054
I01
sg1055
F0
ssS'SliceStep_t_C(trial_PE)[UP]_subj.27'
p1161
(dp1162
g1047
F1
sg1048
g1049
sg1050
g1051
(g8
S'K\xe2\xe0\x8dh#\xdc?'
tRp1163
sg1053
F0
sg1054
I01
sg1055
F0
ssS'SliceStep_v_C(trial_PE)[UP]_subj.30'
p1164
(dp1165
g1047
F1
sg1048
g1049
sg1050
g1051
(g8
S'\x9cK\xe0\xc4\x81\x9d\xf8?'
tRp1166
sg1053
F0
sg1054
I01
sg1055
F0
ssS'SliceStep_v_C(trial_PE)[UP]_subj.31'
p1167
(dp1168
g1047
F1
sg1048
g1049
sg1050
g1051
(g8
S'\xc8q\x99\x12Uk\xfd?'
tRp1169
sg1053
F0
sg1054
I01
sg1055
F0
ssS'SliceStep_v_C(trial_PE)[UP]_subj.8'
p1170
(dp1171
g1047
F1
sg1048
g1049
sg1050
g1051
(g8
S'\xa9FQ\xff\x9ds\xfe?'
tRp1172
sg1053
F0
sg1054
I01
sg1055
F0
ssS'SliceStep_t_C(trial_PE)[UP]_subj.13'
p1173
(dp1174
g1047
F1
sg1048
g1049
sg1050
g1051
(g8
S'\x8a\x82\xb4\xd0`\x11\xd9?'
tRp1175
sg1053
F0
sg1054
I01
sg1055
F0
ssS'SliceStep_t_C(trial_PE)[UU]_subj.28'
p1176
(dp1177
g1047
F1
sg1048
g1049
sg1050
g1051
(g8
S"s'\xa5\xd4\xaf\x84\xd2?"
tRp1178
sg1053
F0
sg1054
I01
sg1055
F0
ssS'SliceStep_v_C(trial_PE)[UU]_subj.28'
p1179
(dp1180
g1047
F1
sg1048
g1049
sg1050
g1051
(g8
S'\x92{eE\\\xef\xfc?'
tRp1181
sg1053
F0
sg1054
I01
sg1055
F0
ssS'SliceStep_t_C(trial_PE)[PU]_subj.1'
p1182
(dp1183
g1047
F1
sg1048
g1049
sg1050
g1051
(g8
S'\x018\xc2.\xbc}\xdb?'
tRp1184
sg1053
F0
sg1054
I01
sg1055
F0
ssS'SliceStep_v_C(trial_PE)[UU]_subj.22'
p1185
(dp1186
g1047
F1
sg1048
g1049
sg1050
g1051
(g8
S'$\xf16\xb8\xd9\xfd\xfd?'
tRp1187
sg1053
F0
sg1054
I01
sg1055
F0
ssS'SliceStep_v_C(trial_PE)[UU]_subj.23'
p1188
(dp1189
g1047
F1
sg1048
g1049
sg1050
g1051
(g8
S'\xca9\xb0:C\xfd\xfc?'
tRp1190
sg1053
F0
sg1054
I01
sg1055
F0
ssS'SliceStep_v_C(trial_PE)[UU]_subj.20'
p1191
(dp1192
g1047
F1
sg1048
g1049
sg1050
g1051
(g8
S'(\x9b\xa1HM\x12\x00@'
tRp1193
sg1053
F0
sg1054
I01
sg1055
F0
ssS'SliceStep_v_C(trial_PE)[UU]_subj.21'
p1194
(dp1195
g1047
F1
sg1048
g1049
sg1050
g1051
(g8
S'\x1cn19\xfe\x8d\xfe?'
tRp1196
sg1053
F0
sg1054
I01
sg1055
F0
ssS'SliceStep_v_C(trial_PE)[UU]_subj.26'
p1197
(dp1198
g1047
F1
sg1048
g1049
sg1050
g1051
(g8
S'k\x07\xeb\xbc\x8b#\xfd?'
tRp1199
sg1053
F0
sg1054
I01
sg1055
F0
ssS'SliceStep_v_C(trial_PE)[UU]_subj.27'
p1200
(dp1201
g1047
F1
sg1048
g1049
sg1050
g1051
(g8
S'A\xd1\x89\x9dW\xf2\xfb?'
tRp1202
sg1053
F0
sg1054
I01
sg1055
F0
ssS'SliceStep_v_C(trial_PE)[UU]_subj.24'
p1203
(dp1204
g1047
F1
sg1048
g1049
sg1050
g1051
(g8
S'\xe0\xdf\xf0\xc4\xef<\xfb?'
tRp1205
sg1053
F0
sg1054
I01
sg1055
F0
ssS'SliceStep_v_C(trial_PE)[UU]_subj.25'
p1206
(dp1207
g1047
F1
sg1048
g1049
sg1050
g1051
(g8
S'\x00\x97\x7fri\x86\xfc?'
tRp1208
sg1053
F0
sg1054
I01
sg1055
F0
ssS'SliceStep_t_C(trial_PE)[PU]_subj.32'
p1209
(dp1210
g1047
F1
sg1048
g1049
sg1050
g1051
(g8
S'\xe6\x07\xffUY\x98\xd5?'
tRp1211
sg1053
F0
sg1054
I01
sg1055
F0
ssS'SliceStep_v_C(trial_PE)[UP]_subj.18'
p1212
(dp1213
g1047
F1
sg1048
g1049
sg1050
g1051
(g8
S'\xa4W\xd1\xb7\xfce\xff?'
tRp1214
sg1053
F0
sg1054
I01
sg1055
F0
ssS'SliceStep_t_C(trial_PE)[PU]_subj.30'
p1215
(dp1216
g1047
F1
sg1048
g1049
sg1050
g1051
(g8
S'\xc31\x91Y\xaa4\xdb?'
tRp1217
sg1053
F0
sg1054
I01
sg1055
F0
ssS'SliceStep_t_C(trial_PE)[PP]_subj.8'
p1218
(dp1219
g1047
F1
sg1048
g1049
sg1050
g1051
(g8
S'>\xd3\xa8w\xa2k\xde?'
tRp1220
sg1053
F0
sg1054
I01
sg1055
F0
ssS'SliceStep_v_C(trial_PE)[T.UU]:pupil_response_1'
p1221
(dp1222
g1047
F1
sg1048
g1049
sg1050
g1051
(g8
S'\x18=\xd1\xe8\xa1\x0b\xb3='
tRp1223
sg1053
F0
sg1054
I01
sg1055
F0
ssS'SliceStep_t_C(trial_PE)[PU]_subj.4'
p1224
(dp1225
g1047
F1
sg1048
g1049
sg1050
g1051
(g8
S'\xf1\x7fMY\x8fR\xdb?'
tRp1226
sg1053
F0
sg1054
I01
sg1055
F0
ssS'SliceStep_a_subj.6'
p1227
(dp1228
g1047
F1
sg1048
g1049
sg1050
g1051
(g8
S'\xc0\xae\xe2\xf2\xbcg\x01@'
tRp1229
sg1053
F0
sg1054
I01
sg1055
F0
ssS'SliceStep_t_C(trial_PE)[PP]_subj.3'
p1230
(dp1231
g1047
F1
sg1048
g1049
sg1050
g1051
(g8
S'Y\x1a5\x81Q\x00\xdd?'
tRp1232
sg1053
F0
sg1054
I01
sg1055
F0
ssS'SliceStep_t_C(trial_PE)[PP]_subj.2'
p1233
(dp1234
g1047
F1
sg1048
g1049
sg1050
g1051
(g8
S'9?\x84\xd1v\xc3\xe0?'
tRp1235
sg1053
F0
sg1054
I01
sg1055
F0
ssS'SliceStep_t_C(trial_PE)[PP]_subj.1'
p1236
(dp1237
g1047
F1
sg1048
g1049
sg1050
g1051
(g8
S'\xc6.\xf1\xf3\xa9A\xdd?'
tRp1238
sg1053
F0
sg1054
I01
sg1055
F0
ssS'SliceStep_t_C(trial_PE)[PP]_subj.0'
p1239
(dp1240
g1047
F1
sg1048
g1049
sg1050
g1051
(g8
S']\x05\\\x9d\x81\xbe\xe3?'
tRp1241
sg1053
F0
sg1054
I01
sg1055
F0
ssS'SliceStep_t_C(trial_PE)[PP]_subj.7'
p1242
(dp1243
g1047
F1
sg1048
g1049
sg1050
g1051
(g8
S'\x1e\x1e\xa3^\x82\xd9\xde?'
tRp1244
sg1053
F0
sg1054
I01
sg1055
F0
ssS'SliceStep_t_C(trial_PE)[PP]_subj.6'
p1245
(dp1246
g1047
F1
sg1048
g1049
sg1050
g1051
(g8
S" 'G\x19@S\xdb?"
tRp1247
sg1053
F0
sg1054
I01
sg1055
F0
ssS'SliceStep_t_C(trial_PE)[PP]_subj.5'
p1248
(dp1249
g1047
F1
sg1048
g1049
sg1050
g1051
(g8
S'\xb9\xbe\xd3\x1b\x17&\xd7?'
tRp1250
sg1053
F0
sg1054
I01
sg1055
F0
ssS'SliceStep_t_C(trial_PE)[PP]_subj.4'
p1251
(dp1252
g1047
F1
sg1048
g1049
sg1050
g1051
(g8
S'\x96\xd2_3\xd0\x17\xdc?'
tRp1253
sg1053
F0
sg1054
I01
sg1055
F0
ssS'SliceStep_sv'
p1254
(dp1255
g1047
F1
sg1048
g1049
sg1050
g1051
(g8
S'\xbbZ]#?\x9d\xf4='
tRp1256
sg1053
F0
sg1054
I01
sg1055
F0
ssS'SliceStep_t_C(trial_PE)[UU]_subj.29'
p1257
(dp1258
g1047
F1
sg1048
g1049
sg1050
g1051
(g8
S'P\xc3\xd8n\xc3\x87\xcc?'
tRp1259
sg1053
F0
sg1054
I01
sg1055
F0
ssS'SliceStep_v_C(trial_PE)[PP]_subj.1'
p1260
(dp1261
g1047
F1
sg1048
g1049
sg1050
g1051
(g8
S'\xf2OU\xda#\xdc\xf9?'
tRp1262
sg1053
F0
sg1054
I01
sg1055
F0
ssS'SliceStep_t_C(trial_PE)[UP]_subj.28'
p1263
(dp1264
g1047
F1
sg1048
g1049
sg1050
g1051
(g8
S'\x8c\xa3\xbeN\x02\x1d\xd6?'
tRp1265
sg1053
F0
sg1054
I01
sg1055
F0
ssS'SliceStep_t_C(trial_PE)[UU]_subj.20'
p1266
(dp1267
g1047
F1
sg1048
g1049
sg1050
g1051
(g8
S'\xe1\xccV4\x91o\xd7?'
tRp1268
sg1053
F0
sg1054
I01
sg1055
F0
ssS'SliceStep_t_C(trial_PE)[UU]_subj.21'
p1269
(dp1270
g1047
F1
sg1048
g1049
sg1050
g1051
(g8
S'\xf2/\x08\x98\xe5\xf4\xd0?'
tRp1271
sg1053
F0
sg1054
I01
sg1055
F0
ssS'SliceStep_t_C(trial_PE)[UU]_subj.22'
p1272
(dp1273
g1047
F1
sg1048
g1049
sg1050
g1051
(g8
S'\xb6\xc1U\x1a+\x97\xd4?'
tRp1274
sg1053
F0
sg1054
I01
sg1055
F0
ssS'SliceStep_t_C(trial_PE)[UU]_subj.23'
p1275
(dp1276
g1047
F1
sg1048
g1049
sg1050
g1051
(g8
S'\xa5\x1c\xa6\xc4!\xbd\xcd?'
tRp1277
sg1053
F0
sg1054
I01
sg1055
F0
ssS'SliceStep_t_C(trial_PE)[UU]_subj.24'
p1278
(dp1279
g1047
F1
sg1048
g1049
sg1050
g1051
(g8
S'\xe6\xdd\x9d\x85z]\xd6?'
tRp1280
sg1053
F0
sg1054
I01
sg1055
F0
ssS'SliceStep_t_C(trial_PE)[UU]_subj.25'
p1281
(dp1282
g1047
F1
sg1048
g1049
sg1050
g1051
(g8
S'\xa3d \x7f4\x01\xd2?'
tRp1283
sg1053
F0
sg1054
I01
sg1055
F0
ssS'SliceStep_t_C(trial_PE)[UU]_subj.26'
p1284
(dp1285
g1047
F1
sg1048
g1049
sg1050
g1051
(g8
S'\xde\xa7Ah"&\xd7?'
tRp1286
sg1053
F0
sg1054
I01
sg1055
F0
ssS'kNormalNormal_v_C(trial_PE)[UP]'
p1287
(dp1288
g1047
F1
sg1048
g1049
sg1050
g1051
(g8
S'\x9cG\neko\xfd?'
tRp1289
sg1053
F0
sg1054
I01
sg1055
F0
ssS'SliceStep_v_C(trial_PE)[UU]_subj.7'
p1290
(dp1291
g1047
F1
sg1048
g1049
sg1050
g1051
(g8
S'C\x94\x0f\xb8\xb9\x9a\xfd?'
tRp1292
sg1053
F0
sg1054
I01
sg1055
F0
ssS'SliceStep_v_C(trial_PE)[UU]_subj.6'
p1293
(dp1294
g1047
F1
sg1048
g1049
sg1050
g1051
(g8
S'\x0eLN"\xfd\xde\xfe?'
tRp1295
sg1053
F0
sg1054
I01
sg1055
F0
ssS'SliceStep_v_C(trial_PE)[UU]_subj.5'
p1296
(dp1297
g1047
F1
sg1048
g1049
sg1050
g1051
(g8
S'\x88b\xfe,\xab\xe2\xfe?'
tRp1298
sg1053
F0
sg1054
I01
sg1055
F0
ssS'SliceStep_t_C(trial_PE)[PU]_std'
p1299
(dp1300
g1047
F1
sg1048
g1049
sg1050
g1051
(g8
S'1\x12q\xb5l0\xbc?'
tRp1301
sg1053
F0
sg1054
I01
sg1055
F0
ssS'SliceStep_t_C(trial_PE)[PU]_subj.31'
p1302
(dp1303
g1047
F1
sg1048
g1049
sg1050
g1051
(g8
S'\x12\xa1\xabp\x00=\xd2?'
tRp1304
sg1053
F0
sg1054
I01
sg1055
F0
ssS'SliceStep_a_subj.15'
p1305
(dp1306
g1047
F1
sg1048
g1049
sg1050
g1051
(g8
S'\x8b\xaa\xf5\xb3\xf6\x9b\x01@'
tRp1307
sg1053
F0
sg1054
I01
sg1055
F0
ssS'SliceStep_v_C(trial_PE)[UU]_subj.12'
p1308
(dp1309
g1047
F1
sg1048
g1049
sg1050
g1051
(g8
S'\x92\xf9\x0e\xf9\x08!\xfd?'
tRp1310
sg1053
F0
sg1054
I01
sg1055
F0
ssS'SliceStep_t_C(trial_PE)[PP]'
p1311
(dp1312
g1047
F1
sg1048
g1049
sg1050
g1051
(g8
S'\x80\xb6\xabO\x84\xba\xd8?'
tRp1313
sg1053
F0
sg1054
I01
sg1055
F0
ssS'SliceStep_v_C(trial_PE)[PP]_subj.9'
p1314
(dp1315
g1047
F1
sg1048
g1049
sg1050
g1051
(g8
S'\xa5\xe7\x03\xbb\xc7\x91\xfb?'
tRp1316
sg1053
F0
sg1054
I01
sg1055
F0
ssS'SliceStep_v_C(trial_PE)[PP]_subj.8'
p1317
(dp1318
g1047
F1
sg1048
g1049
sg1050
g1051
(g8
S'\xd7*\xa6\xf2\xccq\xfb?'
tRp1319
sg1053
F0
sg1054
I01
sg1055
F0
ssS'SliceStep_t_C(trial_PE)[UU]_std'
p1320
(dp1321
g1047
F1
sg1048
g1049
sg1050
g1051
(g8
S'\xff\xe6\xd3\x82\x81#\xc0?'
tRp1322
sg1053
F0
sg1054
I01
sg1055
F0
ssS'SliceStep_v_C(trial_PE)[PP]_subj.5'
p1323
(dp1324
g1047
F1
sg1048
g1049
sg1050
g1051
(g8
S'\xb9\xbe@\xef-\xb4\xfa?'
tRp1325
sg1053
F0
sg1054
I01
sg1055
F0
ssS'SliceStep_v_C(trial_PE)[PP]_subj.4'
p1326
(dp1327
g1047
F1
sg1048
g1049
sg1050
g1051
(g8
S'\xeb\x92\x88\xd0sB\xfb?'
tRp1328
sg1053
F0
sg1054
I01
sg1055
F0
ssS'SliceStep_v_C(trial_PE)[PP]_subj.7'
p1329
(dp1330
g1047
F1
sg1048
g1049
sg1050
g1051
(g8
S'\xfd\x83&N#\x0c\xf6?'
tRp1331
sg1053
F0
sg1054
I01
sg1055
F0
ssS'SliceStep_v_C(trial_PE)[PP]_subj.6'
p1332
(dp1333
g1047
F1
sg1048
g1049
sg1050
g1051
(g8
S'i.\xba\xb0\x96\x9a\xf7?'
tRp1334
sg1053
F0
sg1054
I01
sg1055
F0
ssS'kNormalNormal_v_C(trial_PE)[UU]'
p1335
(dp1336
g1047
F1
sg1048
g1049
sg1050
g1051
(g8
S'\t\x99~\xd3\x04\x95\xfd?'
tRp1337
sg1053
F0
sg1054
I01
sg1055
F0
ssS'SliceStep_v_C(trial_PE)[PP]_subj.0'
p1338
(dp1339
g1047
F1
sg1048
g1049
sg1050
g1051
(g8
S'\xe3\xa6\x1f\xbe\xcd5\xf6?'
tRp1340
sg1053
F0
sg1054
I01
sg1055
F0
ssS'SliceStep_v_C(trial_PE)[PP]_subj.3'
p1341
(dp1342
g1047
F1
sg1048
g1049
sg1050
g1051
(g8
S'I\xdfk,\xca\xed\xfb?'
tRp1343
sg1053
F0
sg1054
I01
sg1055
F0
ssS'SliceStep_v_C(trial_PE)[PP]_subj.2'
p1344
(dp1345
g1047
F1
sg1048
g1049
sg1050
g1051
(g8
S'\x15\xfe\x17[\xeb\xb5\xf5?'
tRp1346
sg1053
F0
sg1054
I01
sg1055
F0
ssS'SliceStep_t_C(trial_PE)[UU]_subj.19'
p1347
(dp1348
g1047
F1
sg1048
g1049
sg1050
g1051
(g8
S'SN\xb9\xa4M\xab\xe1?'
tRp1349
sg1053
F0
sg1054
I01
sg1055
F0
ssS'SliceStep_t_C(trial_PE)[UU]_subj.18'
p1350
(dp1351
g1047
F1
sg1048
g1049
sg1050
g1051
(g8
S'"\xb5"\x10m*\xd7?'
tRp1352
sg1053
F0
sg1054
I01
sg1055
F0
ssS'SliceStep_a_subj.14'
p1353
(dp1354
g1047
F1
sg1048
g1049
sg1050
g1051
(g8
S'\xeeA"fFd\x02@'
tRp1355
sg1053
F0
sg1054
I01
sg1055
F0
ssS'SliceStep_t_C(trial_PE)[UU]_subj.14'
p1356
(dp1357
g1047
F1
sg1048
g1049
sg1050
g1051
(g8
S'\x87\x01\x06\xa8\x97\x85\xe0?'
tRp1358
sg1053
F0
sg1054
I01
sg1055
F0
ssS'SliceStep_t_C(trial_PE)[UU]_subj.17'
p1359
(dp1360
g1047
F1
sg1048
g1049
sg1050
g1051
(g8
S'\x11UOuS\x93\xda?'
tRp1361
sg1053
F0
sg1054
I01
sg1055
F0
ssS'SliceStep_t_C(trial_PE)[UU]_subj.16'
p1362
(dp1363
g1047
F1
sg1048
g1049
sg1050
g1051
(g8
S'\xa2\xe3\xff\x00\x1d\xff\xd7?'
tRp1364
sg1053
F0
sg1054
I01
sg1055
F0
ssS'SliceStep_t_C(trial_PE)[UU]_subj.11'
p1365
(dp1366
g1047
F1
sg1048
g1049
sg1050
g1051
(g8
S'\xe7\xcc\xe5\x8a\xeb\x9d\xe3?'
tRp1367
sg1053
F0
sg1054
I01
sg1055
F0
ssS'SliceStep_t_C(trial_PE)[PP]_subj.19'
p1368
(dp1369
g1047
F1
sg1048
g1049
sg1050
g1051
(g8
S'"\xfc\x80\xeb\xc6#\xdc?'
tRp1370
sg1053
F0
sg1054
I01
sg1055
F0
ssS'SliceStep_t_C(trial_PE)[UU]_subj.13'
p1371
(dp1372
g1047
F1
sg1048
g1049
sg1050
g1051
(g8
S'\xd6\xbfN\xba\xa5\xd5\xdc?'
tRp1373
sg1053
F0
sg1054
I01
sg1055
F0
ssS'SliceStep_t_C(trial_PE)[UU]_subj.12'
p1374
(dp1375
g1047
F1
sg1048
g1049
sg1050
g1051
(g8
S'\xc8\xa1\x12\x8e*\x1a\xe0?'
tRp1376
sg1053
F0
sg1054
I01
sg1055
F0
ssS'SliceStep_t_C(trial_PE)[UP]_subj.23'
p1377
(dp1378
g1047
F1
sg1048
g1049
sg1050
g1051
(g8
S'\xbc\xf2Z\x0c7]\xce?'
tRp1379
sg1053
F0
sg1054
I01
sg1055
F0
ssS'SliceStep_t_C(trial_PE)[UP]_subj.22'
p1380
(dp1381
g1047
F1
sg1048
g1049
sg1050
g1051
(g8
S'D\x98\x9b\xd8\xf4\xeb\xd7?'
tRp1382
sg1053
F0
sg1054
I01
sg1055
F0
ssS'SliceStep_t_C(trial_PE)[UP]_subj.21'
p1383
(dp1384
g1047
F1
sg1048
g1049
sg1050
g1051
(g8
S'\xe28\x15\xba\xc4\x91\xd5?'
tRp1385
sg1053
F0
sg1054
I01
sg1055
F0
ssS'SliceStep_t_C(trial_PE)[UP]_subj.20'
p1386
(dp1387
g1047
F1
sg1048
g1049
sg1050
g1051
(g8
S'\xaf\x0c\xf2,[n\xd8?'
tRp1388
sg1053
F0
sg1054
I01
sg1055
F0
ssS'SliceStep_t_C(trial_PE)[PU]_subj.8'
p1389
(dp1390
g1047
F1
sg1048
g1049
sg1050
g1051
(g8
S'\x8dj*Lb8\xe0?'
tRp1391
sg1053
F0
sg1054
I01
sg1055
F0
ssS'SliceStep_t_C(trial_PE)[UP]_subj.26'
p1392
(dp1393
g1047
F1
sg1048
g1049
sg1050
g1051
(g8
S'y\xc7\xa8\x85\xdc\xce\xd5?'
tRp1394
sg1053
F0
sg1054
I01
sg1055
F0
ssS'SliceStep_t_C(trial_PE)[UP]_subj.25'
p1395
(dp1396
g1047
F1
sg1048
g1049
sg1050
g1051
(g8
S'\xb7(\xb8J\xa8j\xdb?'
tRp1397
sg1053
F0
sg1054
I01
sg1055
F0
ssS'SliceStep_t_C(trial_PE)[UP]_subj.24'
p1398
(dp1399
g1047
F1
sg1048
g1049
sg1050
g1051
(g8
S'1\xef<\xda7\xc1\xd5?'
tRp1400
sg1053
F0
sg1054
I01
sg1055
F0
ssS'SliceStep_t_C(trial_PE)[UP]_subj.29'
p1401
(dp1402
g1047
F1
sg1048
g1049
sg1050
g1051
(g8
S'\xcec\x1a^L\xe3\xd1?'
tRp1403
sg1053
F0
sg1054
I01
sg1055
F0
ssS'SliceStep_t_C(trial_PE)[UU]_subj.27'
p1404
(dp1405
g1047
F1
sg1048
g1049
sg1050
g1051
(g8
S'\xcb2\x8a\x15\x97W\xe0?'
tRp1406
sg1053
F0
sg1054
I01
sg1055
F0
ssS'SliceStep_v_C(trial_PE)[PU]_subj.6'
p1407
(dp1408
g1047
F1
sg1048
g1049
sg1050
g1051
(g8
S'\xec\xb1\x80\x98\xf7\xaf\xfd?'
tRp1409
sg1053
F0
sg1054
I01
sg1055
F0
ssS'SliceStep_t_C(trial_PE)[PP]_subj.27'
p1410
(dp1411
g1047
F1
sg1048
g1049
sg1050
g1051
(g8
S'O\xea\xe2\xfc\xbc\xe8\xd7?'
tRp1412
sg1053
F0
sg1054
I01
sg1055
F0
ssS'SliceStep_t_C(trial_PE)[UP]_subj.0'
p1413
(dp1414
g1047
F1
sg1048
g1049
sg1050
g1051
(g8
S'\xcf\xf2%\xc7vu\xe6?'
tRp1415
sg1053
F0
sg1054
I01
sg1055
F0
ssS'SliceStep_t_C(trial_PE)[UP]_subj.1'
p1416
(dp1417
g1047
F1
sg1048
g1049
sg1050
g1051
(g8
S'\x9a\xea6\xd7\xaaa\xdd?'
tRp1418
sg1053
F0
sg1054
I01
sg1055
F0
ssS'SliceStep_t_C(trial_PE)[UP]_subj.2'
p1419
(dp1420
g1047
F1
sg1048
g1049
sg1050
g1051
(g8
S'U\xd0$\x1a\xf4\x90\xe4?'
tRp1421
sg1053
F0
sg1054
I01
sg1055
F0
ssS'SliceStep_a_subj.25'
p1422
(dp1423
g1047
F1
sg1048
g1049
sg1050
g1051
(g8
S'\x86,\xbe&\x8f\x82\x01@'
tRp1424
sg1053
F0
sg1054
I01
sg1055
F0
ssS'SliceStep_t_C(trial_PE)[UP]_subj.4'
p1425
(dp1426
g1047
F1
sg1048
g1049
sg1050
g1051
(g8
S'\xcd7\x9bEA\x95\xda?'
tRp1427
sg1053
F0
sg1054
I01
sg1055
F0
ssS'SliceStep_t_C(trial_PE)[UP]_subj.5'
p1428
(dp1429
g1047
F1
sg1048
g1049
sg1050
g1051
(g8
S'I\x1a\xf1-\xb4\xd6\xdd?'
tRp1430
sg1053
F0
sg1054
I01
sg1055
F0
ssS'SliceStep_t_C(trial_PE)[UP]_subj.6'
p1431
(dp1432
g1047
F1
sg1048
g1049
sg1050
g1051
(g8
S'P\xfe\xee\xe1\x14!\xe2?'
tRp1433
sg1053
F0
sg1054
I01
sg1055
F0
ssS'SliceStep_t_C(trial_PE)[UP]_subj.7'
p1434
(dp1435
g1047
F1
sg1048
g1049
sg1050
g1051
(g8
S'\x99\n\x1eO\xdb\x01\xea?'
tRp1436
sg1053
F0
sg1054
I01
sg1055
F0
ssS'SliceStep_t_C(trial_PE)[UP]_subj.8'
p1437
(dp1438
g1047
F1
sg1048
g1049
sg1050
g1051
(g8
S'_l*M\xb9\xd9\xdc?'
tRp1439
sg1053
F0
sg1054
I01
sg1055
F0
ssS'SliceStep_t_C(trial_PE)[UP]_subj.9'
p1440
(dp1441
g1047
F1
sg1048
g1049
sg1050
g1051
(g8
S'\xd2&d\x988?\xdc?'
tRp1442
sg1053
F0
sg1054
I01
sg1055
F0
ssS'SliceStep_v_C(trial_PE)[PU]_subj.1'
p1443
(dp1444
g1047
F1
sg1048
g1049
sg1050
g1051
(g8
S'\xbaS\x92l\xdco\xff?'
tRp1445
sg1053
F0
sg1054
I01
sg1055
F0
ssS'SliceStep_v_C(trial_PE)[PU]_subj.27'
p1446
(dp1447
g1047
F1
sg1048
g1049
sg1050
g1051
(g8
S'\x1c\xf1\x81A\x0f0\xfd?'
tRp1448
sg1053
F0
sg1054
I01
sg1055
F0
ssS'SliceStep_v_C(trial_PE)[PU]_subj.26'
p1449
(dp1450
g1047
F1
sg1048
g1049
sg1050
g1051
(g8
S'\xe0\x8du\xb4\x13\xb1\xfd?'
tRp1451
sg1053
F0
sg1054
I01
sg1055
F0
ssS'SliceStep_v_C(trial_PE)[PU]_subj.25'
p1452
(dp1453
g1047
F1
sg1048
g1049
sg1050
g1051
(g8
S'\xfc\xe9"\x9fg\xf6\xfc?'
tRp1454
sg1053
F0
sg1054
I01
sg1055
F0
ssS'SliceStep_v_C(trial_PE)[PU]_subj.24'
p1455
(dp1456
g1047
F1
sg1048
g1049
sg1050
g1051
(g8
S'9\x11H\xd53\xb5\xfa?'
tRp1457
sg1053
F0
sg1054
I01
sg1055
F0
ssS'SliceStep_v_C(trial_PE)[PU]_subj.23'
p1458
(dp1459
g1047
F1
sg1048
g1049
sg1050
g1051
(g8
S'\xac\xe5\x96\x05N\x86\xfd?'
tRp1460
sg1053
F0
sg1054
I01
sg1055
F0
ssS'SliceStep_v_C(trial_PE)[PU]_subj.22'
p1461
(dp1462
g1047
F1
sg1048
g1049
sg1050
g1051
(g8
S'\xa6\x8b\xe5c\xd6\x98\xfe?'
tRp1463
sg1053
F0
sg1054
I01
sg1055
F0
ssS'SliceStep_v_C(trial_PE)[PU]_subj.21'
p1464
(dp1465
g1047
F1
sg1048
g1049
sg1050
g1051
(g8
S'GN\xf88\xa2.\xfd?'
tRp1466
sg1053
F0
sg1054
I01
sg1055
F0
ssS'SliceStep_v_C(trial_PE)[PU]_subj.20'
p1467
(dp1468
g1047
F1
sg1048
g1049
sg1050
g1051
(g8
S'A\xec\x11\xe1Dk\xff?'
tRp1469
sg1053
F0
sg1054
I01
sg1055
F0
ssS'SliceStep_v_C(trial_PE)[UU]_subj.32'
p1470
(dp1471
g1047
F1
sg1048
g1049
sg1050
g1051
(g8
S'l\x8f\x80\x11\xfa\xfd\xfc?'
tRp1472
sg1053
F0
sg1054
I01
sg1055
F0
ssS'SliceStep_a_subj.21'
p1473
(dp1474
g1047
F1
sg1048
g1049
sg1050
g1051
(g8
S'/>dj\x85X\x02@'
tRp1475
sg1053
F0
sg1054
I01
sg1055
F0
ssS'SliceStep_t_C(trial_PE)[UP]_std'
p1476
(dp1477
g1047
F1
sg1048
g1049
sg1050
g1051
(g8
S'\xe8\xfe\x81H\xda\xeb\xbd?'
tRp1478
sg1053
F0
sg1054
I01
sg1055
F0
ssS'SliceStep_t_C(trial_PE)[UP]_subj.10'
p1479
(dp1480
g1047
F1
sg1048
g1049
sg1050
g1051
(g8
S'?\x9f\xe2\x98\xdf>\xe2?'
tRp1481
sg1053
F0
sg1054
I01
sg1055
F0
ssS'SliceStep_v_C(trial_PE)[PU]_subj.29'
p1482
(dp1483
g1047
F1
sg1048
g1049
sg1050
g1051
(g8
S'">\x8d5\xa3\x90\xfc?'
tRp1484
sg1053
F0
sg1054
I01
sg1055
F0
ssS'SliceStep_v_C(trial_PE)[PU]_subj.28'
p1485
(dp1486
g1047
F1
sg1048
g1049
sg1050
g1051
(g8
S'\xc89M\x95a\x08\xfd?'
tRp1487
sg1053
F0
sg1054
I01
sg1055
F0
ssS'SliceStep_t_C(trial_PE)[UP]_subj.11'
p1488
(dp1489
g1047
F1
sg1048
g1049
sg1050
g1051
(g8
S'\xaa\x8a\xac]\xeal\xdf?'
tRp1490
sg1053
F0
sg1054
I01
sg1055
F0
ssS'SliceStep_a_subj.12'
p1491
(dp1492
g1047
F1
sg1048
g1049
sg1050
g1051
(g8
S'\xdc\x90\xae\x83\x07\xab\x01@'
tRp1493
sg1053
F0
sg1054
I01
sg1055
F0
ssS'SliceStep_t_C(trial_PE)[UP]_subj.3'
p1494
(dp1495
g1047
F1
sg1048
g1049
sg1050
g1051
(g8
S'\xa1\x93\x00\x84\xf5i\xe4?'
tRp1496
sg1053
F0
sg1054
I01
sg1055
F0
ssS'SliceStep_t_C(trial_PE)[UP]_subj.16'
p1497
(dp1498
g1047
F1
sg1048
g1049
sg1050
g1051
(g8
S')X`\xaf\x02P\xd9?'
tRp1499
sg1053
F0
sg1054
I01
sg1055
F0
ssS'SliceStep_t_C(trial_PE)[PP]_subj.18'
p1500
(dp1501
g1047
F1
sg1048
g1049
sg1050
g1051
(g8
S'$\xae\xd5c\xcd\x9b\xd6?'
tRp1502
sg1053
F0
sg1054
I01
sg1055
F0
ssS'SliceStep_t_C(trial_PE)[UP]_subj.17'
p1503
(dp1504
g1047
F1
sg1048
g1049
sg1050
g1051
(g8
S'0\x1c\xb2V\xf4\x14\xd8?'
tRp1505
sg1053
F0
sg1054
I01
sg1055
F0
ssS'SliceStep_t_C(trial_PE)[UP]_subj.30'
p1506
(dp1507
g1047
F1
sg1048
g1049
sg1050
g1051
(g8
S'y}!\xa2\xfdi\xd7?'
tRp1508
sg1053
F0
sg1054
I01
sg1055
F0
ssS'SliceStep_t_C(trial_PE)[UP]_subj.31'
p1509
(dp1510
g1047
F1
sg1048
g1049
sg1050
g1051
(g8
S'\xf3\x9d\x83{\xf9\x90\xd3?'
tRp1511
sg1053
F0
sg1054
I01
sg1055
F0
ssS'SliceStep_t_C(trial_PE)[UP]_subj.32'
p1512
(dp1513
g1047
F1
sg1048
g1049
sg1050
g1051
(g8
S'\xf4\xb2M\xa0,\xa9\xd7?'
tRp1514
sg1053
F0
sg1054
I01
sg1055
F0
ssS'SliceStep_t_C(trial_PE)[PP]_subj.15'
p1515
(dp1516
g1047
F1
sg1048
g1049
sg1050
g1051
(g8
S'\x05\xb2`C\xf9\xff\xd9?'
tRp1517
sg1053
F0
sg1054
I01
sg1055
F0
ssS'SliceStep_t_C(trial_PE)[PP]_subj.29'
p1518
(dp1519
g1047
F1
sg1048
g1049
sg1050
g1051
(g8
S'\xa0\x81\xef\xec<\xa2\xd1?'
tRp1520
sg1053
F0
sg1054
I01
sg1055
F0
ssS'SliceStep_t_C(trial_PE)[PP]_subj.14'
p1521
(dp1522
g1047
F1
sg1048
g1049
sg1050
g1051
(g8
S'\xeb\xbd[\x046D\xde?'
tRp1523
sg1053
F0
sg1054
I01
sg1055
F0
ssS'SliceStep_t_C(trial_PE)[UU]_subj.31'
p1524
(dp1525
g1047
F1
sg1048
g1049
sg1050
g1051
(g8
S'\x99%\xe3x\xcd\xa5\xd2?'
tRp1526
sg1053
F0
sg1054
I01
sg1055
F0
ssS'SliceStep_v_C(trial_PE)[PP]_std'
p1527
(dp1528
g1047
F1
sg1048
g1049
sg1050
g1051
(g8
S'T\x04\xec-r\x8b\xca?'
tRp1529
sg1053
F0
sg1054
I01
sg1055
F0
ssS'SliceStep_v_C(trial_PE)[UP]_subj.2'
p1530
(dp1531
g1047
F1
sg1048
g1049
sg1050
g1051
(g8
S'\xd3"\x18\xb5\xd8<\xfd?'
tRp1532
sg1053
F0
sg1054
I01
sg1055
F0
ssS'SliceStep_a_subj.16'
p1533
(dp1534
g1047
F1
sg1048
g1049
sg1050
g1051
(g8
S'<\xd5%\xf9\xc8\xdd\x00@'
tRp1535
sg1053
F0
sg1054
I01
sg1055
F0
ssS'SliceStep_v_C(trial_PE)[UP]_subj.0'
p1536
(dp1537
g1047
F1
sg1048
g1049
sg1050
g1051
(g8
S'\x99jY4c\x8f\xfd?'
tRp1538
sg1053
F0
sg1054
I01
sg1055
F0
ssS'SliceStep_t_C(trial_PE)[PU]_subj.9'
p1539
(dp1540
g1047
F1
sg1048
g1049
sg1050
g1051
(g8
S'\x90\xa1W\xc6J\x0c\xdf?'
tRp1541
sg1053
F0
sg1054
I01
sg1055
F0
ssS'SliceStep_a_subj.13'
p1542
(dp1543
g1047
F1
sg1048
g1049
sg1050
g1051
(g8
S'\xa8P-\xd3d/\x02@'
tRp1544
sg1053
F0
sg1054
I01
sg1055
F0
ssS'SliceStep_v_C(trial_PE)[UP]_subj.7'
p1545
(dp1546
g1047
F1
sg1048
g1049
sg1050
g1051
(g8
S'\xf7}\xa0\t\xec\x12\xfd?'
tRp1547
sg1053
F0
sg1054
I01
sg1055
F0
ssS'SliceStep_v_C(trial_PE)[UP]_subj.4'
p1548
(dp1549
g1047
F1
sg1048
g1049
sg1050
g1051
(g8
S'\xb3\xa1\xde,0\x02\xff?'
tRp1550
sg1053
F0
sg1054
I01
sg1055
F0
ssS'SliceStep_v_C(trial_PE)[UP]_subj.5'
p1551
(dp1552
g1047
F1
sg1048
g1049
sg1050
g1051
(g8
S'O\x86\x8b\xa0\x7f\xfc\xfe?'
tRp1553
sg1053
F0
sg1054
I01
sg1055
F0
ssS'SliceStep_t_C(trial_PE)[PU]_subj.2'
p1554
(dp1555
g1047
F1
sg1048
g1049
sg1050
g1051
(g8
S'\x94C\xd6\xf8\xb9\xbf\xe3?'
tRp1556
sg1053
F0
sg1054
I01
sg1055
F0
ssS'SliceStep_t_C(trial_PE)[PU]_subj.3'
p1557
(dp1558
g1047
F1
sg1048
g1049
sg1050
g1051
(g8
S'\xbc\x052\xce\xa6\xf1\xdf?'
tRp1559
sg1053
F0
sg1054
I01
sg1055
F0
ssS'SliceStep_t_C(trial_PE)[PU]_subj.0'
p1560
(dp1561
g1047
F1
sg1048
g1049
sg1050
g1051
(g8
S'\x1a\xd0G$\x91\x18\xe6?'
tRp1562
sg1053
F0
sg1054
I01
sg1055
F0
ssS'SliceStep_v_C(trial_PE)[UP]_subj.9'
p1563
(dp1564
g1047
F1
sg1048
g1049
sg1050
g1051
(g8
S'\xea\x9dlb{|\xfe?'
tRp1565
sg1053
F0
sg1054
I01
sg1055
F0
ssS'SliceStep_t_C(trial_PE)[PU]_subj.6'
p1566
(dp1567
g1047
F1
sg1048
g1049
sg1050
g1051
(g8
S'x`\xa7\xb4\x04w\xe0?'
tRp1568
sg1053
F0
sg1054
I01
sg1055
F0
ssS'SliceStep_t_C(trial_PE)[PU]_subj.7'
p1569
(dp1570
g1047
F1
sg1048
g1049
sg1050
g1051
(g8
S'\x93\x94\x8cY\x88\x9e\xe2?'
tRp1571
sg1053
F0
sg1054
I01
sg1055
F0
ssS'SliceStep_a_subj.19'
p1572
(dp1573
g1047
F1
sg1048
g1049
sg1050
g1051
(g8
S'\x89D:3$J\x02@'
tRp1574
sg1053
F0
sg1054
I01
sg1055
F0
ssS'SliceStep_t_C(trial_PE)[PU]_subj.5'
p1575
(dp1576
g1047
F1
sg1048
g1049
sg1050
g1051
(g8
S'\xdc\xdf8\xe6\xa7v\xdd?'
tRp1577
sg1053
F0
sg1054
I01
sg1055
F0
ssS'SliceStep_v_C(trial_PE)[UU]_subj.3'
p1578
(dp1579
g1047
F1
sg1048
g1049
sg1050
g1051
(g8
S'\x0e\x16\xca\x0c\x14q\xfe?'
tRp1580
sg1053
F0
sg1054
I01
sg1055
F0
ssS'SliceStep_v_C(trial_PE)[UU]_subj.2'
p1581
(dp1582
g1047
F1
sg1048
g1049
sg1050
g1051
(g8
S'\x17\x07\x1dB@\x9b\xfc?'
tRp1583
sg1053
F0
sg1054
I01
sg1055
F0
ssS'SliceStep_v_C(trial_PE)[UU]_subj.1'
p1584
(dp1585
g1047
F1
sg1048
g1049
sg1050
g1051
(g8
S'\xb8Q\x9d\x13\x08\xe0\xfe?'
tRp1586
sg1053
F0
sg1054
I01
sg1055
F0
ssS'SliceStep_v_C(trial_PE)[UU]_subj.0'
p1587
(dp1588
g1047
F1
sg1048
g1049
sg1050
g1051
(g8
S'\xda\xe4K\x16\xe5e\xfe?'
tRp1589
sg1053
F0
sg1054
I01
sg1055
F0
ssS'SliceStep_v_C(trial_PE)[PU]_subj.30'
p1590
(dp1591
g1047
F1
sg1048
g1049
sg1050
g1051
(g8
S'a\xad\xda\x85b\xe0\xfa?'
tRp1592
sg1053
F0
sg1054
I01
sg1055
F0
ssS'SliceStep_v_C(trial_PE)[PU]_subj.31'
p1593
(dp1594
g1047
F1
sg1048
g1049
sg1050
g1051
(g8
S't\xb1w\x04\x9b\x02\xff?'
tRp1595
sg1053
F0
sg1054
I01
sg1055
F0
ssS'SliceStep_v_C(trial_PE)[PU]_subj.32'
p1596
(dp1597
g1047
F1
sg1048
g1049
sg1050
g1051
(g8
S'\xbb\xcc\xb4\xb4%\x9f\xfc?'
tRp1598
sg1053
F0
sg1054
I01
sg1055
F0
ssS'SliceStep_v_C(trial_PE)[UU]_subj.4'
p1599
(dp1600
g1047
F1
sg1048
g1049
sg1050
g1051
(g8
S'\xd4\x81\xda\x8d\x11k\xfe?'
tRp1601
sg1053
F0
sg1054
I01
sg1055
F0
ssS'SliceStep_a_subj.26'
p1602
(dp1603
g1047
F1
sg1048
g1049
sg1050
g1051
(g8
S'^oT\x92\xe6]\x01@'
tRp1604
sg1053
F0
sg1054
I01
sg1055
F0
ssS'SliceStep_v_C(trial_PE)[UU]_subj.9'
p1605
(dp1606
g1047
F1
sg1048
g1049
sg1050
g1051
(g8
S'v\xa8s\xe2Z\xbf\xff?'
tRp1607
sg1053
F0
sg1054
I01
sg1055
F0
ssS'SliceStep_v_C(trial_PE)[UU]_subj.8'
p1608
(dp1609
g1047
F1
sg1048
g1049
sg1050
g1051
(g8
S'J\xa5\xed\x14"\xd7\xfd?'
tRp1610
sg1053
F0
sg1054
I01
sg1055
F0
ssS'SliceStep_a_subj.10'
p1611
(dp1612
g1047
F1
sg1048
g1049
sg1050
g1051
(g8
S'\xa0\xcd\x1f5Xf\x00@'
tRp1613
sg1053
F0
sg1054
I01
sg1055
F0
ssS'SliceStep_v_C(trial_PE)[UU]_std'
p1614
(dp1615
g1047
F1
sg1048
g1049
sg1050
g1051
(g8
S'N\xa8E\x8fq\xa6\xb3?'
tRp1616
sg1053
F0
sg1054
I01
sg1055
F0
ssS'SliceStep_v_C(trial_PE)[PP]_subj.32'
p1617
(dp1618
g1047
F1
sg1048
g1049
sg1050
g1051
(g8
S'\t{\xdc)\x86\xd3\xf6?'
tRp1619
sg1053
F0
sg1054
I01
sg1055
F0
ssS'SliceStep_v_C(trial_PE)[PP]_subj.31'
p1620
(dp1621
g1047
F1
sg1048
g1049
sg1050
g1051
(g8
S'\xc2\xa7"\xe6\x04\xe6\xf8?'
tRp1622
sg1053
F0
sg1054
I01
sg1055
F0
ssS'SliceStep_v_C(trial_PE)[PP]_subj.30'
p1623
(dp1624
g1047
F1
sg1048
g1049
sg1050
g1051
(g8
S'\x17\xd7\xa6\xcb_\xf5\xe9?'
tRp1625
sg1053
F0
sg1054
I01
sg1055
F0
ssS'SliceStep_v_C(trial_PE)[PU]_subj.2'
p1626
(dp1627
g1047
F1
sg1048
g1049
sg1050
g1051
(g8
S'\x05\xbbHq\xba\x1f\xfe?'
tRp1628
sg1053
F0
sg1054
I01
sg1055
F0
ssS'SliceStep_v_C(trial_PE)[T.UP]:pupil_response_1'
p1629
(dp1630
g1047
F1
sg1048
g1049
sg1050
g1051
(g8
S'z1\xe2\xe7\x0e\xaf\xbd>'
tRp1631
sg1053
F0
sg1054
I01
sg1055
F0
ssS'SliceStep_v_pupil_response_1'
p1632
(dp1633
g1047
F1
sg1048
g1049
sg1050
g1051
(g8
S'\x00/\xe6d\x96He>'
tRp1634
sg1053
F0
sg1054
I01
sg1055
F0
ssS'SliceStep_t_C(trial_PE)[PP]_subj.30'
p1635
(dp1636
g1047
F1
sg1048
g1049
sg1050
g1051
(g8
S'\xf1g\x82\xbc=\xa8\xc5?'
tRp1637
sg1053
F0
sg1054
I01
sg1055
F0
ssS'SliceStep_a_std'
p1638
(dp1639
g1047
F1
sg1048
g1049
sg1050
g1051
(g8
S'\x83#\xbe\xfe\xdbK\xd1?'
tRp1640
sg1053
F0
sg1054
I01
sg1055
F0
ssS'SliceStep_t_C(trial_PE)[UU]_subj.9'
p1641
(dp1642
g1047
F1
sg1048
g1049
sg1050
g1051
(g8
S'\x8el\xf2\x84\xd2\xcc\xde?'
tRp1643
sg1053
F0
sg1054
I01
sg1055
F0
ssS'SliceStep_t_C(trial_PE)[UU]_subj.8'
p1644
(dp1645
g1047
F1
sg1048
g1049
sg1050
g1051
(g8
S'&\x82\xa1\xe2\x08_\xde?'
tRp1646
sg1053
F0
sg1054
I01
sg1055
F0
ssS'kNormalNormal_v_C(trial_PE)[PP]'
p1647
(dp1648
g1047
F1
sg1048
g1049
sg1050
g1051
(g8
S'\xa0\xad[4\xe4\xfa\xf7?'
tRp1649
sg1053
F0
sg1054
I01
sg1055
F0
ssS'SliceStep_v_C(trial_PE)[UU]_subj.18'
p1650
(dp1651
g1047
F1
sg1048
g1049
sg1050
g1051
(g8
S'N\x04\x00\x07R\x97\xfe?'
tRp1652
sg1053
F0
sg1054
I01
sg1055
F0
ssS'SliceStep_t_C(trial_PE)[UU]_subj.1'
p1653
(dp1654
g1047
F1
sg1048
g1049
sg1050
g1051
(g8
S'\x86,\xd3w+\xd0\xde?'
tRp1655
sg1053
F0
sg1054
I01
sg1055
F0
ssS'SliceStep_t_C(trial_PE)[UU]_subj.0'
p1656
(dp1657
g1047
F1
sg1048
g1049
sg1050
g1051
(g8
S'\x10\xed\xaaCW\xfc\xe5?'
tRp1658
sg1053
F0
sg1054
I01
sg1055
F0
ssS'SliceStep_t_C(trial_PE)[UU]_subj.3'
p1659
(dp1660
g1047
F1
sg1048
g1049
sg1050
g1051
(g8
S'c=v\x9d\xc1.\xe6?'
tRp1661
sg1053
F0
sg1054
I01
sg1055
F0
ssS'SliceStep_t_C(trial_PE)[UU]_subj.2'
p1662
(dp1663
g1047
F1
sg1048
g1049
sg1050
g1051
(g8
S'\xf2\xb9AvJy\xe2?'
tRp1664
sg1053
F0
sg1054
I01
sg1055
F0
ssS'SliceStep_t_C(trial_PE)[UU]_subj.5'
p1665
(dp1666
g1047
F1
sg1048
g1049
sg1050
g1051
(g8
S'\x10\xcd$\xceT2\xdc?'
tRp1667
sg1053
F0
sg1054
I01
sg1055
F0
ssS'SliceStep_t_C(trial_PE)[UU]_subj.4'
p1668
(dp1669
g1047
F1
sg1048
g1049
sg1050
g1051
(g8
S'\xf4%\xe9x\xd7\xdf\xda?'
tRp1670
sg1053
F0
sg1054
I01
sg1055
F0
ssS'SliceStep_t_C(trial_PE)[UP]'
p1671
(dp1672
g1047
F1
sg1048
g1049
sg1050
g1051
(g8
S'\xec\x83W\xdc\xd1[\xdc?'
tRp1673
sg1053
F0
sg1054
I01
sg1055
F0
ssS'SliceStep_t_C(trial_PE)[UU]_subj.6'
p1674
(dp1675
g1047
F1
sg1048
g1049
sg1050
g1051
(g8
S'l\x8d\x86\xd2\xed\\\xdf?'
tRp1676
sg1053
F0
sg1054
I01
sg1055
F0
ssS'SliceStep_v_C(trial_PE)[PP]_subj.11'
p1677
(dp1678
g1047
F1
sg1048
g1049
sg1050
g1051
(g8
S'\xc3\x1d\x97\xd2\xca\xe6\xf9?'
tRp1679
sg1053
F0
sg1054
I01
sg1055
F0
ssS'SliceStep_v_C(trial_PE)[T.PU]:pupil_response_1'
p1680
(dp1681
g1047
F1
sg1048
g1049
sg1050
g1051
(g8
S'\xc0L\xba\x12\x82\x1e\xa6='
tRp1682
sg1053
F0
sg1054
I01
sg1055
F0
ssS'SliceStep_v_C(trial_PE)[PP]_subj.24'
p1683
(dp1684
g1047
F1
sg1048
g1049
sg1050
g1051
(g8
S'$Jiw\xd2\xf5\xf0?'
tRp1685
sg1053
F0
sg1054
I01
sg1055
F0
ssS'SliceStep_v_C(trial_PE)[PP]_subj.25'
p1686
(dp1687
g1047
F1
sg1048
g1049
sg1050
g1051
(g8
S'\xc3\xdc)\xd6ob\xf8?'
tRp1688
sg1053
F0
sg1054
I01
sg1055
F0
ssS'SliceStep_v_C(trial_PE)[PP]_subj.26'
p1689
(dp1690
g1047
F1
sg1048
g1049
sg1050
g1051
(g8
S'(\xe2\xe5O(\xf6\xf8?'
tRp1691
sg1053
F0
sg1054
I01
sg1055
F0
ssS'SliceStep_v_C(trial_PE)[PP]_subj.27'
p1692
(dp1693
g1047
F1
sg1048
g1049
sg1050
g1051
(g8
S'}\xa0\xf5\x11S\x1e\xf6?'
tRp1694
sg1053
F0
sg1054
I01
sg1055
F0
ssS'SliceStep_v_C(trial_PE)[PP]_subj.20'
p1695
(dp1696
g1047
F1
sg1048
g1049
sg1050
g1051
(g8
S'\x11\xac\xd8\x89\xb8U\xfd?'
tRp1697
sg1053
F0
sg1054
I01
sg1055
F0
ssS'SliceStep_v_C(trial_PE)[PP]_subj.21'
p1698
(dp1699
g1047
F1
sg1048
g1049
sg1050
g1051
(g8
S'\xb3\x0b\xd5\xf9\x8bN\xf7?'
tRp1700
sg1053
F0
sg1054
I01
sg1055
F0
ssS'SliceStep_v_C(trial_PE)[PP]_subj.22'
p1701
(dp1702
g1047
F1
sg1048
g1049
sg1050
g1051
(g8
S'|n\xb4\x07\x12\xe0\xf9?'
tRp1703
sg1053
F0
sg1054
I01
sg1055
F0
ssS'SliceStep_v_C(trial_PE)[PP]_subj.23'
p1704
(dp1705
g1047
F1
sg1048
g1049
sg1050
g1051
(g8
S'\x7f\x16oaW\xf7\xf6?'
tRp1706
sg1053
F0
sg1054
I01
sg1055
F0
ssS'SliceStep_t_C(trial_PE)[PU]_subj.15'
p1707
(dp1708
g1047
F1
sg1048
g1049
sg1050
g1051
(g8
S'\r6\xc1\x8e}\x9e\xdf?'
tRp1709
sg1053
F0
sg1054
I01
sg1055
F0
ssS'SliceStep_t_C(trial_PE)[PP]_std'
p1710
(dp1711
g1047
F1
sg1048
g1049
sg1050
g1051
(g8
S'\xeb\x06\xaf\xa6\x95H\xb9?'
tRp1712
sg1053
F0
sg1054
I01
sg1055
F0
ssS'SliceStep_v_C(trial_PE)[PP]_subj.28'
p1713
(dp1714
g1047
F1
sg1048
g1049
sg1050
g1051
(g8
S'\xde3\x02\xe2W\xec\xf7?'
tRp1715
sg1053
F0
sg1054
I01
sg1055
F0
ssS'SliceStep_v_C(trial_PE)[PP]_subj.29'
p1716
(dp1717
g1047
F1
sg1048
g1049
sg1050
g1051
(g8
S'%tD%\x88\xf5\xf6?'
tRp1718
sg1053
F0
sg1054
I01
sg1055
F0
ssS'SliceStep_t_C(trial_PE)[UP]_subj.18'
p1719
(dp1720
g1047
F1
sg1048
g1049
sg1050
g1051
(g8
S'\x11\xf9=\\\xb2\x1b\xd8?'
tRp1721
sg1053
F0
sg1054
I01
sg1055
F0
ssS'SliceStep_t_C(trial_PE)[UP]_subj.19'
p1722
(dp1723
g1047
F1
sg1048
g1049
sg1050
g1051
(g8
S'\xa6\xa2\xca\xd4\xcf\xac\xdb?'
tRp1724
sg1053
F0
sg1054
I01
sg1055
F0
ssS'SliceStep_t_C(trial_PE)[UP]_subj.12'
p1725
(dp1726
g1047
F1
sg1048
g1049
sg1050
g1051
(g8
S'\x13\x83\x8b]\x00\xa7\xe1?'
tRp1727
sg1053
F0
sg1054
I01
sg1055
F0
ssS'SliceStep_t_C(trial_PE)[PP]_subj.12'
p1728
(dp1729
g1047
F1
sg1048
g1049
sg1050
g1051
(g8
S'm\xeew\xe7\xea\x13\xdc?'
tRp1730
sg1053
F0
sg1054
I01
sg1055
F0
ssS'SliceStep_t_C(trial_PE)[PP]_subj.11'
p1731
(dp1732
g1047
F1
sg1048
g1049
sg1050
g1051
(g8
S'\xb3\x7fl\t\x8b\x84\xdd?'
tRp1733
sg1053
F0
sg1054
I01
sg1055
F0
ssS'SliceStep_t_C(trial_PE)[PP]_subj.10'
p1734
(dp1735
g1047
F1
sg1048
g1049
sg1050
g1051
(g8
S'\xb6_\x92\xbcb\xba\xd8?'
tRp1736
sg1053
F0
sg1054
I01
sg1055
F0
ssS'SliceStep_t_C(trial_PE)[PP]_subj.17'
p1737
(dp1738
g1047
F1
sg1048
g1049
sg1050
g1051
(g8
S' \xd5\xd94\xd8V\xd8?'
tRp1739
sg1053
F0
sg1054
I01
sg1055
F0
ssS'SliceStep_t_C(trial_PE)[PP]_subj.16'
p1740
(dp1741
g1047
F1
sg1048
g1049
sg1050
g1051
(g8
S'fv\x13EY\x14\xd7?'
tRp1742
sg1053
F0
sg1054
I01
sg1055
F0
ssS'SliceStep_t_C(trial_PE)[UP]_subj.14'
p1743
(dp1744
g1047
F1
sg1048
g1049
sg1050
g1051
(g8
S'\x86\x18\xbb\x1a\x95\xc7\xe0?'
tRp1745
sg1053
F0
sg1054
I01
sg1055
F0
ssS'SliceStep_t_C(trial_PE)[UP]_subj.15'
p1746
(dp1747
g1047
F1
sg1048
g1049
sg1050
g1051
(g8
S'\x91\xa4u\xb8\x94q\xda?'
tRp1748
sg1053
F0
sg1054
I01
sg1055
F0
ssS'SliceStep_v_C(trial_PE)[UU]_subj.13'
p1749
(dp1750
g1047
F1
sg1048
g1049
sg1050
g1051
(g8
S'0\n/V\xb6\x86\xfe?'
tRp1751
sg1053
F0
sg1054
I01
sg1055
F0
ssS'SliceStep_t_C(trial_PE)[PP]_subj.13'
p1752
(dp1753
g1047
F1
sg1048
g1049
sg1050
g1051
(g8
S'/%\xf8\xd8\xc1Q\xdc?'
tRp1754
sg1053
F0
sg1054
I01
sg1055
F0
ssS'SliceStep_v_C(trial_PE)[UU]_subj.11'
p1755
(dp1756
g1047
F1
sg1048
g1049
sg1050
g1051
(g8
S'l\xd5\t)\x11\xb4\xfd?'
tRp1757
sg1053
F0
sg1054
I01
sg1055
F0
ssS'SliceStep_v_C(trial_PE)[UU]_subj.10'
p1758
(dp1759
g1047
F1
sg1048
g1049
sg1050
g1051
(g8
S'"\x90\x84\x0bJx\xfd?'
tRp1760
sg1053
F0
sg1054
I01
sg1055
F0
ssS'SliceStep_v_C(trial_PE)[UU]_subj.17'
p1761
(dp1762
g1047
F1
sg1048
g1049
sg1050
g1051
(g8
S'XkU\xa3\xd6.\xfd?'
tRp1763
sg1053
F0
sg1054
I01
sg1055
F0
ssS'SliceStep_v_C(trial_PE)[UU]_subj.16'
p1764
(dp1765
g1047
F1
sg1048
g1049
sg1050
g1051
(g8
S'\xfc\xce\xa45\x0f\x84\xfc?'
tRp1766
sg1053
F0
sg1054
I01
sg1055
F0
ssS'SliceStep_v_C(trial_PE)[UU]_subj.15'
p1767
(dp1768
g1047
F1
sg1048
g1049
sg1050
g1051
(g8
S'\xc9H\xd4-\x98\xb4\xfe?'
tRp1769
sg1053
F0
sg1054
I01
sg1055
F0
ssS'SliceStep_v_C(trial_PE)[UU]_subj.14'
p1770
(dp1771
g1047
F1
sg1048
g1049
sg1050
g1051
(g8
S';\x8cM\x95\x19S\xfd?'
tRp1772
sg1053
F0
sg1054
I01
sg1055
F0
ssS'SliceStep_a_subj.31'
p1773
(dp1774
g1047
F1
sg1048
g1049
sg1050
g1051
(g8
S'b\x88\x00\x030\xdb\x00@'
tRp1775
sg1053
F0
sg1054
I01
sg1055
F0
ssS'SliceStep_a_subj.30'
p1776
(dp1777
g1047
F1
sg1048
g1049
sg1050
g1051
(g8
S'\x1db\xb5\xd9\x9az\x05@'
tRp1778
sg1053
F0
sg1054
I01
sg1055
F0
ssS'SliceStep_v_C(trial_PE)[UU]_subj.19'
p1779
(dp1780
g1047
F1
sg1048
g1049
sg1050
g1051
(g8
S'\xc15\x99\x80\x0cH\xfc?'
tRp1781
sg1053
F0
sg1054
I01
sg1055
F0
ssS'SliceStep_a_subj.32'
p1782
(dp1783
g1047
F1
sg1048
g1049
sg1050
g1051
(g8
S'\xbf\xfb\x00o\xab\x00\xff?'
tRp1784
sg1053
F0
sg1054
I01
sg1055
F0
ssS'SliceStep_v_C(trial_PE)[UU]_subj.29'
p1785
(dp1786
g1047
F1
sg1048
g1049
sg1050
g1051
(g8
S'\xdf\x90vp\x00\xb9\xfc?'
tRp1787
sg1053
F0
sg1054
I01
sg1055
F0
ssS'SliceStep_v_C(trial_PE)[PU]_subj.18'
p1788
(dp1789
g1047
F1
sg1048
g1049
sg1050
g1051
(g8
S'O\x97\x9e\xce\xbb;\xff?'
tRp1790
sg1053
F0
sg1054
I01
sg1055
F0
ssS'SliceStep_v_C(trial_PE)[PU]_subj.19'
p1791
(dp1792
g1047
F1
sg1048
g1049
sg1050
g1051
(g8
S',\x85U\x82\xf10\xfc?'
tRp1793
sg1053
F0
sg1054
I01
sg1055
F0
ssS'SliceStep_v_C(trial_PE)[PU]_subj.16'
p1794
(dp1795
g1047
F1
sg1048
g1049
sg1050
g1051
(g8
S'\xee\xb4\x9c\x90\x81\x94\xfc?'
tRp1796
sg1053
F0
sg1054
I01
sg1055
F0
ssS'SliceStep_v_C(trial_PE)[PU]_subj.17'
p1797
(dp1798
g1047
F1
sg1048
g1049
sg1050
g1051
(g8
S'\x15\xf8\x11X\xb4\xa0\xfc?'
tRp1799
sg1053
F0
sg1054
I01
sg1055
F0
ssS'SliceStep_v_C(trial_PE)[PU]_subj.14'
p1800
(dp1801
g1047
F1
sg1048
g1049
sg1050
g1051
(g8
S'\x1aak\xd1\xf6l\xfe?'
tRp1802
sg1053
F0
sg1054
I01
sg1055
F0
ssS'SliceStep_v_C(trial_PE)[PU]_subj.15'
p1803
(dp1804
g1047
F1
sg1048
g1049
sg1050
g1051
(g8
S'F\t$\xfb\xc0\x06\xff?'
tRp1805
sg1053
F0
sg1054
I01
sg1055
F0
ssS'SliceStep_v_C(trial_PE)[PU]_subj.12'
p1806
(dp1807
g1047
F1
sg1048
g1049
sg1050
g1051
(g8
S'\xaf\xc3~>;\xdb\xfc?'
tRp1808
sg1053
F0
sg1054
I01
sg1055
F0
ssS'SliceStep_v_C(trial_PE)[PU]_subj.13'
p1809
(dp1810
g1047
F1
sg1048
g1049
sg1050
g1051
(g8
S'\xcb\xa2l\x1e\xcd=\xfe?'
tRp1811
sg1053
F0
sg1054
I01
sg1055
F0
ssS'SliceStep_v_C(trial_PE)[PU]_subj.10'
p1812
(dp1813
g1047
F1
sg1048
g1049
sg1050
g1051
(g8
S'M\x98\xa5)\xb3\x17\xfe?'
tRp1814
sg1053
F0
sg1054
I01
sg1055
F0
ssS'SliceStep_v_C(trial_PE)[PU]_subj.11'
p1815
(dp1816
g1047
F1
sg1048
g1049
sg1050
g1051
(g8
S'\rG@\xf8\xdfI\xfd?'
tRp1817
sg1053
F0
sg1054
I01
sg1055
F0
ssS'SliceStep_v_C(trial_PE)[PP]_subj.19'
p1818
(dp1819
g1047
F1
sg1048
g1049
sg1050
g1051
(g8
S'\x89\x84\xc3\x01-\x90\xf4?'
tRp1820
sg1053
F0
sg1054
I01
sg1055
F0
ssS'SliceStep_t_C(trial_PE)[PU]_subj.19'
p1821
(dp1822
g1047
F1
sg1048
g1049
sg1050
g1051
(g8
S'M\x94\x0cW\x94@\xdd?'
tRp1823
sg1053
F0
sg1054
I01
sg1055
F0
ssS'SliceStep_v_C(trial_PE)[UP]_subj.22'
p1824
(dp1825
g1047
F1
sg1048
g1049
sg1050
g1051
(g8
S'g]\xa4]\x9e\xb8\xfd?'
tRp1826
sg1053
F0
sg1054
I01
sg1055
F0
ssS'SliceStep_t_C(trial_PE)[PU]_subj.10'
p1827
(dp1828
g1047
F1
sg1048
g1049
sg1050
g1051
(g8
S'\x0c:\xfc\x19=\x0e\xe3?'
tRp1829
sg1053
F0
sg1054
I01
sg1055
F0
ssS'SliceStep_v_C(trial_PE)[PP]_subj.10'
p1830
(dp1831
g1047
F1
sg1048
g1049
sg1050
g1051
(g8
S'\x7f\x1d\xbb\xd3\xc2\xae\xf6?'
tRp1832
sg1053
F0
sg1054
I01
sg1055
F0
ssS'SliceStep_t_C(trial_PE)[PU]_subj.12'
p1833
(dp1834
g1047
F1
sg1048
g1049
sg1050
g1051
(g8
S'\xf8\x05p\x97\xd8p\xe1?'
tRp1835
sg1053
F0
sg1054
I01
sg1055
F0
ssS'SliceStep_v_C(trial_PE)[PP]_subj.12'
p1836
(dp1837
g1047
F1
sg1048
g1049
sg1050
g1051
(g8
S']\x07\x85\x0f\xcel\xf4?'
tRp1838
sg1053
F0
sg1054
I01
sg1055
F0
ssS'SliceStep_t_C(trial_PE)[PU]_subj.14'
p1839
(dp1840
g1047
F1
sg1048
g1049
sg1050
g1051
(g8
S'<m\x0c\xc4\xe2d\xe1?'
tRp1841
sg1053
F0
sg1054
I01
sg1055
F0
ssS'SliceStep_v_C(trial_PE)[PP]_subj.14'
p1842
(dp1843
g1047
F1
sg1048
g1049
sg1050
g1051
(g8
S"H\x06\xecNr'\xf7?"
tRp1844
sg1053
F0
sg1054
I01
sg1055
F0
ssS'SliceStep_v_C(trial_PE)[PP]_subj.17'
p1845
(dp1846
g1047
F1
sg1048
g1049
sg1050
g1051
(g8
S'\xbd9\xccF;F\xf6?'
tRp1847
sg1053
F0
sg1054
I01
sg1055
F0
ssS'SliceStep_t_C(trial_PE)[PU]_subj.17'
p1848
(dp1849
g1047
F1
sg1048
g1049
sg1050
g1051
(g8
S'~\x02\x9bP\x06|\xdb?'
tRp1850
sg1053
F0
sg1054
I01
sg1055
F0
ssS'SliceStep_v_C(trial_PE)[UP]_subj.10'
p1851
(dp1852
g1047
F1
sg1048
g1049
sg1050
g1051
(g8
S'Y%\x82\xe1\xb3\x13\xfd?'
tRp1853
sg1053
F0
sg1054
I01
sg1055
F0
ssS'SliceStep_v_C(trial_PE)[UP]_subj.11'
p1854
(dp1855
g1047
F1
sg1048
g1049
sg1050
g1051
(g8
S'\xae\xdcn\xfe]\x0b\xfe?'
tRp1856
sg1053
F0
sg1054
I01
sg1055
F0
ssS'SliceStep_v_C(trial_PE)[UP]_subj.12'
p1857
(dp1858
g1047
F1
sg1048
g1049
sg1050
g1051
(g8
S'\x8b\xcf^\x02\xdc\x98\xfd?'
tRp1859
sg1053
F0
sg1054
I01
sg1055
F0
ssS'SliceStep_v_C(trial_PE)[UP]_subj.13'
p1860
(dp1861
g1047
F1
sg1048
g1049
sg1050
g1051
(g8
S'\xd7\xd2\xf5\xcd\x8eC\xfe?'
tRp1862
sg1053
F0
sg1054
I01
sg1055
F0
ssS'SliceStep_v_C(trial_PE)[UP]_subj.14'
p1863
(dp1864
g1047
F1
sg1048
g1049
sg1050
g1051
(g8
S'\x97\xe4\xcc\x83\xe1\x8c\xfd?'
tRp1865
sg1053
F0
sg1054
I01
sg1055
F0
ssS'SliceStep_v_C(trial_PE)[UP]_subj.15'
p1866
(dp1867
g1047
F1
sg1048
g1049
sg1050
g1051
(g8
S'R>@\x1f\xc9 \xff?'
tRp1868
sg1053
F0
sg1054
I01
sg1055
F0
ssS'SliceStep_v_C(trial_PE)[UP]_subj.16'
p1869
(dp1870
g1047
F1
sg1048
g1049
sg1050
g1051
(g8
S'/\xdb\x95\x13\x14\x04\xfd?'
tRp1871
sg1053
F0
sg1054
I01
sg1055
F0
ssS'SliceStep_v_C(trial_PE)[UP]_subj.17'
p1872
(dp1873
g1047
F1
sg1048
g1049
sg1050
g1051
(g8
S'\x0b:\xbd\xbf\xfd\xef\xfb?'
tRp1874
sg1053
F0
sg1054
I01
sg1055
F0
ssS'SliceStep_v_C(trial_PE)[PU]_std'
p1875
(dp1876
g1047
F1
sg1048
g1049
sg1050
g1051
(g8
S'\xeelZn\x19%\xb3?'
tRp1877
sg1053
F0
sg1054
I01
sg1055
F0
ssS'SliceStep_v_C(trial_PE)[UP]_subj.19'
p1878
(dp1879
g1047
F1
sg1048
g1049
sg1050
g1051
(g8
S'\xe1\xeb\xbc\xf9\x80a\xfb?'
tRp1880
sg1053
F0
sg1054
I01
sg1055
F0
ssS'SliceStep_v_C(trial_PE)[UP]_subj.28'
p1881
(dp1882
g1047
F1
sg1048
g1049
sg1050
g1051
(g8
S'\x9b\x05I9\xae\xfd\xfc?'
tRp1883
sg1053
F0
sg1054
I01
sg1055
F0
ssS'SliceStep_a_subj.11'
p1884
(dp1885
g1047
F1
sg1048
g1049
sg1050
g1051
(g8
S'\xa2\xe1\xcba\xe2}\x01@'
tRp1886
sg1053
F0
sg1054
I01
sg1055
F0
ssS'SliceStep_t_C(trial_PE)[PU]'
p1887
(dp1888
g1047
F1
sg1048
g1049
sg1050
g1051
(g8
S'-\xc3/\xe1\xd8\x9a\xdb?'
tRp1889
sg1053
F0
sg1054
I01
sg1055
F0
ssS'SliceStep_t_C(trial_PE)[PU]_subj.18'
p1890
(dp1891
g1047
F1
sg1048
g1049
sg1050
g1051
(g8
S'\xb9\xb7\x14\xce\xc4\xbe\xd7?'
tRp1892
sg1053
F0
sg1054
I01
sg1055
F0
ssS'SliceStep_v_C(trial_PE)[PU]_subj.8'
p1893
(dp1894
g1047
F1
sg1048
g1049
sg1050
g1051
(g8
S'L\xef4\x8f9\xf7\xfe?'
tRp1895
sg1053
F0
sg1054
I01
sg1055
F0
ssS'SliceStep_v_C(trial_PE)[PU]_subj.9'
p1896
(dp1897
g1047
F1
sg1048
g1049
sg1050
g1051
(g8
S'[\xa4\xc2\xc6U\r\xff?'
tRp1898
sg1053
F0
sg1054
I01
sg1055
F0
ssS'SliceStep_a_subj.28'
p1899
(dp1900
g1047
F1
sg1048
g1049
sg1050
g1051
(g8
S")\xbc'%T\xbb\x02@"
tRp1901
sg1053
F0
sg1054
I01
sg1055
F0
ssS'SliceStep_v_C(trial_PE)[PP]_subj.18'
p1902
(dp1903
g1047
F1
sg1048
g1049
sg1050
g1051
(g8
S'\x0b\n\x89\xb2\xde\x85\xfd?'
tRp1904
sg1053
F0
sg1054
I01
sg1055
F0
ssS'SliceStep_v_C(trial_PE)[PU]_subj.4'
p1905
(dp1906
g1047
F1
sg1048
g1049
sg1050
g1051
(g8
S'YCXAg<\xfe?'
tRp1907
sg1053
F0
sg1054
I01
sg1055
F0
ssS'SliceStep_v_C(trial_PE)[PU]_subj.5'
p1908
(dp1909
g1047
F1
sg1048
g1049
sg1050
g1051
(g8
S'_`\x9c\x16\xdb:\xff?'
tRp1910
sg1053
F0
sg1054
I01
sg1055
F0
ssS'SliceStep_a_subj.24'
p1911
(dp1912
g1047
F1
sg1048
g1049
sg1050
g1051
(g8
S'\x19\xb9<!\x80]\x01@'
tRp1913
sg1053
F0
sg1054
I01
sg1055
F0
ssS'SliceStep_v_C(trial_PE)[PU]_subj.7'
p1914
(dp1915
g1047
F1
sg1048
g1049
sg1050
g1051
(g8
S'\xa6R/qkj\xfd?'
tRp1916
sg1053
F0
sg1054
I01
sg1055
F0
ssS'SliceStep_a_subj.22'
p1917
(dp1918
g1047
F1
sg1048
g1049
sg1050
g1051
(g8
S'\x19\x05\xa8\xf3f\x88\x01@'
tRp1919
sg1053
F0
sg1054
I01
sg1055
F0
ssS'SliceStep_a_subj.23'
p1920
(dp1921
g1047
F1
sg1048
g1049
sg1050
g1051
(g8
S'\xd0\xa0\x95\x9e-c\x00@'
tRp1922
sg1053
F0
sg1054
I01
sg1055
F0
ssS'SliceStep_a_subj.20'
p1923
(dp1924
g1047
F1
sg1048
g1049
sg1050
g1051
(g8
S'%l\xf0\xa7\xf9\xf4\xfb?'
tRp1925
sg1053
F0
sg1054
I01
sg1055
F0
ssS'SliceStep_v_C(trial_PE)[PU]_subj.3'
p1926
(dp1927
g1047
F1
sg1048
g1049
sg1050
g1051
(g8
S'I\xbdHp\x1f\x84\xfe?'
tRp1928
sg1053
F0
sg1054
I01
sg1055
F0
ssS'SliceStep_v_C(trial_PE)[UP]_subj.29'
p1929
(dp1930
g1047
F1
sg1048
g1049
sg1050
g1051
(g8
S'\x99\xe6\x08\x17\xb6\xd1\xfc?'
tRp1931
sg1053
F0
sg1054
I01
sg1055
F0
ssS'SliceStep_t_C(trial_PE)[UU]_subj.7'
p1932
(dp1933
g1047
F1
sg1048
g1049
sg1050
g1051
(g8
S'\x89\x1fb3i\xb2\xe4?'
tRp1934
sg1053
F0
sg1054
I01
sg1055
F0
ssS'SliceStep_a_subj.29'
p1935
(dp1936
g1047
F1
sg1048
g1049
sg1050
g1051
(g8
S'd\xc9BD\x14\xc1\xfc?'
tRp1937
sg1053
F0
sg1054
I01
sg1055
F0
ssS'SliceStep_v_C(trial_PE)[PU]_subj.0'
p1938
(dp1939
g1047
F1
sg1048
g1049
sg1050
g1051
(g8
S'\xda\x1dp\x93H)\xfe?'
tRp1940
sg1053
F0
sg1054
I01
sg1055
F0
ssS'SliceStep_a'
p1941
(dp1942
g1047
F1
sg1048
g1049
sg1050
g1051
(g8
S'\\\xcfv\xac\x1c\xf0\x00@'
tRp1943
sg1053
F0
sg1054
I01
sg1055
F0
ssS'SliceStep_t_C(trial_PE)[PU]_subj.29'
p1944
(dp1945
g1047
F1
sg1048
g1049
sg1050
g1051
(g8
S'PM^_\x8f\xef\xd0?'
tRp1946
sg1053
F0
sg1054
I01
sg1055
F0
ssS'SliceStep_t_C(trial_PE)[PU]_subj.28'
p1947
(dp1948
g1047
F1
sg1048
g1049
sg1050
g1051
(g8
S'\xec\xd5\xc1\x83W\xdc\xd6?'
tRp1949
sg1053
F0
sg1054
I01
sg1055
F0
ssS'SliceStep_t_C(trial_PE)[UU]_subj.15'
p1950
(dp1951
g1047
F1
sg1048
g1049
sg1050
g1051
(g8
S'\xf6i\x7f\x96\xc15\xde?'
tRp1952
sg1053
F0
sg1054
I01
sg1055
F0
ssS'SliceStep_t_C(trial_PE)[PU]_subj.25'
p1953
(dp1954
g1047
F1
sg1048
g1049
sg1050
g1051
(g8
S',\xb1\xc9\xfe\xd1\xa3\xcb?'
tRp1955
sg1053
F0
sg1054
I01
sg1055
F0
ssS'SliceStep_t_C(trial_PE)[PU]_subj.24'
p1956
(dp1957
g1047
F1
sg1048
g1049
sg1050
g1051
(g8
S'\x9cIi;\x0c\xd2\xd5?'
tRp1958
sg1053
F0
sg1054
I01
sg1055
F0
ssS'SliceStep_t_C(trial_PE)[PU]_subj.27'
p1959
(dp1960
g1047
F1
sg1048
g1049
sg1050
g1051
(g8
S'M\xb25\xa5\xfeZ\xd6?'
tRp1961
sg1053
F0
sg1054
I01
sg1055
F0
ssS'SliceStep_t_C(trial_PE)[PU]_subj.26'
p1962
(dp1963
g1047
F1
sg1048
g1049
sg1050
g1051
(g8
S'\x8d\xbe\x1b\xa4\xa2\xbe\xd6?'
tRp1964
sg1053
F0
sg1054
I01
sg1055
F0
ssS'SliceStep_t_C(trial_PE)[PU]_subj.21'
p1965
(dp1966
g1047
F1
sg1048
g1049
sg1050
g1051
(g8
S'\x82\xbd\xaeI&@\xd2?'
tRp1967
sg1053
F0
sg1054
I01
sg1055
F0
ssS'SliceStep_t_C(trial_PE)[PU]_subj.20'
p1968
(dp1969
g1047
F1
sg1048
g1049
sg1050
g1051
(g8
S'F\x1d\xbf\xe9\x04\xa3\xd7?'
tRp1970
sg1053
F0
sg1054
I01
sg1055
F0
ssS'SliceStep_t_C(trial_PE)[PU]_subj.23'
p1971
(dp1972
g1047
F1
sg1048
g1049
sg1050
g1051
(g8
S'\xd4\nqt\x7f3\xd2?'
tRp1973
sg1053
F0
sg1054
I01
sg1055
F0
ssS'SliceStep_t_C(trial_PE)[PU]_subj.22'
p1974
(dp1975
g1047
F1
sg1048
g1049
sg1050
g1051
(g8
S'\xe5)\x9d\x880\xa3\xdc?'
tRp1976
sg1053
F0
sg1054
I01
sg1055
F0
ssS'SliceStep_v_C(trial_PE)[UP]_subj.25'
p1977
(dp1978
g1047
F1
sg1048
g1049
sg1050
g1051
(g8
S'\xc9\x06\xb3>\x98*\xfd?'
tRp1979
sg1053
F0
sg1054
I01
sg1055
F0
ssS'SliceStep_v_C(trial_PE)[UP]_subj.24'
p1980
(dp1981
g1047
F1
sg1048
g1049
sg1050
g1051
(g8
S'SR\x8e\xc59A\xfb?'
tRp1982
sg1053
F0
sg1054
I01
sg1055
F0
ssS'SliceStep_v_C(trial_PE)[UP]_subj.27'
p1983
(dp1984
g1047
F1
sg1048
g1049
sg1050
g1051
(g8
S'-\xa6\xbb\x87\x0e\x1d\xfd?'
tRp1985
sg1053
F0
sg1054
I01
sg1055
F0
ssS'SliceStep_v_C(trial_PE)[UP]_subj.26'
p1986
(dp1987
g1047
F1
sg1048
g1049
sg1050
g1051
(g8
S'\x9d\n\xd3\xba\xab\x1b\xfd?'
tRp1988
sg1053
F0
sg1054
I01
sg1055
F0
ssS'SliceStep_v_C(trial_PE)[UP]_subj.21'
p1989
(dp1990
g1047
F1
sg1048
g1049
sg1050
g1051
(g8
S'\x84\xc6\x0e\tj\xad\xfc?'
tRp1991
sg1053
F0
sg1054
I01
sg1055
F0
ssS'SliceStep_v_C(trial_PE)[UP]_subj.20'
p1992
(dp1993
g1047
F1
sg1048
g1049
sg1050
g1051
(g8
S'\x1dVX\xfb\x9fL\xff?'
tRp1994
sg1053
F0
sg1054
I01
sg1055
F0
ssS'SliceStep_v_C(trial_PE)[UP]_subj.23'
p1995
(dp1996
g1047
F1
sg1048
g1049
sg1050
g1051
(g8
S'\xc2\x1b\x95\xe5\x8dN\xfd?'
tRp1997
sg1053
F0
sg1054
I01
sg1055
F0
ssS'SliceStep_t_C(trial_PE)[PU]_subj.11'
p1998
(dp1999
g1047
F1
sg1048
g1049
sg1050
g1051
(g8
S'\x99\xe71U\xeaH\xda?'
tRp2000
sg1053
F0
sg1054
I01
sg1055
F0
ssS'SliceStep_t_C(trial_PE)[PP]_subj.31'
p2001
(dp2002
g1047
F1
sg1048
g1049
sg1050
g1051
(g8
S'q\xc5\x18X\xefP\xcb?'
tRp2003
sg1053
F0
sg1054
I01
sg1055
F0
ssS'SliceStep_v_C(trial_PE)[PP]_subj.13'
p2004
(dp2005
g1047
F1
sg1048
g1049
sg1050
g1051
(g8
S'.\x16\x1e>\xcc\xaa\xf9?'
tRp2006
sg1053
F0
sg1054
I01
sg1055
F0
ssS'SliceStep_v_C(trial_PE)[UP]_std'
p2007
(dp2008
g1047
F1
sg1048
g1049
sg1050
g1051
(g8
S'$ \xd5JX\xf5\xb4?'
tRp2009
sg1053
F0
sg1054
I01
sg1055
F0
ssS'SliceStep_t_C(trial_PE)[PP]_subj.32'
p2010
(dp2011
g1047
F1
sg1048
g1049
sg1050
g1051
(g8
S'M\x13\xe8C\xf3!\xd7?'
tRp2012
sg1053
F0
sg1054
I01
sg1055
F0
sssS'sampler'
p2013
(dp2014
S'status'
p2015
S'ready'
p2016
sS'_iter'
p2017
g1051
(g7
(S'i8'
I0
I1
tRp2018
(I3
S'<'
NNNI-1
I-1
I0
tbS"\x10'\x00\x00\x00\x00\x00\x00"
tRp2019
sS'_tune_interval'
p2020
I1000
sS'_tuned_count'
p2021
I0
sS'_tune_throughout'
p2022
I01
sS'_burn_till_tuned'
p2023
I00
sS'_current_iter'
p2024
I182
sS'_burn'
p2025
I1000
sS'_thin'
p2026
I5
sssg1033
(dp2027
I0
g4
(g5
(I0
tS'b'
tRp2028
(I1
(I0
tg8
I00
S''
tbssg928
(dp2029
I0
g4
(g5
(I0
tS'b'
tRp2030
(I1
(I0
tg8
I00
S''
tbssg963
(dp2031
I0
g4
(g5
(I0
tS'b'
tRp2032
(I1
(I0
tg8
I00
S''
tbssg965
(dp2033
I0
g4
(g5
(I0
tS'b'
tRp2034
(I1
(I0
tg8
I00
S''
tbssg703
(dp2035
I0
g4
(g5
(I0
tS'b'
tRp2036
(I1
(I0
tg8
I00
S''
tbssg968
(dp2037
I0
g4
(g5
(I0
tS'b'
tRp2038
(I1
(I0
tg8
I00
S''
tbssg970
(dp2039
I0
g4
(g5
(I0
tS'b'
tRp2040
(I1
(I0
tg8
I00
S''
tbssg598
(dp2041
I0
g4
(g5
(I0
tS'b'
tRp2042
(I1
(I0
tg8
I00
S''
tbssg973
(dp2043
I0
g4
(g5
(I0
tS'b'
tRp2044
(I1
(I0
tg8
I00
S''
tbssg975
(dp2045
I0
g4
(g5
(I0
tS'b'
tRp2046
(I1
(I0
tg8
I00
S''
tbssg977
(dp2047
I0
g4
(g5
(I0
tS'b'
tRp2048
(I1
(I0
tg8
I00
S''
tbssg979
(dp2049
I0
g4
(g5
(I0
tS'b'
tRp2050
(I1
(I0
tg8
I00
S''
tbssg981
(dp2051
I0
g4
(g5
(I0
tS'b'
tRp2052
(I1
(I0
tg8
I00
S''
tbssg983
(dp2053
I0
g4
(g5
(I0
tS'b'
tRp2054
(I1
(I0
tg8
I00
S''
tbssg985
(dp2055
I0
g4
(g5
(I0
tS'b'
tRp2056
(I1
(I0
tg8
I00
S''
tbssg987
(dp2057
I0
g4
(g5
(I0
tS'b'
tRp2058
(I1
(I0
tg8
I00
S''
tbssg989
(dp2059
I0
g4
(g5
(I0
tS'b'
tRp2060
(I1
(I0
tg8
I00
S''
tbssg991
(dp2061
I0
g4
(g5
(I0
tS'b'
tRp2062
(I1
(I0
tg8
I00
S''
tbssg994
(dp2063
I0
g4
(g5
(I0
tS'b'
tRp2064
(I1
(I0
tg8
I00
S''
tbssg996
(dp2065
I0
g4
(g5
(I0
tS'b'
tRp2066
(I1
(I0
tg8
I00
S''
tbssg998
(dp2067
I0
g4
(g5
(I0
tS'b'
tRp2068
(I1
(I0
tg8
I00
S''
tbssg1000
(dp2069
I0
g4
(g5
(I0
tS'b'
tRp2070
(I1
(I0
tg8
I00
S''
tbssg759
(dp2071
I0
g4
(g5
(I0
tS'b'
tRp2072
(I1
(I0
tg8
I00
S''
tbssg1003
(dp2073
I0
g4
(g5
(I0
tS'b'
tRp2074
(I1
(I0
tg8
I00
S''
tbssg1005
(dp2075
I0
g4
(g5
(I0
tS'b'
tRp2076
(I1
(I0
tg8
I00
S''
tbssg1007
(dp2077
I0
g4
(g5
(I0
tS'b'
tRp2078
(I1
(I0
tg8
I00
S''
tbssg1009
(dp2079
I0
g4
(g5
(I0
tS'b'
tRp2080
(I1
(I0
tg8
I00
S''
tbssg1011
(dp2081
I0
g4
(g5
(I0
tS'b'
tRp2082
(I1
(I0
tg8
I00
S''
tbssg1013
(dp2083
I0
g4
(g5
(I0
tS'b'
tRp2084
(I1
(I0
tg8
I00
S''
tbssg1015
(dp2085
I0
g4
(g5
(I0
tS'b'
tRp2086
(I1
(I0
tg8
I00
S''
tbssg560
(dp2087
I0
g4
(g5
(I0
tS'b'
tRp2088
(I1
(I0
tg8
I00
S''
tbssg562
(dp2089
I0
g4
(g5
(I0
tS'b'
tRp2090
(I1
(I0
tg8
I00
S''
tbssg564
(dp2091
I0
g4
(g5
(I0
tS'b'
tRp2092
(I1
(I0
tg8
I00
S''
tbssg566
(dp2093
I0
g4
(g5
(I0
tS'b'
tRp2094
(I1
(I0
tg8
I00
S''
tbssg1041
(dp2095
I0
g4
(g5
(I0
tS'b'
tRp2096
(I1
(I0
tg8
I00
S''
tbssg867
(dp2097
I0
g4
(g5
(I0
tS'b'
tRp2098
(I1
(I0
tg8
I00
S''
tbssg571
(dp2099
I0
g4
(g5
(I0
tS'b'
tRp2100
(I1
(I0
tg8
I00
S''
tbssg573
(dp2101
I0
g4
(g5
(I0
tS'b'
tRp2102
(I1
(I0
tg8
I00
S''
tbssg536
(dp2103
I0
g4
(g5
(I0
tS'b'
tRp2104
(I1
(I0
tg8
I00
S''
tbssg761
(dp2105
I0
g4
(g5
(I0
tS'b'
tRp2106
(I1
(I0
tg8
I00
S''
tbssg581
(dp2107
I0
g4
(g5
(I0
tS'b'
tRp2108
(I1
(I0
tg8
I00
S''
tbssg538
(dp2109
I0
g4
(g5
(I0
tS'b'
tRp2110
(I1
(I0
tg8
I00
S''
tbssg605
(dp2111
I0
g4
(g5
(I0
tS'b'
tRp2112
(I1
(I0
tg8
I00
S''
tbssg607
(dp2113
I0
g4
(g5
(I0
tS'b'
tRp2114
(I1
(I0
tg8
I00
S''
tbssg613
(dp2115
I0
g4
(g5
(I0
tS'b'
tRp2116
(I1
(I0
tg8
I00
S''
tbssg676
(dp2117
I0
g4
(g5
(I0
tS'b'
tRp2118
(I1
(I0
tg8
I00
S''
tbssg678
(dp2119
I0
g4
(g5
(I0
tS'b'
tRp2120
(I1
(I0
tg8
I00
S''
tbssg680
(dp2121
I0
g4
(g5
(I0
tS'b'
tRp2122
(I1
(I0
tg8
I00
S''
tbssg860
(dp2123
I0
g4
(g5
(I0
tS'b'
tRp2124
(I1
(I0
tg8
I00
S''
tbssg577
(dp2125
I0
g4
(g5
(I0
tS'b'
tRp2126
(I1
(I0
tg8
I00
S''
tbssg913
(dp2127
I0
g4
(g5
(I0
tS'b'
tRp2128
(I1
(I0
tg8
I00
S''
tbssg828
(dp2129
I0
g4
(g5
(I0
tS'b'
tRp2130
(I1
(I0
tg8
I00
S''
tbssg749
(dp2131
I0
g4
(g5
(I0
tS'b'
tRp2132
(I1
(I0
tg8
I00
S''
tbssg600
(dp2133
I0
g4
(g5
(I0
tS'b'
tRp2134
(I1
(I0
tg8
I00
S''
tbssg706
(dp2135
I0
g4
(g5
(I0
tS'b'
tRp2136
(I1
(I0
tg8
I00
S''
tbssg708
(dp2137
I0
g4
(g5
(I0
tS'b'
tRp2138
(I1
(I0
tg8
I00
S''
tbssg710
(dp2139
I0
g4
(g5
(I0
tS'b'
tRp2140
(I1
(I0
tg8
I00
S''
tbssg712
(dp2141
I0
g4
(g5
(I0
tS'b'
tRp2142
(I1
(I0
tg8
I00
S''
tbssg714
(dp2143
I0
g4
(g5
(I0
tS'b'
tRp2144
(I1
(I0
tg8
I00
S''
tbssg716
(dp2145
I0
g4
(g5
(I0
tS'b'
tRp2146
(I1
(I0
tg8
I00
S''
tbssg915
(dp2147
I0
g4
(g5
(I0
tS'b'
tRp2148
(I1
(I0
tg8
I00
S''
tbssg719
(dp2149
I0
g4
(g5
(I0
tS'b'
tRp2150
(I1
(I0
tg8
I00
S''
tbssg721
(dp2151
I0
g4
(g5
(I0
tS'b'
tRp2152
(I1
(I0
tg8
I00
S''
tbssg723
(dp2153
I0
g4
(g5
(I0
tS'b'
tRp2154
(I1
(I0
tg8
I00
S''
tbssg725
(dp2155
I0
g4
(g5
(I0
tS'b'
tRp2156
(I1
(I0
tg8
I00
S''
tbssg727
(dp2157
I0
g4
(g5
(I0
tS'b'
tRp2158
(I1
(I0
tg8
I00
S''
tbssg754
(dp2159
I0
g4
(g5
(I0
tS'b'
tRp2160
(I1
(I0
tg8
I00
S''
tbssg770
(dp2161
I0
g4
(g5
(I0
tS'b'
tRp2162
(I1
(I0
tg8
I00
S''
tbssg772
(dp2163
I0
g4
(g5
(I0
tS'b'
tRp2164
(I1
(I0
tg8
I00
S''
tbssg776
(dp2165
I0
g4
(g5
(I0
tS'b'
tRp2166
(I1
(I0
tg8
I00
S''
tbssg778
(dp2167
I0
g4
(g5
(I0
tS'b'
tRp2168
(I1
(I0
tg8
I00
S''
tbssg780
(dp2169
I0
g4
(g5
(I0
tS'b'
tRp2170
(I1
(I0
tg8
I00
S''
tbssg782
(dp2171
I0
g4
(g5
(I0
tS'b'
tRp2172
(I1
(I0
tg8
I00
S''
tbssg784
(dp2173
I0
g4
(g5
(I0
tS'b'
tRp2174
(I1
(I0
tg8
I00
S''
tbssg786
(dp2175
I0
g4
(g5
(I0
tS'b'
tRp2176
(I1
(I0
tg8
I00
S''
tbssg788
(dp2177
I0
g4
(g5
(I0
tS'b'
tRp2178
(I1
(I0
tg8
I00
S''
tbssg790
(dp2179
I0
g4
(g5
(I0
tS'b'
tRp2180
(I1
(I0
tg8
I00
S''
tbssg611
(dp2181
I0
g4
(g5
(I0
tS'b'
tRp2182
(I1
(I0
tg8
I00
S''
tbssg793
(dp2183
I0
g4
(g5
(I0
tS'b'
tRp2184
(I1
(I0
tg8
I00
S''
tbssg795
(dp2185
I0
g4
(g5
(I0
tS'b'
tRp2186
(I1
(I0
tg8
I00
S''
tbssg660
(dp2187
I0
g4
(g5
(I0
tS'b'
tRp2188
(I1
(I0
tg8
I00
S''
tbssg684
(dp2189
I0
g4
(g5
(I0
tS'b'
tRp2190
(I1
(I0
tg8
I00
S''
tbssg1019
(dp2191
I0
g4
(g5
(I0
tS'b'
tRp2192
(I1
(I0
tg8
I00
S''
tbssg800
(dp2193
I0
g4
(g5
(I0
tS'b'
tRp2194
(I1
(I0
tg8
I00
S''
tbssg673
(dp2195
I0
g4
(g5
(I0
tS'b'
tRp2196
(I1
(I0
tg8
I00
S''
tbssg803
(dp2197
I0
g4
(g5
(I0
tS'b'
tRp2198
(I1
(I0
tg8
I00
S''
tbssg805
(dp2199
I0
g4
(g5
(I0
tS'b'
tRp2200
(I1
(I0
tg8
I00
S''
tbssg811
(dp2201
I0
g4
(g5
(I0
tS'b'
tRp2202
(I1
(I0
tg8
I00
S''
tbssg883
(dp2203
I0
g4
(g5
(I0
tS'b'
tRp2204
(I1
(I0
tg8
I00
S''
tbssg890
(dp2205
I0
g4
(g5
(I0
tS'b'
tRp2206
(I1
(I0
tg8
I00
S''
tbssg1025
(dp2207
I0
g4
(g5
(I0
tS'b'
tRp2208
(I1
(I0
tg8
I00
S''
tbssg609
(dp2209
I0
g4
(g5
(I0
tS'b'
tRp2210
(I1
(I0
tg8
I00
S''
tbssg615
(dp2211
I0
g4
(g5
(I0
tS'b'
tRp2212
(I1
(I0
tg8
I00
S''
tbssg594
(dp2213
I0
g4
(g5
(I0
tS'b'
tRp2214
(I1
(I0
tg8
I00
S''
tbssg872
(dp2215
I0
g4
(g5
(I0
tS'b'
tRp2216
(I1
(I0
tg8
I00
S''
tbssg874
(dp2217
I0
g4
(g5
(I0
tS'b'
tRp2218
(I1
(I0
tg8
I00
S''
tbssg876
(dp2219
I0
g4
(g5
(I0
tS'b'
tRp2220
(I1
(I0
tg8
I00
S''
tbssg878
(dp2221
I0
g4
(g5
(I0
tS'b'
tRp2222
(I1
(I0
tg8
I00
S''
tbssg880
(dp2223
I0
g4
(g5
(I0
tS'b'
tRp2224
(I1
(I0
tg8
I00
S''
tbssg865
(dp2225
I0
g4
(g5
(I0
tS'b'
tRp2226
(I1
(I0
tg8
I00
S''
tbssg887
(dp2227
I0
g4
(g5
(I0
tS'b'
tRp2228
(I1
(I0
tg8
I00
S''
tbssg909
(dp2229
I0
g4
(g5
(I0
tS'b'
tRp2230
(I1
(I0
tg8
I00
S''
tbssS't_reg.32'
p2231
(dp2232
I0
g4
(g5
(I0
tS'b'
tRp2233
(I1
(I0
I597
I1
tg8
I00
S''
tbssS't_reg.30'
p2234
(dp2235
I0
g4
(g5
(I0
tS'b'
tRp2236
(I1
(I0
I544
I1
tg8
I00
S''
tbssS't_reg.31'
p2237
(dp2238
I0
g4
(g5
(I0
tS'b'
tRp2239
(I1
(I0
I595
I1
tg8
I00
S''
tbssg932
(dp2240
I0
g4
(g5
(I0
tS'b'
tRp2241
(I1
(I0
tg8
I00
S''
tbssg934
(dp2242
I0
g4
(g5
(I0
tS'b'
tRp2243
(I1
(I0
tg8
I00
S''
tbssg936
(dp2244
I0
g4
(g5
(I0
tS'b'
tRp2245
(I1
(I0
tg8
I00
S''
tbssg938
(dp2246
I0
g4
(g5
(I0
tS'b'
tRp2247
(I1
(I0
tg8
I00
S''
tbssg940
(dp2248
I0
g4
(g5
(I0
tS'b'
tRp2249
(I1
(I0
tg8
I00
S''
tbssg942
(dp2250
I0
g4
(g5
(I0
tS'b'
tRp2251
(I1
(I0
tg8
I00
S''
tbssg944
(dp2252
I0
g4
(g5
(I0
tS'b'
tRp2253
(I1
(I0
tg8
I00
S''
tbssg946
(dp2254
I0
g4
(g5
(I0
tS'b'
tRp2255
(I1
(I0
tg8
I00
S''
tbssg950
(dp2256
I0
g4
(g5
(I0
tS'b'
tRp2257
(I1
(I0
tg8
I00
S''
tbssg952
(dp2258
I0
g4
(g5
(I0
tS'b'
tRp2259
(I1
(I0
tg8
I00
S''
tbssg1031
(dp2260
I0
g4
(g5
(I0
tS'b'
tRp2261
(I1
(I0
tg8
I00
S''
tbssg1037
(dp2262
I0
g4
(g5
(I0
tS'b'
tRp2263
(I1
(I0
tg8
I00
S''
tbssg1039
(dp2264
I0
g4
(g5
(I0
tS'b'
tRp2265
(I1
(I0
tg8
I00
S''
tbssg1027
(dp2266
I0
g4
(g5
(I0
tS'b'
tRp2267
(I1
(I0
tg8
I00
S''
tbssg528
(dp2268
I0
g4
(g5
(I0
tS'b'
tRp2269
(I1
(I0
tg8
I00
S''
tbssg530
(dp2270
I0
g4
(g5
(I0
tS'b'
tRp2271
(I1
(I0
tg8
I00
S''
tbssg532
(dp2272
I0
g4
(g5
(I0
tS'b'
tRp2273
(I1
(I0
tg8
I00
S''
tbssg534
(dp2274
I0
g4
(g5
(I0
tS'b'
tRp2275
(I1
(I0
tg8
I00
S''
tbssg917
(dp2276
I0
g4
(g5
(I0
tS'b'
tRp2277
(I1
(I0
tg8
I00
S''
tbssg584
(dp2278
I0
g4
(g5
(I0
tS'b'
tRp2279
(I1
(I0
tg8
I00
S''
tbssg540
(dp2280
I0
g4
(g5
(I0
tS'b'
tRp2281
(I1
(I0
tg8
I00
S''
tbssg542
(dp2282
I0
g4
(g5
(I0
tS'b'
tRp2283
(I1
(I0
tg8
I00
S''
tbssg544
(dp2284
I0
g4
(g5
(I0
tS'b'
tRp2285
(I1
(I0
tg8
I00
S''
tbssg546
(dp2286
I0
g4
(g5
(I0
tS'b'
tRp2287
(I1
(I0
tg8
I00
S''
tbssg548
(dp2288
I0
g4
(g5
(I0
tS'b'
tRp2289
(I1
(I0
tg8
I00
S''
tbssg550
(dp2290
I0
g4
(g5
(I0
tS'b'
tRp2291
(I1
(I0
tg8
I00
S''
tbssg552
(dp2292
I0
g4
(g5
(I0
tS'b'
tRp2293
(I1
(I0
tg8
I00
S''
tbssg554
(dp2294
I0
g4
(g5
(I0
tS'b'
tRp2295
(I1
(I0
tg8
I00
S''
tbssg556
(dp2296
I0
g4
(g5
(I0
tS'b'
tRp2297
(I1
(I0
tg8
I00
S''
tbssg558
(dp2298
I0
g4
(g5
(I0
tS'b'
tRp2299
(I1
(I0
tg8
I00
S''
tbssg568
(dp2300
I0
g4
(g5
(I0
tS'b'
tRp2301
(I1
(I0
tg8
I00
S''
tbssg885
(dp2302
I0
g4
(g5
(I0
tS'b'
tRp2303
(I1
(I0
tg8
I00
S''
tbssg919
(dp2304
I0
g4
(g5
(I0
tS'b'
tRp2305
(I1
(I0
tg8
I00
S''
tbssg645
(dp2306
I0
g4
(g5
(I0
tS'b'
tRp2307
(I1
(I0
tg8
I00
S''
tbssg587
(dp2308
I0
g4
(g5
(I0
tS'b'
tRp2309
(I1
(I0
tg8
I00
S''
tbssg589
(dp2310
I0
g4
(g5
(I0
tS'b'
tRp2311
(I1
(I0
tg8
I00
S''
tbssg592
(dp2312
I0
g4
(g5
(I0
tS'b'
tRp2313
(I1
(I0
tg8
I00
S''
tbssg596
(dp2314
I0
g4
(g5
(I0
tS'b'
tRp2315
(I1
(I0
tg8
I00
S''
tbssg622
(dp2316
I0
g4
(g5
(I0
tS'b'
tRp2317
(I1
(I0
tg8
I00
S''
tbssg624
(dp2318
I0
g4
(g5
(I0
tS'b'
tRp2319
(I1
(I0
tg8
I00
S''
tbssg626
(dp2320
I0
g4
(g5
(I0
tS'b'
tRp2321
(I1
(I0
tg8
I00
S''
tbssg628
(dp2322
I0
g4
(g5
(I0
tS'b'
tRp2323
(I1
(I0
tg8
I00
S''
tbssg630
(dp2324
I0
g4
(g5
(I0
tS'b'
tRp2325
(I1
(I0
tg8
I00
S''
tbssg632
(dp2326
I0
g4
(g5
(I0
tS'b'
tRp2327
(I1
(I0
tg8
I00
S''
tbssg634
(dp2328
I0
g4
(g5
(I0
tS'b'
tRp2329
(I1
(I0
tg8
I00
S''
tbssg636
(dp2330
I0
g4
(g5
(I0
tS'b'
tRp2331
(I1
(I0
tg8
I00
S''
tbssg638
(dp2332
I0
g4
(g5
(I0
tS'b'
tRp2333
(I1
(I0
tg8
I00
S''
tbssg602
(dp2334
I0
g4
(g5
(I0
tS'b'
tRp2335
(I1
(I0
tg8
I00
S''
tbssS'deviance'
p2336
(dp2337
I0
g4
(g5
(I0
tS'b'
tRp2338
(I1
(I0
tg8
I00
S''
tbssS't_reg.18'
p2339
(dp2340
I0
g4
(g5
(I0
tS'b'
tRp2341
(I1
(I0
I599
I1
tg8
I00
S''
tbssS't_reg.19'
p2342
(dp2343
I0
g4
(g5
(I0
tS'b'
tRp2344
(I1
(I0
I590
I1
tg8
I00
S''
tbssg1035
(dp2345
I0
g4
(g5
(I0
tS'b'
tRp2346
(I1
(I0
tg8
I00
S''
tbssg807
(dp2347
I0
g4
(g5
(I0
tS'b'
tRp2348
(I1
(I0
tg8
I00
S''
tbssg809
(dp2349
I0
g4
(g5
(I0
tS'b'
tRp2350
(I1
(I0
tg8
I00
S''
tbssg729
(dp2351
I0
g4
(g5
(I0
tS'b'
tRp2352
(I1
(I0
tg8
I00
S''
tbssg731
(dp2353
I0
g4
(g5
(I0
tS'b'
tRp2354
(I1
(I0
tg8
I00
S''
tbssg733
(dp2355
I0
g4
(g5
(I0
tS'b'
tRp2356
(I1
(I0
tg8
I00
S''
tbssg735
(dp2357
I0
g4
(g5
(I0
tS'b'
tRp2358
(I1
(I0
tg8
I00
S''
tbssg737
(dp2359
I0
g4
(g5
(I0
tS'b'
tRp2360
(I1
(I0
tg8
I00
S''
tbssg739
(dp2361
I0
g4
(g5
(I0
tS'b'
tRp2362
(I1
(I0
tg8
I00
S''
tbssg741
(dp2363
I0
g4
(g5
(I0
tS'b'
tRp2364
(I1
(I0
tg8
I00
S''
tbssg743
(dp2365
I0
g4
(g5
(I0
tS'b'
tRp2366
(I1
(I0
tg8
I00
S''
tbssg745
(dp2367
I0
g4
(g5
(I0
tS'b'
tRp2368
(I1
(I0
tg8
I00
S''
tbssg747
(dp2369
I0
g4
(g5
(I0
tS'b'
tRp2370
(I1
(I0
tg8
I00
S''
tbssS'v_reg.30'
p2371
(dp2372
I0
g4
(g5
(I0
tS'b'
tRp2373
(I1
(I0
I544
I1
tg8
I00
S''
tbssS'v_reg.31'
p2374
(dp2375
I0
g4
(g5
(I0
tS'b'
tRp2376
(I1
(I0
I595
I1
tg8
I00
S''
tbssS'v_reg.32'
p2377
(dp2378
I0
g4
(g5
(I0
tS'b'
tRp2379
(I1
(I0
I597
I1
tg8
I00
S''
tbssg768
(dp2380
I0
g4
(g5
(I0
tS'b'
tRp2381
(I1
(I0
tg8
I00
S''
tbssg824
(dp2382
I0
g4
(g5
(I0
tS'b'
tRp2383
(I1
(I0
tg8
I00
S''
tbssg826
(dp2384
I0
g4
(g5
(I0
tS'b'
tRp2385
(I1
(I0
tg8
I00
S''
tbssg830
(dp2386
I0
g4
(g5
(I0
tS'b'
tRp2387
(I1
(I0
tg8
I00
S''
tbssg832
(dp2388
I0
g4
(g5
(I0
tS'b'
tRp2389
(I1
(I0
tg8
I00
S''
tbssg834
(dp2390
I0
g4
(g5
(I0
tS'b'
tRp2391
(I1
(I0
tg8
I00
S''
tbssg836
(dp2392
I0
g4
(g5
(I0
tS'b'
tRp2393
(I1
(I0
tg8
I00
S''
tbssg838
(dp2394
I0
g4
(g5
(I0
tS'b'
tRp2395
(I1
(I0
tg8
I00
S''
tbssg840
(dp2396
I0
g4
(g5
(I0
tS'b'
tRp2397
(I1
(I0
tg8
I00
S''
tbssg842
(dp2398
I0
g4
(g5
(I0
tS'b'
tRp2399
(I1
(I0
tg8
I00
S''
tbssg844
(dp2400
I0
g4
(g5
(I0
tS'b'
tRp2401
(I1
(I0
tg8
I00
S''
tbssg846
(dp2402
I0
g4
(g5
(I0
tS'b'
tRp2403
(I1
(I0
tg8
I00
S''
tbssg848
(dp2404
I0
g4
(g5
(I0
tS'b'
tRp2405
(I1
(I0
tg8
I00
S''
tbssg850
(dp2406
I0
g4
(g5
(I0
tS'b'
tRp2407
(I1
(I0
tg8
I00
S''
tbssg852
(dp2408
I0
g4
(g5
(I0
tS'b'
tRp2409
(I1
(I0
tg8
I00
S''
tbssg854
(dp2410
I0
g4
(g5
(I0
tS'b'
tRp2411
(I1
(I0
tg8
I00
S''
tbssg856
(dp2412
I0
g4
(g5
(I0
tS'b'
tRp2413
(I1
(I0
tg8
I00
S''
tbssg858
(dp2414
I0
g4
(g5
(I0
tS'b'
tRp2415
(I1
(I0
tg8
I00
S''
tbssg948
(dp2416
I0
g4
(g5
(I0
tS'b'
tRp2417
(I1
(I0
tg8
I00
S''
tbssg752
(dp2418
I0
g4
(g5
(I0
tS'b'
tRp2419
(I1
(I0
tg8
I00
S''
tbssg863
(dp2420
I0
g4
(g5
(I0
tS'b'
tRp2421
(I1
(I0
tg8
I00
S''
tbssg893
(dp2422
I0
g4
(g5
(I0
tS'b'
tRp2423
(I1
(I0
tg8
I00
S''
tbssg895
(dp2424
I0
g4
(g5
(I0
tS'b'
tRp2425
(I1
(I0
tg8
I00
S''
tbssg897
(dp2426
I0
g4
(g5
(I0
tS'b'
tRp2427
(I1
(I0
tg8
I00
S''
tbssg899
(dp2428
I0
g4
(g5
(I0
tS'b'
tRp2429
(I1
(I0
tg8
I00
S''
tbssg901
(dp2430
I0
g4
(g5
(I0
tS'b'
tRp2431
(I1
(I0
tg8
I00
S''
tbssg903
(dp2432
I0
g4
(g5
(I0
tS'b'
tRp2433
(I1
(I0
tg8
I00
S''
tbssg905
(dp2434
I0
g4
(g5
(I0
tS'b'
tRp2435
(I1
(I0
tg8
I00
S''
tbssg907
(dp2436
I0
g4
(g5
(I0
tS'b'
tRp2437
(I1
(I0
tg8
I00
S''
tbssg764
(dp2438
I0
g4
(g5
(I0
tS'b'
tRp2439
(I1
(I0
tg8
I00
S''
tbssg911
(dp2440
I0
g4
(g5
(I0
tS'b'
tRp2441
(I1
(I0
tg8
I00
S''
tbssg662
(dp2442
I0
g4
(g5
(I0
tS'b'
tRp2443
(I1
(I0
tg8
I00
S''
tbssS't_reg.25'
p2444
(dp2445
I0
g4
(g5
(I0
tS'b'
tRp2446
(I1
(I0
I397
I1
tg8
I00
S''
tbssS't_reg.24'
p2447
(dp2448
I0
g4
(g5
(I0
tS'b'
tRp2449
(I1
(I0
I574
I1
tg8
I00
S''
tbssS't_reg.27'
p2450
(dp2451
I0
g4
(g5
(I0
tS'b'
tRp2452
(I1
(I0
I470
I1
tg8
I00
S''
tbssS't_reg.26'
p2453
(dp2454
I0
g4
(g5
(I0
tS'b'
tRp2455
(I1
(I0
I573
I1
tg8
I00
S''
tbssS't_reg.21'
p2456
(dp2457
I0
g4
(g5
(I0
tS'b'
tRp2458
(I1
(I0
I374
I1
tg8
I00
S''
tbssS't_reg.20'
p2459
(dp2460
I0
g4
(g5
(I0
tS'b'
tRp2461
(I1
(I0
I361
I1
tg8
I00
S''
tbssS't_reg.23'
p2462
(dp2463
I0
g4
(g5
(I0
tS'b'
tRp2464
(I1
(I0
I599
I1
tg8
I00
S''
tbssS't_reg.22'
p2465
(dp2466
I0
g4
(g5
(I0
tS'b'
tRp2467
(I1
(I0
I394
I1
tg8
I00
S''
tbssS't_reg.29'
p2468
(dp2469
I0
g4
(g5
(I0
tS'b'
tRp2470
(I1
(I0
I598
I1
tg8
I00
S''
tbssS't_reg.28'
p2471
(dp2472
I0
g4
(g5
(I0
tS'b'
tRp2473
(I1
(I0
I594
I1
tg8
I00
S''
tbss.