(dp1
S'v_C(trial_PE)[UU]_subj.2'
p2
(dp3
I0
cnumpy.core.multiarray
_reconstruct
p4
(cnumpy
ndarray
p5
(I0
tS'b'
tRp6
(I1
(I0
tcnumpy
dtype
p7
(S'f8'
I0
I1
tRp8
(I3
S'<'
NNNI-1
I-1
I0
tbI00
S''
tbssS'v_C(trial_PE)[UU]_subj.3'
p9
(dp10
I0
g4
(g5
(I0
tS'b'
tRp11
(I1
(I0
tg8
I00
S''
tbssS'v_C(trial_PE)[UU]_subj.0'
p12
(dp13
I0
g4
(g5
(I0
tS'b'
tRp14
(I1
(I0
tg8
I00
S''
tbssS'v_C(trial_PE)[UU]_subj.1'
p15
(dp16
I0
g4
(g5
(I0
tS'b'
tRp17
(I1
(I0
tg8
I00
S''
tbssS't_C(trial_PE)[PP]_subj.29'
p18
(dp19
I0
g4
(g5
(I0
tS'b'
tRp20
(I1
(I0
tg8
I00
S''
tbssS't_C(trial_PE)[PP]_subj.28'
p21
(dp22
I0
g4
(g5
(I0
tS'b'
tRp23
(I1
(I0
tg8
I00
S''
tbssS'v_C(trial_PE)[UU]_subj.4'
p24
(dp25
I0
g4
(g5
(I0
tS'b'
tRp26
(I1
(I0
tg8
I00
S''
tbssS'v_C(trial_PE)[UU]_subj.5'
p27
(dp28
I0
g4
(g5
(I0
tS'b'
tRp29
(I1
(I0
tg8
I00
S''
tbssS't_C(trial_PE)[PP]_subj.25'
p30
(dp31
I0
g4
(g5
(I0
tS'b'
tRp32
(I1
(I0
tg8
I00
S''
tbssS't_C(trial_PE)[PP]_subj.24'
p33
(dp34
I0
g4
(g5
(I0
tS'b'
tRp35
(I1
(I0
tg8
I00
S''
tbssS't_C(trial_PE)[PP]_subj.27'
p36
(dp37
I0
g4
(g5
(I0
tS'b'
tRp38
(I1
(I0
tg8
I00
S''
tbssS't_C(trial_PE)[PP]_subj.26'
p39
(dp40
I0
g4
(g5
(I0
tS'b'
tRp41
(I1
(I0
tg8
I00
S''
tbssS't_C(trial_PE)[PP]_subj.21'
p42
(dp43
I0
g4
(g5
(I0
tS'b'
tRp44
(I1
(I0
tg8
I00
S''
tbssS't_C(trial_PE)[PP]_subj.20'
p45
(dp46
I0
g4
(g5
(I0
tS'b'
tRp47
(I1
(I0
tg8
I00
S''
tbssS't_C(trial_PE)[PP]_subj.23'
p48
(dp49
I0
g4
(g5
(I0
tS'b'
tRp50
(I1
(I0
tg8
I00
S''
tbssS't_C(trial_PE)[PP]_subj.22'
p51
(dp52
I0
g4
(g5
(I0
tS'b'
tRp53
(I1
(I0
tg8
I00
S''
tbssS'v_C(trial_PE)[PU]_subj.15'
p54
(dp55
I0
g4
(g5
(I0
tS'b'
tRp56
(I1
(I0
tg8
I00
S''
tbssS'v_C(trial_PE)[PU]_subj.14'
p57
(dp58
I0
g4
(g5
(I0
tS'b'
tRp59
(I1
(I0
tg8
I00
S''
tbssS'v_C(trial_PE)[PU]_subj.17'
p60
(dp61
I0
g4
(g5
(I0
tS'b'
tRp62
(I1
(I0
tg8
I00
S''
tbssS'v_C(trial_PE)[PU]_subj.16'
p63
(dp64
I0
g4
(g5
(I0
tS'b'
tRp65
(I1
(I0
tg8
I00
S''
tbssS'v_C(trial_PE)[PU]_subj.11'
p66
(dp67
I0
g4
(g5
(I0
tS'b'
tRp68
(I1
(I0
tg8
I00
S''
tbssS'v_C(trial_PE)[PU]_subj.10'
p69
(dp70
I0
g4
(g5
(I0
tS'b'
tRp71
(I1
(I0
tg8
I00
S''
tbssS'v_C(trial_PE)[PU]_subj.13'
p72
(dp73
I0
g4
(g5
(I0
tS'b'
tRp74
(I1
(I0
tg8
I00
S''
tbssS'v_C(trial_PE)[PU]_subj.12'
p75
(dp76
I0
g4
(g5
(I0
tS'b'
tRp77
(I1
(I0
tg8
I00
S''
tbssS'v_C(trial_PE)[UP]_subj.3'
p78
(dp79
I0
g4
(g5
(I0
tS'b'
tRp80
(I1
(I0
tg8
I00
S''
tbssS'v_pupil_response_1'
p81
(dp82
I0
g4
(g5
(I0
tS'b'
tRp83
(I1
(I0
tg8
I00
S''
tbssS'v_C(trial_PE)[UP]_subj.1'
p84
(dp85
I0
g4
(g5
(I0
tS'b'
tRp86
(I1
(I0
tg8
I00
S''
tbssS't_C(trial_PE)[UP]_subj.16'
p87
(dp88
I0
g4
(g5
(I0
tS'b'
tRp89
(I1
(I0
tg8
I00
S''
tbssS'v_C(trial_PE)[UP]_subj.7'
p90
(dp91
I0
g4
(g5
(I0
tS'b'
tRp92
(I1
(I0
tg8
I00
S''
tbssS't_C(trial_PE)[UP]_subj.10'
p93
(dp94
I0
g4
(g5
(I0
tS'b'
tRp95
(I1
(I0
tg8
I00
S''
tbssS't_C(trial_PE)[UU]_subj.2'
p96
(dp97
I0
g4
(g5
(I0
tS'b'
tRp98
(I1
(I0
tg8
I00
S''
tbssS't_C(trial_PE)[UU]_subj.3'
p99
(dp100
I0
g4
(g5
(I0
tS'b'
tRp101
(I1
(I0
tg8
I00
S''
tbssS'v_C(trial_PE)[T.PU]:pupil_response_1'
p102
(dp103
I0
g4
(g5
(I0
tS'b'
tRp104
(I1
(I0
tg8
I00
S''
tbssS't_C(trial_PE)[UU]_subj.5'
p105
(dp106
I0
g4
(g5
(I0
tS'b'
tRp107
(I1
(I0
tg8
I00
S''
tbssS'v_C(trial_PE)[UU]_subj.7'
p108
(dp109
I0
g4
(g5
(I0
tS'b'
tRp110
(I1
(I0
tg8
I00
S''
tbssS'v_C(trial_PE)[UP]_subj.30'
p111
(dp112
I0
g4
(g5
(I0
tS'b'
tRp113
(I1
(I0
tg8
I00
S''
tbssS't_C(trial_PE)[PU]_subj.19'
p114
(dp115
I0
g4
(g5
(I0
tS'b'
tRp116
(I1
(I0
tg8
I00
S''
tbssS'v_C(trial_PE)[UP]_subj.32'
p117
(dp118
I0
g4
(g5
(I0
tS'b'
tRp119
(I1
(I0
tg8
I00
S''
tbssS'v_C(trial_PE)[PP]_subj.6'
p120
(dp121
I0
g4
(g5
(I0
tS'b'
tRp122
(I1
(I0
tg8
I00
S''
tbssS'v_C(trial_PE)[UP]'
p123
(dp124
I0
g4
(g5
(I0
tS'b'
tRp125
(I1
(I0
tg8
I00
S''
tbssS'v_C(trial_PE)[UP]_subj.16'
p126
(dp127
I0
g4
(g5
(I0
tS'b'
tRp128
(I1
(I0
tg8
I00
S''
tbssS'v_C(trial_PE)[UU]_subj.8'
p129
(dp130
I0
g4
(g5
(I0
tS'b'
tRp131
(I1
(I0
tg8
I00
S''
tbssS'v_C(trial_PE)[PP]_std'
p132
(dp133
I0
g4
(g5
(I0
tS'b'
tRp134
(I1
(I0
tg8
I00
S''
tbssS'v_C(trial_PE)[PP]_subj.4'
p135
(dp136
I0
g4
(g5
(I0
tS'b'
tRp137
(I1
(I0
tg8
I00
S''
tbssS'v_C(trial_PE)[UU]_subj.9'
p138
(dp139
I0
g4
(g5
(I0
tS'b'
tRp140
(I1
(I0
tg8
I00
S''
tbssS't_C(trial_PE)[UU]_std'
p141
(dp142
I0
g4
(g5
(I0
tS'b'
tRp143
(I1
(I0
tg8
I00
S''
tbssS'v_C(trial_PE)[PP]_subj.5'
p144
(dp145
I0
g4
(g5
(I0
tS'b'
tRp146
(I1
(I0
tg8
I00
S''
tbssS't_C(trial_PE)[PP]_subj.32'
p147
(dp148
I0
g4
(g5
(I0
tS'b'
tRp149
(I1
(I0
tg8
I00
S''
tbssS'v_C(trial_PE)[UU]_subj.23'
p150
(dp151
I0
g4
(g5
(I0
tS'b'
tRp152
(I1
(I0
tg8
I00
S''
tbssS't_C(trial_PE)[PP]_subj.30'
p153
(dp154
I0
g4
(g5
(I0
tS'b'
tRp155
(I1
(I0
tg8
I00
S''
tbssS't_C(trial_PE)[PP]_subj.31'
p156
(dp157
I0
g4
(g5
(I0
tS'b'
tRp158
(I1
(I0
tg8
I00
S''
tbssS'v_C(trial_PE)[UP]_subj.29'
p159
(dp160
I0
g4
(g5
(I0
tS'b'
tRp161
(I1
(I0
tg8
I00
S''
tbssS'a_subj.29'
p162
(dp163
I0
g4
(g5
(I0
tS'b'
tRp164
(I1
(I0
tg8
I00
S''
tbssS'a_subj.28'
p165
(dp166
I0
g4
(g5
(I0
tS'b'
tRp167
(I1
(I0
tg8
I00
S''
tbssS'a_subj.25'
p168
(dp169
I0
g4
(g5
(I0
tS'b'
tRp170
(I1
(I0
tg8
I00
S''
tbssS'a_subj.24'
p171
(dp172
I0
g4
(g5
(I0
tS'b'
tRp173
(I1
(I0
tg8
I00
S''
tbssS'a_subj.27'
p174
(dp175
I0
g4
(g5
(I0
tS'b'
tRp176
(I1
(I0
tg8
I00
S''
tbssS'a_subj.26'
p177
(dp178
I0
g4
(g5
(I0
tS'b'
tRp179
(I1
(I0
tg8
I00
S''
tbssS'a_subj.21'
p180
(dp181
I0
g4
(g5
(I0
tS'b'
tRp182
(I1
(I0
tg8
I00
S''
tbssS'a_subj.20'
p183
(dp184
I0
g4
(g5
(I0
tS'b'
tRp185
(I1
(I0
tg8
I00
S''
tbssS'a_subj.23'
p186
(dp187
I0
g4
(g5
(I0
tS'b'
tRp188
(I1
(I0
tg8
I00
S''
tbssS'a_subj.22'
p189
(dp190
I0
g4
(g5
(I0
tS'b'
tRp191
(I1
(I0
tg8
I00
S''
tbssS'v_C(trial_PE)[UU]_subj.21'
p192
(dp193
I0
g4
(g5
(I0
tS'b'
tRp194
(I1
(I0
tg8
I00
S''
tbssS'v_C(trial_PE)[UU]_subj.20'
p195
(dp196
I0
g4
(g5
(I0
tS'b'
tRp197
(I1
(I0
tg8
I00
S''
tbssS'v_C(trial_PE)[UP]_subj.28'
p198
(dp199
I0
g4
(g5
(I0
tS'b'
tRp200
(I1
(I0
tg8
I00
S''
tbssS'v_C(trial_PE)[UU]_subj.22'
p201
(dp202
I0
g4
(g5
(I0
tS'b'
tRp203
(I1
(I0
tg8
I00
S''
tbssS'v_C(trial_PE)[UU]_subj.25'
p204
(dp205
I0
g4
(g5
(I0
tS'b'
tRp206
(I1
(I0
tg8
I00
S''
tbssS'v_C(trial_PE)[UU]_subj.24'
p207
(dp208
I0
g4
(g5
(I0
tS'b'
tRp209
(I1
(I0
tg8
I00
S''
tbssS'v_C(trial_PE)[UU]_subj.27'
p210
(dp211
I0
g4
(g5
(I0
tS'b'
tRp212
(I1
(I0
tg8
I00
S''
tbssS'deviance'
p213
(dp214
I0
g4
(g5
(I0
tS'b'
tRp215
(I1
(I0
tg8
I00
S''
tbssS'v_C(trial_PE)[UU]_subj.29'
p216
(dp217
I0
g4
(g5
(I0
tS'b'
tRp218
(I1
(I0
tg8
I00
S''
tbssS'v_C(trial_PE)[UP]_subj.23'
p219
(dp220
I0
g4
(g5
(I0
tS'b'
tRp221
(I1
(I0
tg8
I00
S''
tbssS'v_C(trial_PE)[UP]_subj.20'
p222
(dp223
I0
g4
(g5
(I0
tS'b'
tRp224
(I1
(I0
tg8
I00
S''
tbssS'v_C(trial_PE)[UU]_subj.26'
p225
(dp226
I0
g4
(g5
(I0
tS'b'
tRp227
(I1
(I0
tg8
I00
S''
tbssS'v_C(trial_PE)[UP]_subj.26'
p228
(dp229
I0
g4
(g5
(I0
tS'b'
tRp230
(I1
(I0
tg8
I00
S''
tbssS'v_C(trial_PE)[UP]_subj.9'
p231
(dp232
I0
g4
(g5
(I0
tS'b'
tRp233
(I1
(I0
tg8
I00
S''
tbssS'v_C(trial_PE)[UP]_subj.24'
p234
(dp235
I0
g4
(g5
(I0
tS'b'
tRp236
(I1
(I0
tg8
I00
S''
tbssS'v_C(trial_PE)[UP]_subj.25'
p237
(dp238
I0
g4
(g5
(I0
tS'b'
tRp239
(I1
(I0
tg8
I00
S''
tbssS'v_C(trial_PE)[UP]_subj.22'
p240
(dp241
I0
g4
(g5
(I0
tS'b'
tRp242
(I1
(I0
tg8
I00
S''
tbssS'v_C(trial_PE)[UP]_subj.8'
p243
(dp244
I0
g4
(g5
(I0
tS'b'
tRp245
(I1
(I0
tg8
I00
S''
tbssS't_C(trial_PE)[UU]_subj.25'
p246
(dp247
I0
g4
(g5
(I0
tS'b'
tRp248
(I1
(I0
tg8
I00
S''
tbssS'v_C(trial_PE)[UU]_subj.28'
p249
(dp250
I0
g4
(g5
(I0
tS'b'
tRp251
(I1
(I0
tg8
I00
S''
tbssS'v_C(trial_PE)[PP]_subj.30'
p252
(dp253
I0
g4
(g5
(I0
tS'b'
tRp254
(I1
(I0
tg8
I00
S''
tbssS't_C(trial_PE)[UU]_subj.24'
p255
(dp256
I0
g4
(g5
(I0
tS'b'
tRp257
(I1
(I0
tg8
I00
S''
tbssS't_C(trial_PE)[UP]_subj.18'
p258
(dp259
I0
g4
(g5
(I0
tS'b'
tRp260
(I1
(I0
tg8
I00
S''
tbssS't_C(trial_PE)[PU]_std'
p261
(dp262
I0
g4
(g5
(I0
tS'b'
tRp263
(I1
(I0
tg8
I00
S''
tbssS'a_std'
p264
(dp265
I0
g4
(g5
(I0
tS'b'
tRp266
(I1
(I0
tg8
I00
S''
tbssS'v_C(trial_PE)[UP]_subj.21'
p267
(dp268
I0
g4
(g5
(I0
tS'b'
tRp269
(I1
(I0
tg8
I00
S''
tbssS'v_C(trial_PE)[PP]_subj.32'
p270
(dp271
I0
g4
(g5
(I0
tS'b'
tRp272
(I1
(I0
tg8
I00
S''
tbssS'v_C(trial_PE)[PP]_subj.1'
p273
(dp274
I0
g4
(g5
(I0
tS'b'
tRp275
(I1
(I0
tg8
I00
S''
tbssS'v_C(trial_PE)[PP]_subj.8'
p276
(dp277
I0
g4
(g5
(I0
tS'b'
tRp278
(I1
(I0
tg8
I00
S''
tbssS't_C(trial_PE)[PP]_subj.1'
p279
(dp280
I0
g4
(g5
(I0
tS'b'
tRp281
(I1
(I0
tg8
I00
S''
tbssS'v_C(trial_PE)[UP]_subj.27'
p282
(dp283
I0
g4
(g5
(I0
tS'b'
tRp284
(I1
(I0
tg8
I00
S''
tbssS't_C(trial_PE)[UU]_subj.4'
p285
(dp286
I0
g4
(g5
(I0
tS'b'
tRp287
(I1
(I0
tg8
I00
S''
tbssS't_C(trial_PE)[UP]_subj.31'
p288
(dp289
I0
g4
(g5
(I0
tS'b'
tRp290
(I1
(I0
tg8
I00
S''
tbssS't_C(trial_PE)[UP]_subj.30'
p291
(dp292
I0
g4
(g5
(I0
tS'b'
tRp293
(I1
(I0
tg8
I00
S''
tbssS't_C(trial_PE)[UP]_subj.15'
p294
(dp295
I0
g4
(g5
(I0
tS'b'
tRp296
(I1
(I0
tg8
I00
S''
tbssS'v_C(trial_PE)[UP]_subj.2'
p297
(dp298
I0
g4
(g5
(I0
tS'b'
tRp299
(I1
(I0
tg8
I00
S''
tbssS'a_subj.32'
p300
(dp301
I0
g4
(g5
(I0
tS'b'
tRp302
(I1
(I0
tg8
I00
S''
tbssS't_C(trial_PE)[UU]_subj.6'
p303
(dp304
I0
g4
(g5
(I0
tS'b'
tRp305
(I1
(I0
tg8
I00
S''
tbssS'a_subj.30'
p306
(dp307
I0
g4
(g5
(I0
tS'b'
tRp308
(I1
(I0
tg8
I00
S''
tbssS'v_C(trial_PE)[T.UU]:pupil_response_1'
p309
(dp310
I0
g4
(g5
(I0
tS'b'
tRp311
(I1
(I0
tg8
I00
S''
tbssS'v_C(trial_PE)[UU]_subj.32'
p312
(dp313
I0
g4
(g5
(I0
tS'b'
tRp314
(I1
(I0
tg8
I00
S''
tbssS'v_C(trial_PE)[UU]_subj.30'
p315
(dp316
I0
g4
(g5
(I0
tS'b'
tRp317
(I1
(I0
tg8
I00
S''
tbssS'v_C(trial_PE)[UP]_subj.0'
p318
(dp319
I0
g4
(g5
(I0
tS'b'
tRp320
(I1
(I0
tg8
I00
S''
tbssS'a_subj.0'
p321
(dp322
I0
g4
(g5
(I0
tS'b'
tRp323
(I1
(I0
tg8
I00
S''
tbssS'v_C(trial_PE)[UP]_subj.19'
p324
(dp325
I0
g4
(g5
(I0
tS'b'
tRp326
(I1
(I0
tg8
I00
S''
tbssS'v_C(trial_PE)[UP]_subj.18'
p327
(dp328
I0
g4
(g5
(I0
tS'b'
tRp329
(I1
(I0
tg8
I00
S''
tbssS'v_C(trial_PE)[UP]_subj.17'
p330
(dp331
I0
g4
(g5
(I0
tS'b'
tRp332
(I1
(I0
tg8
I00
S''
tbssS't_C(trial_PE)[UP]_subj.11'
p333
(dp334
I0
g4
(g5
(I0
tS'b'
tRp335
(I1
(I0
tg8
I00
S''
tbssS'v_C(trial_PE)[UP]_subj.15'
p336
(dp337
I0
g4
(g5
(I0
tS'b'
tRp338
(I1
(I0
tg8
I00
S''
tbssS'v_C(trial_PE)[UP]_subj.14'
p339
(dp340
I0
g4
(g5
(I0
tS'b'
tRp341
(I1
(I0
tg8
I00
S''
tbssS'v_C(trial_PE)[UP]_subj.13'
p342
(dp343
I0
g4
(g5
(I0
tS'b'
tRp344
(I1
(I0
tg8
I00
S''
tbssS'v_C(trial_PE)[UP]_subj.12'
p345
(dp346
I0
g4
(g5
(I0
tS'b'
tRp347
(I1
(I0
tg8
I00
S''
tbssS'v_C(trial_PE)[UP]_subj.11'
p348
(dp349
I0
g4
(g5
(I0
tS'b'
tRp350
(I1
(I0
tg8
I00
S''
tbssS't_C(trial_PE)[UU]_subj.1'
p351
(dp352
I0
g4
(g5
(I0
tS'b'
tRp353
(I1
(I0
tg8
I00
S''
tbssS't_C(trial_PE)[UP]_subj.14'
p354
(dp355
I0
g4
(g5
(I0
tS'b'
tRp356
(I1
(I0
tg8
I00
S''
tbssS'v_C(trial_PE)[UP]_subj.5'
p357
(dp358
I0
g4
(g5
(I0
tS'b'
tRp359
(I1
(I0
tg8
I00
S''
tbssS'v_C(trial_PE)[UP]_subj.4'
p360
(dp361
I0
g4
(g5
(I0
tS'b'
tRp362
(I1
(I0
tg8
I00
S''
tbssS't_C(trial_PE)[PP]_subj.14'
p363
(dp364
I0
g4
(g5
(I0
tS'b'
tRp365
(I1
(I0
tg8
I00
S''
tbssS't_C(trial_PE)[PP]_subj.15'
p366
(dp367
I0
g4
(g5
(I0
tS'b'
tRp368
(I1
(I0
tg8
I00
S''
tbssS't_C(trial_PE)[PP]_subj.16'
p369
(dp370
I0
g4
(g5
(I0
tS'b'
tRp371
(I1
(I0
tg8
I00
S''
tbssS't_C(trial_PE)[PP]_subj.17'
p372
(dp373
I0
g4
(g5
(I0
tS'b'
tRp374
(I1
(I0
tg8
I00
S''
tbssS't_C(trial_PE)[PP]_subj.10'
p375
(dp376
I0
g4
(g5
(I0
tS'b'
tRp377
(I1
(I0
tg8
I00
S''
tbssS't_C(trial_PE)[PP]_subj.11'
p378
(dp379
I0
g4
(g5
(I0
tS'b'
tRp380
(I1
(I0
tg8
I00
S''
tbssS't_C(trial_PE)[PP]_subj.12'
p381
(dp382
I0
g4
(g5
(I0
tS'b'
tRp383
(I1
(I0
tg8
I00
S''
tbssS't_C(trial_PE)[PP]_subj.13'
p384
(dp385
I0
g4
(g5
(I0
tS'b'
tRp386
(I1
(I0
tg8
I00
S''
tbssS't_C(trial_PE)[PP]_subj.18'
p387
(dp388
I0
g4
(g5
(I0
tS'b'
tRp389
(I1
(I0
tg8
I00
S''
tbssS't_C(trial_PE)[PP]_subj.19'
p390
(dp391
I0
g4
(g5
(I0
tS'b'
tRp392
(I1
(I0
tg8
I00
S''
tbssS't_C(trial_PE)[UP]'
p393
(dp394
I0
g4
(g5
(I0
tS'b'
tRp395
(I1
(I0
tg8
I00
S''
tbssS't_C(trial_PE)[UP]_subj.24'
p396
(dp397
I0
g4
(g5
(I0
tS'b'
tRp398
(I1
(I0
tg8
I00
S''
tbssS't_C(trial_PE)[UP]_subj.25'
p399
(dp400
I0
g4
(g5
(I0
tS'b'
tRp401
(I1
(I0
tg8
I00
S''
tbssS't_C(trial_PE)[UP]_subj.26'
p402
(dp403
I0
g4
(g5
(I0
tS'b'
tRp404
(I1
(I0
tg8
I00
S''
tbssS't_C(trial_PE)[UP]_subj.27'
p405
(dp406
I0
g4
(g5
(I0
tS'b'
tRp407
(I1
(I0
tg8
I00
S''
tbssS't_C(trial_PE)[UP]_subj.20'
p408
(dp409
I0
g4
(g5
(I0
tS'b'
tRp410
(I1
(I0
tg8
I00
S''
tbssS't_C(trial_PE)[UP]_subj.21'
p411
(dp412
I0
g4
(g5
(I0
tS'b'
tRp413
(I1
(I0
tg8
I00
S''
tbssS't_C(trial_PE)[UP]_subj.22'
p414
(dp415
I0
g4
(g5
(I0
tS'b'
tRp416
(I1
(I0
tg8
I00
S''
tbssS't_C(trial_PE)[UP]_subj.23'
p417
(dp418
I0
g4
(g5
(I0
tS'b'
tRp419
(I1
(I0
tg8
I00
S''
tbssS'a_subj.9'
p420
(dp421
I0
g4
(g5
(I0
tS'b'
tRp422
(I1
(I0
tg8
I00
S''
tbssS't_C(trial_PE)[UP]_subj.28'
p423
(dp424
I0
g4
(g5
(I0
tS'b'
tRp425
(I1
(I0
tg8
I00
S''
tbssS't_C(trial_PE)[UP]_subj.29'
p426
(dp427
I0
g4
(g5
(I0
tS'b'
tRp428
(I1
(I0
tg8
I00
S''
tbssS'v_C(trial_PE)[UP]_subj.6'
p429
(dp430
I0
g4
(g5
(I0
tS'b'
tRp431
(I1
(I0
tg8
I00
S''
tbssS'v_C(trial_PE)[T.UP]:pupil_response_1'
p432
(dp433
I0
g4
(g5
(I0
tS'b'
tRp434
(I1
(I0
tg8
I00
S''
tbssS'v_C(trial_PE)[PU]_subj.32'
p435
(dp436
I0
g4
(g5
(I0
tS'b'
tRp437
(I1
(I0
tg8
I00
S''
tbssS'v_C(trial_PE)[PU]_subj.31'
p438
(dp439
I0
g4
(g5
(I0
tS'b'
tRp440
(I1
(I0
tg8
I00
S''
tbssS'v_C(trial_PE)[PU]_subj.30'
p441
(dp442
I0
g4
(g5
(I0
tS'b'
tRp443
(I1
(I0
tg8
I00
S''
tbssS't_C(trial_PE)[UP]_subj.32'
p444
(dp445
I0
g4
(g5
(I0
tS'b'
tRp446
(I1
(I0
tg8
I00
S''
tbssS'v_C(trial_PE)[PP]_subj.21'
p447
(dp448
I0
g4
(g5
(I0
tS'b'
tRp449
(I1
(I0
tg8
I00
S''
tbssS'v_C(trial_PE)[PU]_subj.19'
p450
(dp451
I0
g4
(g5
(I0
tS'b'
tRp452
(I1
(I0
tg8
I00
S''
tbssS't_C(trial_PE)[UU]_subj.0'
p453
(dp454
I0
g4
(g5
(I0
tS'b'
tRp455
(I1
(I0
tg8
I00
S''
tbssS'v_C(trial_PE)[UP]_subj.31'
p456
(dp457
I0
g4
(g5
(I0
tS'b'
tRp458
(I1
(I0
tg8
I00
S''
tbssS'v_C(trial_PE)[PP]_subj.0'
p459
(dp460
I0
g4
(g5
(I0
tS'b'
tRp461
(I1
(I0
tg8
I00
S''
tbssS'_state_'
p462
(dp463
S'stochastics'
p464
(dp465
g2
g4
(g5
(I0
tS'b'
tRp466
(I1
(tg8
I00
S'\xe4\x0e02XI\xf9?'
tbsg9
g4
(g5
(I0
tS'b'
tRp467
(I1
(tg8
I00
S'D*K\x88\x0e\xbc\xfa?'
tbsg12
g4
(g5
(I0
tS'b'
tRp468
(I1
(tg8
I00
S'\xf7\x9c\xe2\xad\xa7|\xfb?'
tbsg15
g4
(g5
(I0
tS'b'
tRp469
(I1
(tg8
I00
S'\xfexp\xa4\xdcI\xf1?'
tbsS'v_C(trial_PE)[UU]_subj.6'
p470
g4
(g5
(I0
tS'b'
tRp471
(I1
(tg8
I00
S'F>.\xd39@\xfe?'
tbsg108
g4
(g5
(I0
tS'b'
tRp472
(I1
(tg8
I00
S'X\xe6\\\xc5\x00T\xf7?'
tbsg24
g4
(g5
(I0
tS'b'
tRp473
(I1
(tg8
I00
S'\xa0\xadce\xddu\xfc?'
tbsg27
g4
(g5
(I0
tS'b'
tRp474
(I1
(tg8
I00
S'\xbf\x11\x04(\x83\x9e\xfb?'
tbsg30
g4
(g5
(I0
tS'b'
tRp475
(I1
(tg8
I00
S'\x06\x035\x9e\x94\x0c\xda?'
tbsg33
g4
(g5
(I0
tS'b'
tRp476
(I1
(tg8
I00
S'\xc2"_\n>\xa2\xd1?'
tbsg36
g4
(g5
(I0
tS'b'
tRp477
(I1
(tg8
I00
S'\xa1\xa7\xef\xac\x03\x9d\xd7?'
tbsg138
g4
(g5
(I0
tS'b'
tRp478
(I1
(tg8
I00
S'\x96L\xe0\xa0\xb6j\xf8?'
tbsg42
g4
(g5
(I0
tS'b'
tRp479
(I1
(tg8
I00
S'\x9e\xda\x8fEFi\xd1?'
tbsg45
g4
(g5
(I0
tS'b'
tRp480
(I1
(tg8
I00
S'MC\x81z\x06\xee\xd4?'
tbsg48
g4
(g5
(I0
tS'b'
tRp481
(I1
(tg8
I00
S'\x88RN\\-\x84\xcb?'
tbsg51
g4
(g5
(I0
tS'b'
tRp482
(I1
(tg8
I00
S'}\xc2,&\xbb\xcc\xd9?'
tbsg54
g4
(g5
(I0
tS'b'
tRp483
(I1
(tg8
I00
S'\xb3\xaf\x1e\xaa\x92\x89\xf4?'
tbsg57
g4
(g5
(I0
tS'b'
tRp484
(I1
(tg8
I00
S'<\x93\xb9\x99\x89r\xef?'
tbsg60
g4
(g5
(I0
tS'b'
tRp485
(I1
(tg8
I00
S'\xd34k\xda2v\xe0?'
tbsg63
g4
(g5
(I0
tS'b'
tRp486
(I1
(tg8
I00
S'\xce\xe6\xd3\xb8\xc4G\xfb?'
tbsg66
g4
(g5
(I0
tS'b'
tRp487
(I1
(tg8
I00
S'\xfaT\xaa\x15\x12v\xdc?'
tbsS'v_C(trial_PE)[PP]_subj.31'
p488
g4
(g5
(I0
tS'b'
tRp489
(I1
(tg8
I00
S'n\xb7=\xbd\xe2\x89\xe7?'
tbsg72
g4
(g5
(I0
tS'b'
tRp490
(I1
(tg8
I00
S'8\x94J85\xaf\xf4?'
tbsg75
g4
(g5
(I0
tS'b'
tRp491
(I1
(tg8
I00
S'\xf3\xbfd\xe9a\xc0\xea?'
tbsg294
g4
(g5
(I0
tS'b'
tRp492
(I1
(tg8
I00
S'0\x97\xc3Ae\xb6\xda?'
tbsg81
g4
(g5
(I0
tS'b'
tRp493
(I1
(tg8
I00
S'\xd8\xf5x=\x8b\xd5\x7f?'
tbsS't_C(trial_PE)[UP]_subj.17'
p494
g4
(g5
(I0
tS'b'
tRp495
(I1
(tg8
I00
S'\xc0\x1f41\x92|\xd8?'
tbsg87
g4
(g5
(I0
tS'b'
tRp496
(I1
(tg8
I00
S' \xd1\x9dH\xd0\xa6\xd7?'
tbsg453
g4
(g5
(I0
tS'b'
tRp497
(I1
(tg8
I00
S'\xfd6\xb0\x91\xb8\xc1\xe5?'
tbsS'v_C(trial_PE)[PU]_subj.18'
p498
g4
(g5
(I0
tS'b'
tRp499
(I1
(tg8
I00
S'\xe1>M\x1c?\xdf\xfe?'
tbsS't_C(trial_PE)[UP]_subj.19'
p500
g4
(g5
(I0
tS'b'
tRp501
(I1
(tg8
I00
S'\x0e\xee\xfedP\xc4\xda?'
tbsS't_C(trial_PE)[UP]_subj.12'
p502
g4
(g5
(I0
tS'b'
tRp503
(I1
(tg8
I00
S'\xb3[\x08\x07U\x8d\xe1?'
tbsS'v_C(trial_PE)[UU]_subj.15'
p504
g4
(g5
(I0
tS'b'
tRp505
(I1
(tg8
I00
S'\x12\x17\xa5\xaf\xae]\xf7?'
tbsS't_C(trial_PE)[UU]'
p506
g4
(g5
(I0
tS'b'
tRp507
(I1
(tg8
I00
S'I\xbc\x84\x05\xa5,\xdb?'
tbsg456
g4
(g5
(I0
tS'b'
tRp508
(I1
(tg8
I00
S'BL%sw\xcf\xfa?'
tbsg111
g4
(g5
(I0
tS'b'
tRp509
(I1
(tg8
I00
S'F\x05\xa7\xf7\xab\xc4\xf1?'
tbsS'v_C(trial_PE)[UP]_subj.10'
p510
g4
(g5
(I0
tS'b'
tRp511
(I1
(tg8
I00
S'\x9b9\x01\x0c \xb4\xf4?'
tbsg117
g4
(g5
(I0
tS'b'
tRp512
(I1
(tg8
I00
S',\xfa\x87\xb2!t\xf7?'
tbsS'a_subj.12'
p513
g4
(g5
(I0
tS'b'
tRp514
(I1
(tg8
I00
S'>\xee\x0b\xf5`\x92\x01@'
tbsg120
g4
(g5
(I0
tS'b'
tRp515
(I1
(tg8
I00
S'\xae\xb7I\x88\xdf\xd9\xa8?'
tbsg285
g4
(g5
(I0
tS'b'
tRp516
(I1
(tg8
I00
S'm\x11c\x98d\xdf\xda?'
tbsS't_C(trial_PE)[PU]_subj.10'
p517
g4
(g5
(I0
tS'b'
tRp518
(I1
(tg8
I00
S'$\xe9>\xac\x7f\x16\xe1?'
tbsg357
g4
(g5
(I0
tS'b'
tRp519
(I1
(tg8
I00
S'\xa6\xbf\xb8\xa3\xa6C\xf6?'
tbsg189
g4
(g5
(I0
tS'b'
tRp520
(I1
(tg8
I00
S'\xfc\xc3a\x98a\x8a\x01@'
tbsg258
g4
(g5
(I0
tS'b'
tRp521
(I1
(tg8
I00
S'\x95\xef\xd7\x02\x04\xad\xd7?'
tbsg129
g4
(g5
(I0
tS'b'
tRp522
(I1
(tg8
I00
S'(\xef"\x1c\xf3\xf4\xef?'
tbsg333
g4
(g5
(I0
tS'b'
tRp523
(I1
(tg8
I00
S'G\x9avlV~\xdd?'
tbsg135
g4
(g5
(I0
tS'b'
tRp524
(I1
(tg8
I00
S'\xb8\xab\x14\xf7n\xa5\xe8?'
tbsS'a_subj.14'
p525
g4
(g5
(I0
tS'b'
tRp526
(I1
(tg8
I00
S'>:\xfcC*Z\x02@'
tbsg39
g4
(g5
(I0
tS'b'
tRp527
(I1
(tg8
I00
S'\xa8\xf6\x99\xc8e2\xd3?'
tbsg144
g4
(g5
(I0
tS'b'
tRp528
(I1
(tg8
I00
S']\xe2H\xcf\x82\x16\xf2?'
tbsg147
g4
(g5
(I0
tS'b'
tRp529
(I1
(tg8
I00
S'\x18\xf4^\xa1g\xd0\xd6?'
tbsg150
g4
(g5
(I0
tS'b'
tRp530
(I1
(tg8
I00
S'\xd2M\x12\xca5?\xef?'
tbsg153
g4
(g5
(I0
tS'b'
tRp531
(I1
(tg8
I00
S'\xd9\xd8FWc+\xc5?'
tbsg156
g4
(g5
(I0
tS'b'
tRp532
(I1
(tg8
I00
S'\x850\xdf\xc8VV\xc9?'
tbsg201
g4
(g5
(I0
tS'b'
tRp533
(I1
(tg8
I00
S'O\xc2\x935\xfbL\xf2?'
tbsg162
g4
(g5
(I0
tS'b'
tRp534
(I1
(tg8
I00
S'\x91X\xc5\xb1\xd8\xa9\xfa?'
tbsg165
g4
(g5
(I0
tS'b'
tRp535
(I1
(tg8
I00
S"\x8b\x90'\xc3i0\x02@"
tbsg168
g4
(g5
(I0
tS'b'
tRp536
(I1
(tg8
I00
S'4\x0c\x9a\xec\xdb\xdc\x01@'
tbsg171
g4
(g5
(I0
tS'b'
tRp537
(I1
(tg8
I00
S'\x14\xd8\xfc\x9c\xe9\x0f\x01@'
tbsg174
g4
(g5
(I0
tS'b'
tRp538
(I1
(tg8
I00
S'\xcc\xccfj>i\x05@'
tbsg177
g4
(g5
(I0
tS'b'
tRp539
(I1
(tg8
I00
S'\xf9\xecG\x8b_\r\x01@'
tbsg180
g4
(g5
(I0
tS'b'
tRp540
(I1
(tg8
I00
S'~\x12\x11\x02\x8d\x02\x02@'
tbsg183
g4
(g5
(I0
tS'b'
tRp541
(I1
(tg8
I00
S'\x9f\x87\xf7\xcdi\xf0\xf9?'
tbsg186
g4
(g5
(I0
tS'b'
tRp542
(I1
(tg8
I00
S'V\xa9\x87_\x82w\xff?'
tbsS't_C(trial_PE)[UU]_subj.13'
p543
g4
(g5
(I0
tS'b'
tRp544
(I1
(tg8
I00
S'z\xa0\xb1\x96\xc4L\xdb?'
tbsg192
g4
(g5
(I0
tS'b'
tRp545
(I1
(tg8
I00
S'\xdd?No\xfaf\xf8?'
tbsg195
g4
(g5
(I0
tS'b'
tRp546
(I1
(tg8
I00
S'Jh9Q;\x95\xfe?'
tbsg198
g4
(g5
(I0
tS'b'
tRp547
(I1
(tg8
I00
S'\x86\xc6\x87\xb0\x11\xf1\xf5?'
tbsg159
g4
(g5
(I0
tS'b'
tRp548
(I1
(tg8
I00
S'\x1d$\x12\xe3\x04\xb2\xf7?'
tbsg204
g4
(g5
(I0
tS'b'
tRp549
(I1
(tg8
I00
S'/\x92\xbb\xffn\x97\xf5?'
tbsg207
g4
(g5
(I0
tS'b'
tRp550
(I1
(tg8
I00
S'\x01\xc6\xe7a\xda\x86\xe8?'
tbsg210
g4
(g5
(I0
tS'b'
tRp551
(I1
(tg8
I00
S'\x16\xe4\x89r\xfd\xc8\xeb?'
tbsg225
g4
(g5
(I0
tS'b'
tRp552
(I1
(tg8
I00
S'\xd3\xe5\xba\xd2\xf8\x0c\xfb?'
tbsg240
g4
(g5
(I0
tS'b'
tRp553
(I1
(tg8
I00
S'$q\xd8\xda\x93\xbf\xf8?'
tbsg219
g4
(g5
(I0
tS'b'
tRp554
(I1
(tg8
I00
S'\x11\xe4\x8f\xc5\xca\x14\xf7?'
tbsg222
g4
(g5
(I0
tS'b'
tRp555
(I1
(tg8
I00
S'\x8fE\x86a\x0f\xe8\xfa?'
tbsg267
g4
(g5
(I0
tS'b'
tRp556
(I1
(tg8
I00
S'\xfc\xb8\xa2w\xc3\xd0\xf8?'
tbsg228
g4
(g5
(I0
tS'b'
tRp557
(I1
(tg8
I00
S'\xb4\x0b*\x1f;\x1b\xfb?'
tbsg231
g4
(g5
(I0
tS'b'
tRp558
(I1
(tg8
I00
S'C\x07\xea1\xca\xe5\xfb?'
tbsg234
g4
(g5
(I0
tS'b'
tRp559
(I1
(tg8
I00
S'\xad\xf0\xc6\xd9g\x03\xf4?'
tbsg237
g4
(g5
(I0
tS'b'
tRp560
(I1
(tg8
I00
S'L\x9e\x9ce\xb6+\xfb?'
tbsg216
g4
(g5
(I0
tS'b'
tRp561
(I1
(tg8
I00
S'\xb4\x16\x93^F,\xeb?'
tbsS't_C(trial_PE)[UU]_subj.21'
p562
g4
(g5
(I0
tS'b'
tRp563
(I1
(tg8
I00
S'2\\\xe3\xa0}$\xcf?'
tbsS'a_subj.17'
p564
g4
(g5
(I0
tS'b'
tRp565
(I1
(tg8
I00
S'U^\xeeR)[\x00@'
tbsS'v_C(trial_PE)[PP]'
p566
g4
(g5
(I0
tS'b'
tRp567
(I1
(tg8
I00
S'\xc9\xda\xa7\xbd\x9dF\x02@'
tbsg249
g4
(g5
(I0
tS'b'
tRp568
(I1
(tg8
I00
S'\x90\xbd\x94\x9dx\xa4\xf3?'
tbsS't_C(trial_PE)[UU]_subj.8'
p569
g4
(g5
(I0
tS'b'
tRp570
(I1
(tg8
I00
S'9O\x15\xca\xf5\xc2\xdf?'
tbsS'a_subj.5'
p571
g4
(g5
(I0
tS'b'
tRp572
(I1
(tg8
I00
S'Jf_\xf8h\x89\xfe?'
tbsg69
g4
(g5
(I0
tS'b'
tRp573
(I1
(tg8
I00
S'\xfcZ^\x9f,\x95\xca\xbf'
tbsg261
g4
(g5
(I0
tS'b'
tRp574
(I1
(tg8
I00
S'\x9a\x00, \xdaB\xc4?'
tbsg264
g4
(g5
(I0
tS'b'
tRp575
(I1
(tg8
I00
S'1{a?\xa0\xf3\xcd?'
tbsg270
g4
(g5
(I0
tS'b'
tRp576
(I1
(tg8
I00
S'\x85j3\xf2b\x98\xf0?'
tbsS'a_subj.13'
p577
g4
(g5
(I0
tS'b'
tRp578
(I1
(tg8
I00
S'\xfa/\xeeojB\x02@'
tbsg282
g4
(g5
(I0
tS'b'
tRp579
(I1
(tg8
I00
S'\x96\xa2\xafm\xd0\xc2\xf8?'
tbsg243
g4
(g5
(I0
tS'b'
tRp580
(I1
(tg8
I00
S'zjZ\xf2\x94\xde\xfc?'
tbsg444
g4
(g5
(I0
tS'b'
tRp581
(I1
(tg8
I00
S't\xec\n\x8d\xf8\xee\xd6?'
tbsg288
g4
(g5
(I0
tS'b'
tRp582
(I1
(tg8
I00
S'p\xf1\xf7\xc3\xaa?\xd4?'
tbsg291
g4
(g5
(I0
tS'b'
tRp583
(I1
(tg8
I00
S'- \n7W\xdc\xd9?'
tbsg105
g4
(g5
(I0
tS'b'
tRp584
(I1
(tg8
I00
S'\xc0`\xb9\xacUs\xda?'
tbsS'a_subj.10'
p585
g4
(g5
(I0
tS'b'
tRp586
(I1
(tg8
I00
S'\xd5\x87-5\x90m\xff?'
tbsg300
g4
(g5
(I0
tS'b'
tRp587
(I1
(tg8
I00
S'\xf7\xd0\x7f8\x94!\xfd?'
tbsg84
g4
(g5
(I0
tS'b'
tRp588
(I1
(tg8
I00
S'\xb0J\x9b@\xbd\xe6\xf9?'
tbsg306
g4
(g5
(I0
tS'b'
tRp589
(I1
(tg8
I00
S'\xca\xa8\xaeV\x81\xb3\x04@'
tbsS'a_subj.31'
p590
g4
(g5
(I0
tS'b'
tRp591
(I1
(tg8
I00
S'|r\xab*^Y\x00@'
tbsg312
g4
(g5
(I0
tS'b'
tRp592
(I1
(tg8
I00
S'h`\x02\x84#\x84\xfb?'
tbsg315
g4
(g5
(I0
tS'b'
tRp593
(I1
(tg8
I00
S'+C]N\xef\x19\xf4?'
tbsS'v_C(trial_PE)[UU]_subj.31'
p594
g4
(g5
(I0
tS'b'
tRp595
(I1
(tg8
I00
S'\x96\x08?z\x8d\xcf\xfb?'
tbsS'v_C(trial_PE)[PP]_subj.2'
p596
g4
(g5
(I0
tS'b'
tRp597
(I1
(tg8
I00
S'.\xad\xca4\xaa<\xc9?'
tbsg324
g4
(g5
(I0
tS'b'
tRp598
(I1
(tg8
I00
S'\xbct~\xc6\xe6\xe4\xf5?'
tbsg327
g4
(g5
(I0
tS'b'
tRp599
(I1
(tg8
I00
S'\xe7Z\x17\xdb3\xf8\xfc?'
tbsg330
g4
(g5
(I0
tS'b'
tRp600
(I1
(tg8
I00
S'\x9a\xa8\xa2\xb69\xff\xf8?'
tbsg126
g4
(g5
(I0
tS'b'
tRp601
(I1
(tg8
I00
S'\xa9Bp\xa4\xb5D\xf8?'
tbsg336
g4
(g5
(I0
tS'b'
tRp602
(I1
(tg8
I00
S'\xa6\xf1M,\x91I\xfd?'
tbsS't_C(trial_PE)[PU]_subj.11'
p603
g4
(g5
(I0
tS'b'
tRp604
(I1
(tg8
I00
S'g\xc1d\xe2\x10J\xce?'
tbsg342
g4
(g5
(I0
tS'b'
tRp605
(I1
(tg8
I00
S'\xd01\xc4\xc7\xe3\xbf\xfb?'
tbsg345
g4
(g5
(I0
tS'b'
tRp606
(I1
(tg8
I00
S'\r\xc2\xf7\xfd\x0b\xeb\xfa?'
tbsg18
g4
(g5
(I0
tS'b'
tRp607
(I1
(tg8
I00
S',40\x13\xf7\xcf\xd1?'
tbsg93
g4
(g5
(I0
tS'b'
tRp608
(I1
(tg8
I00
S'\xfc\xc0r\xb3\x81\x03\xe1?'
tbsg354
g4
(g5
(I0
tS'b'
tRp609
(I1
(tg8
I00
S'3\x014dSQ\xe1?'
tbsg96
g4
(g5
(I0
tS'b'
tRp610
(I1
(tg8
I00
S'\xf4\x90\x98\x16\xf0\xe8\xe2?'
tbsS'a_subj.3'
p611
g4
(g5
(I0
tS'b'
tRp612
(I1
(tg8
I00
S'\xbc\xf5\xe3\x80__\xfe?'
tbsg99
g4
(g5
(I0
tS'b'
tRp613
(I1
(tg8
I00
S'9\x83\xcb\xf2\xa7\x93\xe5?'
tbsg363
g4
(g5
(I0
tS'b'
tRp614
(I1
(tg8
I00
S'*s\xcf\xc6^\xe5\xdc?'
tbsg366
g4
(g5
(I0
tS'b'
tRp615
(I1
(tg8
I00
S'A\xb9\xc6\xca\xa0y\xd7?'
tbsg369
g4
(g5
(I0
tS'b'
tRp616
(I1
(tg8
I00
S"\xe2P\xc0'v)\xd6?"
tbsg372
g4
(g5
(I0
tS'b'
tRp617
(I1
(tg8
I00
S'P\xe7\x98g\xdf/\xd8?'
tbsg375
g4
(g5
(I0
tS'b'
tRp618
(I1
(tg8
I00
S'\x80\xdc+\x84\x98\xac\xd8?'
tbsg378
g4
(g5
(I0
tS'b'
tRp619
(I1
(tg8
I00
S'\xe6)\xef\xa3\xca\xad\xdb?'
tbsg381
g4
(g5
(I0
tS'b'
tRp620
(I1
(tg8
I00
S'\xc7\x14\xc8\xd3\x0c\x84\xdb?'
tbsg384
g4
(g5
(I0
tS'b'
tRp621
(I1
(tg8
I00
S'\xdcp\xd4\x02.\x89\xdb?'
tbsg21
g4
(g5
(I0
tS'b'
tRp622
(I1
(tg8
I00
S']dE\xcc\x0e\x90\xd2?'
tbsg360
g4
(g5
(I0
tS'b'
tRp623
(I1
(tg8
I00
S'\xbcz\xce\x8b\x9d\xd8\xfd?'
tbsg387
g4
(g5
(I0
tS'b'
tRp624
(I1
(tg8
I00
S'1T\x06#\xab\xe3\xd5?'
tbsg393
g4
(g5
(I0
tS'b'
tRp625
(I1
(tg8
I00
S'\xf0.\x10\xe7\x99\x92\xdc?'
tbsg390
g4
(g5
(I0
tS'b'
tRp626
(I1
(tg8
I00
S'\xa8\x04\xb3\x92\x9fE\xdb?'
tbsg396
g4
(g5
(I0
tS'b'
tRp627
(I1
(tg8
I00
S'\xa0.\xbb\x9ac\xb7\xd4?'
tbsg399
g4
(g5
(I0
tS'b'
tRp628
(I1
(tg8
I00
S't&w\x13\x01~\xda?'
tbsg402
g4
(g5
(I0
tS'b'
tRp629
(I1
(tg8
I00
S"\xa7i\xb9p'\xcc\xd5?"
tbsg405
g4
(g5
(I0
tS'b'
tRp630
(I1
(tg8
I00
S'\xac}\xef(%M\xdb?'
tbsg408
g4
(g5
(I0
tS'b'
tRp631
(I1
(tg8
I00
S'\xa7zJ\xcc\xa5\xa6\xd7?'
tbsg411
g4
(g5
(I0
tS'b'
tRp632
(I1
(tg8
I00
S'\x1d\x9aD\xae-,\xd5?'
tbsg414
g4
(g5
(I0
tS'b'
tRp633
(I1
(tg8
I00
S'\x9c#I($\x0c\xd6?'
tbsg417
g4
(g5
(I0
tS'b'
tRp634
(I1
(tg8
I00
S'\x9e-\xfc\xb0\x06x\xcd?'
tbsS'a_subj.15'
p635
g4
(g5
(I0
tS'b'
tRp636
(I1
(tg8
I00
S'\x1f\x0e\x9cNye\x01@'
tbsg423
g4
(g5
(I0
tS'b'
tRp637
(I1
(tg8
I00
S"n\x05\x13'\x0e>\xd4?"
tbsg426
g4
(g5
(I0
tS'b'
tRp638
(I1
(tg8
I00
S'\xbd\xf6\xe8=\x8f\xfb\xd2?'
tbsS't_C(trial_PE)[UU]_subj.11'
p639
g4
(g5
(I0
tS'b'
tRp640
(I1
(tg8
I00
S'PEzg%\x85\xe3?'
tbsg432
g4
(g5
(I0
tS'b'
tRp641
(I1
(tg8
I00
S'\xae\xa0\xd8\xa3\xfa\x92\xc4?'
tbsg435
g4
(g5
(I0
tS'b'
tRp642
(I1
(tg8
I00
S'\xa6Ii\x8212\xef?'
tbsg438
g4
(g5
(I0
tS'b'
tRp643
(I1
(tg8
I00
S'\xd8\xac\x8c\xb1"\x81\xf3?'
tbsg441
g4
(g5
(I0
tS'b'
tRp644
(I1
(tg8
I00
S'\xa8\x8a\x83\xc8}T\xc6?'
tbsS't_C(trial_PE)[PP]_std'
p645
g4
(g5
(I0
tS'b'
tRp646
(I1
(tg8
I00
S'\xdd\x03|8N\xf5\xbc?'
tbsg450
g4
(g5
(I0
tS'b'
tRp647
(I1
(tg8
I00
S'U\x8e\x9d\x12\xae\xc1\xb3\xbf'
tbsS't_C(trial_PE)[PU]_subj.23'
p648
g4
(g5
(I0
tS'b'
tRp649
(I1
(tg8
I00
S'm|h\xe9x\x19\xd2?'
tbsg459
g4
(g5
(I0
tS'b'
tRp650
(I1
(tg8
I00
S'\x9e\x19\xae\xda;\xa0\xf0?'
tbsS't_C(trial_PE)[PU]_subj.20'
p651
g4
(g5
(I0
tS'b'
tRp652
(I1
(tg8
I00
S'\x81@|\x92\x97\x00\xd8?'
tbsS'v_C(trial_PE)[PU]_std'
p653
g4
(g5
(I0
tS'b'
tRp654
(I1
(tg8
I00
S'\x9c\xca\x87\x8d5\xe6\xe0?'
tbsS'v_C(trial_PE)[UU]'
p655
g4
(g5
(I0
tS'b'
tRp656
(I1
(tg8
I00
S'OY\xd2\xe8Jf\xfc?'
tbsS'v_C(trial_PE)[PP]_subj.26'
p657
g4
(g5
(I0
tS'b'
tRp658
(I1
(tg8
I00
S':\xb5$\xd5\xb0\x8c\xea?'
tbsg351
g4
(g5
(I0
tS'b'
tRp659
(I1
(tg8
I00
S'\xdf\x80\x92:\x9b<\xde?'
tbsS'v_C(trial_PE)[PU]_subj.9'
p660
g4
(g5
(I0
tS'b'
tRp661
(I1
(tg8
I00
S'\x92wh\xaa\xa0\t\x00@'
tbsS'v_C(trial_PE)[PU]_subj.8'
p662
g4
(g5
(I0
tS'b'
tRp663
(I1
(tg8
I00
S'\xe8\x08\x01\x88N\xf4\xfc?'
tbsg102
g4
(g5
(I0
tS'b'
tRp664
(I1
(tg8
I00
S'J\x16i\xd9\xd3\xc5\xb5?'
tbsS'v_C(trial_PE)[PU]_subj.5'
p665
g4
(g5
(I0
tS'b'
tRp666
(I1
(tg8
I00
S'\x86\xeb\xc9\xf93\xab\xf6?'
tbsS'v_C(trial_PE)[PU]_subj.4'
p667
g4
(g5
(I0
tS'b'
tRp668
(I1
(tg8
I00
S'\x04:n\xb04\xca\xf8?'
tbsS'v_C(trial_PE)[PU]_subj.7'
p669
g4
(g5
(I0
tS'b'
tRp670
(I1
(tg8
I00
S'\xa0N\xc4\xc7\xd5S\xf4?'
tbsS'v_C(trial_PE)[PU]_subj.6'
p671
g4
(g5
(I0
tS'b'
tRp672
(I1
(tg8
I00
S'\xfc2\xbd\x11\x05\x97\xe7?'
tbsS'v_C(trial_PE)[PU]_subj.1'
p673
g4
(g5
(I0
tS'b'
tRp674
(I1
(tg8
I00
S'*\x98\xb6zij\xfe?'
tbsS'v_C(trial_PE)[PU]_subj.0'
p675
g4
(g5
(I0
tS'b'
tRp676
(I1
(tg8
I00
S'\xd5\x83\xe2G\xa2l\xf2?'
tbsS'v_C(trial_PE)[PU]_subj.3'
p677
g4
(g5
(I0
tS'b'
tRp678
(I1
(tg8
I00
S'\x9c\xab\xac:l \xf2?'
tbsS'v_C(trial_PE)[PU]_subj.2'
p679
g4
(g5
(I0
tS'b'
tRp680
(I1
(tg8
I00
S'\xb7\xbc\x07\x1d\xfb\\\xfb?'
tbsS't_C(trial_PE)[PP]_subj.6'
p681
g4
(g5
(I0
tS'b'
tRp682
(I1
(tg8
I00
S'\x92\x1c\x1b\xe0\xc3\x1b\xdb?'
tbsS't_C(trial_PE)[PU]_subj.32'
p683
g4
(g5
(I0
tS'b'
tRp684
(I1
(tg8
I00
S'\xb2b\x7f9\x93\xfe\xd5?'
tbsS'a_subj.16'
p685
g4
(g5
(I0
tS'b'
tRp686
(I1
(tg8
I00
S'\xf7\x92\xc0u\x04\xe0\x00@'
tbsS't_C(trial_PE)[PP]_subj.5'
p687
g4
(g5
(I0
tS'b'
tRp688
(I1
(tg8
I00
S'\r\xe2Q\xf6\x1bg\xd6?'
tbsS't_C(trial_PE)[PP]_subj.2'
p689
g4
(g5
(I0
tS'b'
tRp690
(I1
(tg8
I00
S's\xeeu8\xa4\xdb\xe0?'
tbsS't_C(trial_PE)[PP]_subj.3'
p691
g4
(g5
(I0
tS'b'
tRp692
(I1
(tg8
I00
S'*\xdb\x04\xec\xfe\x8a\xdd?'
tbsS't_C(trial_PE)[PP]_subj.0'
p693
g4
(g5
(I0
tS'b'
tRp694
(I1
(tg8
I00
S'\xdc\x8a\xb1~>C\xe3?'
tbsg279
g4
(g5
(I0
tS'b'
tRp695
(I1
(tg8
I00
S'%\xab\xd6\xcfk\x0b\xdd?'
tbsS'a_subj.18'
p696
g4
(g5
(I0
tS'b'
tRp697
(I1
(tg8
I00
S'kS\x87\x0b2\xfd\xf9?'
tbsS'a_subj.19'
p698
g4
(g5
(I0
tS'b'
tRp699
(I1
(tg8
I00
S'\xe6\xa5-\x18s\x13\x02@'
tbsS't_C(trial_PE)[PP]_subj.8'
p700
g4
(g5
(I0
tS'b'
tRp701
(I1
(tg8
I00
S'\xc0\xecr.\x87\xa8\xde?'
tbsS't_C(trial_PE)[PP]_subj.9'
p702
g4
(g5
(I0
tS'b'
tRp703
(I1
(tg8
I00
S'"\xee\xdf\xa5\xe70\xdb?'
tbsS't_C(trial_PE)[PP]'
p704
g4
(g5
(I0
tS'b'
tRp705
(I1
(tg8
I00
S'\xa7\xedN\xbdW\x8e\xd8?'
tbsS'v_C(trial_PE)[PU]_subj.28'
p706
g4
(g5
(I0
tS'b'
tRp707
(I1
(tg8
I00
S'\xf8\xeb\xb2\xcb\x1a\x89\xf4?'
tbsS'v_C(trial_PE)[PU]_subj.29'
p708
g4
(g5
(I0
tS'b'
tRp709
(I1
(tg8
I00
S'\xa8\xf9Q\x90\xc9\x08\xf3?'
tbsg78
g4
(g5
(I0
tS'b'
tRp710
(I1
(tg8
I00
S'<\xf8\x9e\xa7l\xfe\xfd?'
tbsS'v_C(trial_PE)[PU]_subj.24'
p711
g4
(g5
(I0
tS'b'
tRp712
(I1
(tg8
I00
S'b\xddd\xba\xda4\xf4?'
tbsS'v_C(trial_PE)[PU]_subj.25'
p713
g4
(g5
(I0
tS'b'
tRp714
(I1
(tg8
I00
S'\xe8\x89C\x9b\xea\x17\xfb?'
tbsS'v_C(trial_PE)[PU]_subj.26'
p715
g4
(g5
(I0
tS'b'
tRp716
(I1
(tg8
I00
S'\x1e\xda\xb3\xea\xa2\xde\xd9?'
tbsS'v_C(trial_PE)[PU]_subj.27'
p717
g4
(g5
(I0
tS'b'
tRp718
(I1
(tg8
I00
S'4\xf3\xa9p"\xe1\xf6?'
tbsS'v_C(trial_PE)[PU]_subj.20'
p719
g4
(g5
(I0
tS'b'
tRp720
(I1
(tg8
I00
S'\x14\xc7\xae\x9f\x94\xf6\xf8?'
tbsS'v_C(trial_PE)[PU]_subj.21'
p721
g4
(g5
(I0
tS'b'
tRp722
(I1
(tg8
I00
S'\x8d\x92\x16\x0eh\xcb\xf9?'
tbsS'v_C(trial_PE)[PU]_subj.22'
p723
g4
(g5
(I0
tS'b'
tRp724
(I1
(tg8
I00
S'\xffN\xfe\xb5\xd9=\xe9?'
tbsS'v_C(trial_PE)[PU]_subj.23'
p725
g4
(g5
(I0
tS'b'
tRp726
(I1
(tg8
I00
S'9\xc3\xc9e\x1dO\xf8?'
tbsS'v_C(trial_PE)[UU]_subj.18'
p727
g4
(g5
(I0
tS'b'
tRp728
(I1
(tg8
I00
S'\x9b`\xb8[\xed\xaa\xf8?'
tbsS'v_C(trial_PE)[UU]_subj.19'
p729
g4
(g5
(I0
tS'b'
tRp730
(I1
(tg8
I00
S'V\x8a\x08$F\xc4\xee?'
tbsS'v_C(trial_PE)[UU]_subj.10'
p731
g4
(g5
(I0
tS'b'
tRp732
(I1
(tg8
I00
S'\x18~u\xe8\x91\xcd\xf0?'
tbsS'v_C(trial_PE)[UU]_subj.11'
p733
g4
(g5
(I0
tS'b'
tRp734
(I1
(tg8
I00
S'R\xa6\x9a\xb8\x85D\xf5?'
tbsS'v_C(trial_PE)[UU]_subj.12'
p735
g4
(g5
(I0
tS'b'
tRp736
(I1
(tg8
I00
S'\xf0r\xb25\x86I\xee?'
tbsS'v_C(trial_PE)[UU]_subj.13'
p737
g4
(g5
(I0
tS'b'
tRp738
(I1
(tg8
I00
S'\xc4\xbd{Mgh\xf3?'
tbsS't_C(trial_PE)[PU]_subj.31'
p739
g4
(g5
(I0
tS'b'
tRp740
(I1
(tg8
I00
S'\r2\x01\xa4M\xe5\xd1?'
tbsS't_C(trial_PE)[PU]_subj.30'
p741
g4
(g5
(I0
tS'b'
tRp742
(I1
(tg8
I00
S'\xd89\x12\x8a\xf7\xa0\xd9?'
tbsS'v_C(trial_PE)[UU]_subj.16'
p743
g4
(g5
(I0
tS'b'
tRp744
(I1
(tg8
I00
S'\x91\xf2U\x1f\x1e\x9c\xf1?'
tbsS'v_C(trial_PE)[UU]_subj.17'
p745
g4
(g5
(I0
tS'b'
tRp746
(I1
(tg8
I00
S'#\x8bKNf\xb3\xf6?'
tbsS't_C(trial_PE)[PU]_subj.7'
p747
g4
(g5
(I0
tS'b'
tRp748
(I1
(tg8
I00
S'\xf4\xfa$^Oj\xe3?'
tbsS't_C(trial_PE)[PU]_subj.6'
p749
g4
(g5
(I0
tS'b'
tRp750
(I1
(tg8
I00
S'\x11\xac\xbb\xd2,\\\xdd?'
tbsS't_C(trial_PE)[PU]_subj.5'
p751
g4
(g5
(I0
tS'b'
tRp752
(I1
(tg8
I00
S'\xab\x92]}E!\xd9?'
tbsS't_C(trial_PE)[PU]_subj.4'
p753
g4
(g5
(I0
tS'b'
tRp754
(I1
(tg8
I00
S'$\x18\x1em#v\xdb?'
tbsg297
g4
(g5
(I0
tS'b'
tRp755
(I1
(tg8
I00
S'\n\xa5\xe2\xc4\x92(\xfb?'
tbsS't_C(trial_PE)[PU]_subj.2'
p756
g4
(g5
(I0
tS'b'
tRp757
(I1
(tg8
I00
S'\xe7\xab\xec\x81\xe0\x1a\xe3?'
tbsS't_C(trial_PE)[PU]_subj.1'
p758
g4
(g5
(I0
tS'b'
tRp759
(I1
(tg8
I00
S' \x9e8\xca\xa7\xef\xd9?'
tbsS't_C(trial_PE)[PU]_subj.0'
p760
g4
(g5
(I0
tS'b'
tRp761
(I1
(tg8
I00
S'\x83^\xeb\xde\x00\x9b\xe1?'
tbsS't_C(trial_PE)[UP]_subj.13'
p762
g4
(g5
(I0
tS'b'
tRp763
(I1
(tg8
I00
S'\xf2\x07\x8f!\xd8\xc9\xd6?'
tbsS't_C(trial_PE)[UU]_subj.9'
p764
g4
(g5
(I0
tS'b'
tRp765
(I1
(tg8
I00
S'\x86l\n \xbaD\xdc?'
tbsg252
g4
(g5
(I0
tS'b'
tRp766
(I1
(tg8
I00
S'\x11Cd0\xc7>\xe2?'
tbsS't_C(trial_PE)[PU]_subj.8'
p767
g4
(g5
(I0
tS'b'
tRp768
(I1
(tg8
I00
S'$\xd6\xa1\xf3\x97n\xe0?'
tbsS't_C(trial_PE)[UU]_subj.16'
p769
g4
(g5
(I0
tS'b'
tRp770
(I1
(tg8
I00
S'\x97\xf01<\xef\x96\xd6?'
tbsS't_C(trial_PE)[UU]_subj.17'
p771
g4
(g5
(I0
tS'b'
tRp772
(I1
(tg8
I00
S'b\x9fl)\xd6\x9c\xd6?'
tbsS't_C(trial_PE)[UU]_subj.14'
p773
g4
(g5
(I0
tS'b'
tRp774
(I1
(tg8
I00
S'x\xdd\x96\x15\xd1>\xe0?'
tbsS'v_C(trial_PE)[PP]_subj.7'
p775
g4
(g5
(I0
tS'b'
tRp776
(I1
(tg8
I00
S'N\x01\xe2\x07*\xd6\xe5?'
tbsS't_C(trial_PE)[UU]_subj.12'
p777
g4
(g5
(I0
tS'b'
tRp778
(I1
(tg8
I00
S'\xf9\xa9\xfb\xee\x04\xfb\xdf?'
tbsg273
g4
(g5
(I0
tS'b'
tRp779
(I1
(tg8
I00
S'|c^\xd55\xfb\xe6?'
tbsS't_C(trial_PE)[UU]_subj.10'
p780
g4
(g5
(I0
tS'b'
tRp781
(I1
(tg8
I00
S'\xc0\xae\x0ei\xe4\xef\xe1?'
tbsS'v_C(trial_PE)[PP]_subj.3'
p782
g4
(g5
(I0
tS'b'
tRp783
(I1
(tg8
I00
S'\xa6^\xf1\x8b\x1f>\xf0?'
tbsS'v_C(trial_PE)[UU]_subj.14'
p784
g4
(g5
(I0
tS'b'
tRp785
(I1
(tg8
I00
S'\x96\xa3\xbf\xe3\x92\x8b\xf9?'
tbsg276
g4
(g5
(I0
tS'b'
tRp786
(I1
(tg8
I00
S' 5\xc8\x98\x1f`\xeb?'
tbsS'v_C(trial_PE)[PP]_subj.9'
p787
g4
(g5
(I0
tS'b'
tRp788
(I1
(tg8
I00
S'\xe6\x14k\x9a\x15\x9a\xdb?'
tbsS't_C(trial_PE)[UU]_subj.18'
p789
g4
(g5
(I0
tS'b'
tRp790
(I1
(tg8
I00
S'\xdf\xaa-:\xf5\xa8\xd6?'
tbsS't_C(trial_PE)[UU]_subj.19'
p791
g4
(g5
(I0
tS'b'
tRp792
(I1
(tg8
I00
S'\x07\x84\xdc\xc4\xa3\xf5\xdb?'
tbsS't_C(trial_PE)[UU]_subj.15'
p793
g4
(g5
(I0
tS'b'
tRp794
(I1
(tg8
I00
S'\xca2\xf3\x02\\\xd5\xdb?'
tbsS'v_C(trial_PE)[PP]_subj.11'
p795
g4
(g5
(I0
tS'b'
tRp796
(I1
(tg8
I00
S"\xb6'u\xd1\x16\xa1\xf2?"
tbsS't_C(trial_PE)[PU]_subj.28'
p797
g4
(g5
(I0
tS'b'
tRp798
(I1
(tg8
I00
S"S\x9b\xa0d'\x83\xd6?"
tbsS't_C(trial_PE)[PU]_subj.29'
p799
g4
(g5
(I0
tS'b'
tRp800
(I1
(tg8
I00
S'\xdbJ\xd8\x0c\x96\xe0\xd1?'
tbsS't_C(trial_PE)[PU]_subj.26'
p801
g4
(g5
(I0
tS'b'
tRp802
(I1
(tg8
I00
S'\x05E\x89\x96\x02\xb3\xd4?'
tbsS't_C(trial_PE)[PU]_subj.27'
p803
g4
(g5
(I0
tS'b'
tRp804
(I1
(tg8
I00
S'\xc4\x88\xc9?\xd2u\xd7?'
tbsS't_C(trial_PE)[PU]_subj.24'
p805
g4
(g5
(I0
tS'b'
tRp806
(I1
(tg8
I00
S'gf59\xbf\xdc\xd5?'
tbsS't_C(trial_PE)[PU]_subj.25'
p807
g4
(g5
(I0
tS'b'
tRp808
(I1
(tg8
I00
S'7M\x05*Ha\xc9?'
tbsS't_C(trial_PE)[PU]_subj.22'
p809
g4
(g5
(I0
tS'b'
tRp810
(I1
(tg8
I00
S'\xcc\x17\xe4\x929\xc1\xdb?'
tbsg339
g4
(g5
(I0
tS'b'
tRp811
(I1
(tg8
I00
S'\xcc\xc2\x07$\xab\xf1\xfa?'
tbsS'v_C(trial_PE)[UU]_std'
p812
g4
(g5
(I0
tS'b'
tRp813
(I1
(tg8
I00
S'\xdb\xccK\x01\xee\x89\xc4?'
tbsS't_C(trial_PE)[PU]_subj.21'
p814
g4
(g5
(I0
tS'b'
tRp815
(I1
(tg8
I00
S'\xd1\x05\xd7\xd3\xa4\x1a\xd3?'
tbsg318
g4
(g5
(I0
tS'b'
tRp816
(I1
(tg8
I00
S"\x08'\xa9\xca\xcd\xf6\xfc?"
tbsg132
g4
(g5
(I0
tS'b'
tRp817
(I1
(tg8
I00
S'zZ\xabmd\xfd\x08@'
tbsS't_C(trial_PE)[PU]_subj.3'
p818
g4
(g5
(I0
tS'b'
tRp819
(I1
(tg8
I00
S'\x84\x85\x99j \xd2\xdf?'
tbsg348
g4
(g5
(I0
tS'b'
tRp820
(I1
(tg8
I00
S'\x08\xdb\xbd\x03\x80\xe5\xfd?'
tbsS'v_C(trial_PE)[PP]_subj.24'
p821
g4
(g5
(I0
tS'b'
tRp822
(I1
(tg8
I00
S'\xaf^\xb1\xca\xb3\xb8\xe9?'
tbsS'v_C(trial_PE)[PP]_subj.18'
p823
g4
(g5
(I0
tS'b'
tRp824
(I1
(tg8
I00
S'\x9c\xddZV\x02\x87\xfa?'
tbsS'v_C(trial_PE)[PP]_subj.19'
p825
g4
(g5
(I0
tS'b'
tRp826
(I1
(tg8
I00
S'2\xe4\x0f\xe8\xab\x05\xf4?'
tbsS'v_C(trial_PE)[PP]_subj.16'
p827
g4
(g5
(I0
tS'b'
tRp828
(I1
(tg8
I00
S'\\\xcb\x15\xe5\xe8\xef\xf3?'
tbsS'v_C(trial_PE)[PP]_subj.17'
p829
g4
(g5
(I0
tS'b'
tRp830
(I1
(tg8
I00
S'tW_\xa5\xec\xae\xf4?'
tbsS'v_C(trial_PE)[PP]_subj.14'
p831
g4
(g5
(I0
tS'b'
tRp832
(I1
(tg8
I00
S'\xea_>\x07*\x7f\xf6?'
tbsS'v_C(trial_PE)[PP]_subj.15'
p833
g4
(g5
(I0
tS'b'
tRp834
(I1
(tg8
I00
S'\x02\xb9\xd5g\xd9\xb8\xee?'
tbsS'v_C(trial_PE)[PP]_subj.12'
p835
g4
(g5
(I0
tS'b'
tRp836
(I1
(tg8
I00
S'\xa4\xa8\xa1^,\x91\xcf?'
tbsS'v_C(trial_PE)[PP]_subj.13'
p837
g4
(g5
(I0
tS'b'
tRp838
(I1
(tg8
I00
S'cg}w\xc7\x1b\xf3?'
tbsS'v_C(trial_PE)[PP]_subj.10'
p839
g4
(g5
(I0
tS'b'
tRp840
(I1
(tg8
I00
S'|\x7f\x85\xb4\x8e\xe6\xea?'
tbsS'v_C(trial_PE)[UP]_std'
p841
g4
(g5
(I0
tS'b'
tRp842
(I1
(tg8
I00
S'\xb8sZR\x9c9\xcb?'
tbsS't_C(trial_PE)[UP]_subj.5'
p843
g4
(g5
(I0
tS'b'
tRp844
(I1
(tg8
I00
S'x\xedz\xc6\xf5\xdf\xdc?'
tbsS't_C(trial_PE)[UP]_subj.4'
p845
g4
(g5
(I0
tS'b'
tRp846
(I1
(tg8
I00
S'\xc4k\xa4\xb1@\x06\xd9?'
tbsS't_C(trial_PE)[UP]_subj.7'
p847
g4
(g5
(I0
tS'b'
tRp848
(I1
(tg8
I00
S'\x8e\x90\xf7\xd8\x80\x0c\xe7?'
tbsS't_C(trial_PE)[UP]_subj.6'
p849
g4
(g5
(I0
tS'b'
tRp850
(I1
(tg8
I00
S' \xf0\xea\x88\x959\xe2?'
tbsS't_C(trial_PE)[UP]_subj.1'
p851
g4
(g5
(I0
tS'b'
tRp852
(I1
(tg8
I00
S'Y\x13\xeb\xc4\x9bM\xdd?'
tbsS't_C(trial_PE)[UP]_subj.0'
p853
g4
(g5
(I0
tS'b'
tRp854
(I1
(tg8
I00
S'$\xb3\x8f\x8ee\xa0\xe6?'
tbsS't_C(trial_PE)[UP]_subj.3'
p855
g4
(g5
(I0
tS'b'
tRp856
(I1
(tg8
I00
S'\xd7D\x89\xa2\xe23\xe4?'
tbsS't_C(trial_PE)[UP]_subj.2'
p857
g4
(g5
(I0
tS'b'
tRp858
(I1
(tg8
I00
S'\x8a3\xef\xd9\x80I\xe4?'
tbsS't_C(trial_PE)[UP]_subj.9'
p859
g4
(g5
(I0
tS'b'
tRp860
(I1
(tg8
I00
S'\xd7d\xbb\xab\x02;\xdb?'
tbsS't_C(trial_PE)[UP]_subj.8'
p861
g4
(g5
(I0
tS'b'
tRp862
(I1
(tg8
I00
S'fm\x9cuP\xab\xdb?'
tbsS't_C(trial_PE)[PU]_subj.13'
p863
g4
(g5
(I0
tS'b'
tRp864
(I1
(tg8
I00
S'\x827\xe1!\xd6\xe3\xd3?'
tbsS't_C(trial_PE)[PU]_subj.12'
p865
g4
(g5
(I0
tS'b'
tRp866
(I1
(tg8
I00
S'\xa4\xed\xeb\xdf \xca\xe0?'
tbsS't_C(trial_PE)[UU]_subj.29'
p867
g4
(g5
(I0
tS'b'
tRp868
(I1
(tg8
I00
S'\x01\x07;\xa4a\xf1\xcb?'
tbsg123
g4
(g5
(I0
tS'b'
tRp869
(I1
(tg8
I00
S'\xacN"\xfc-\xfb\xf9?'
tbsS't_C(trial_PE)[PU]_subj.17'
p870
g4
(g5
(I0
tS'b'
tRp871
(I1
(tg8
I00
S'\x1a\x13!k\xe6\xd0\xdb?'
tbsS't_C(trial_PE)[PU]_subj.16'
p872
g4
(g5
(I0
tS'b'
tRp873
(I1
(tg8
I00
S'x/\xc5g\x9c\x9a\xdb?'
tbsS't_C(trial_PE)[PU]_subj.15'
p874
g4
(g5
(I0
tS'b'
tRp875
(I1
(tg8
I00
S'\xef\x1b\xb9\xc0$L\xe0?'
tbsS't_C(trial_PE)[PU]_subj.14'
p876
g4
(g5
(I0
tS'b'
tRp877
(I1
(tg8
I00
S'\xa0\x97\x01\xa6\xbd\x15\xe1?'
tbsS't_C(trial_PE)[UU]_subj.23'
p878
g4
(g5
(I0
tS'b'
tRp879
(I1
(tg8
I00
S'q\xad\x16\x1d@\xa4\xcc?'
tbsS't_C(trial_PE)[UU]_subj.22'
p880
g4
(g5
(I0
tS'b'
tRp881
(I1
(tg8
I00
S'\xa0\xca\xae\x82\xaa|\xd3?'
tbsg114
g4
(g5
(I0
tS'b'
tRp882
(I1
(tg8
I00
S'U\x7f[\x1af\xcc\xdb?'
tbsS't_C(trial_PE)[PU]_subj.18'
p883
g4
(g5
(I0
tS'b'
tRp884
(I1
(tg8
I00
S'\x89y\xae\xb9\xb9\xf4\xd7?'
tbsS't_C(trial_PE)[UU]_subj.27'
p885
g4
(g5
(I0
tS'b'
tRp886
(I1
(tg8
I00
S'T\x05l\xea\x84\xde\xe0?'
tbsS't_C(trial_PE)[UU]_subj.26'
p887
g4
(g5
(I0
tS'b'
tRp888
(I1
(tg8
I00
S'\xfe\xc5)\x10x\x81\xd5?'
tbsg246
g4
(g5
(I0
tS'b'
tRp889
(I1
(tg8
I00
S'\x9eP\x8a\xd1\xceq\xd1?'
tbsg255
g4
(g5
(I0
tS'b'
tRp890
(I1
(tg8
I00
S'(\x0e\xc6\x9b<(\xd8?'
tbsS'a_subj.6'
p891
g4
(g5
(I0
tS'b'
tRp892
(I1
(tg8
I00
S'cE{\xda\xf8\x0c\x01@'
tbsS'a_subj.7'
p893
g4
(g5
(I0
tS'b'
tRp894
(I1
(tg8
I00
S'\xc1W\xd8\\\x8b\x0c\x07@'
tbsS'a_subj.4'
p895
g4
(g5
(I0
tS'b'
tRp896
(I1
(tg8
I00
S'\xe1\xe8\xbbZt\x81\xfc?'
tbsg429
g4
(g5
(I0
tS'b'
tRp897
(I1
(tg8
I00
S'\xc1\x84!\xedI\x8b\xfd?'
tbsS'a_subj.2'
p898
g4
(g5
(I0
tS'b'
tRp899
(I1
(tg8
I00
S'\xa0\x10\x94\xe7\xc0\xc5\x03@'
tbsg309
g4
(g5
(I0
tS'b'
tRp900
(I1
(tg8
I00
S'\x99{l\xd6p\x15\xd0?'
tbsg321
g4
(g5
(I0
tS'b'
tRp901
(I1
(tg8
I00
S'\x87#\xddZ\x15\x04\x02@'
tbsS'a_subj.1'
p902
g4
(g5
(I0
tS'b'
tRp903
(I1
(tg8
I00
S'\x86.\xcc\x8b\xe7M\xfc?'
tbsS't_C(trial_PE)[UU]_subj.20'
p904
g4
(g5
(I0
tS'b'
tRp905
(I1
(tg8
I00
S':\x05\xb4\xe20\xa2\xd6?'
tbsS't_C(trial_PE)[PP]_subj.7'
p906
g4
(g5
(I0
tS'b'
tRp907
(I1
(tg8
I00
S'Q~G\xf1\x07\xce\xdd?'
tbsS'a_subj.8'
p908
g4
(g5
(I0
tS'b'
tRp909
(I1
(tg8
I00
S"\x05\x85\x8d\xf9W'\xfe?"
tbsg420
g4
(g5
(I0
tS'b'
tRp910
(I1
(tg8
I00
S'\xa45oo\x91\x9d\xf7?'
tbsS'v_C(trial_PE)[PP]_subj.23'
p911
g4
(g5
(I0
tS'b'
tRp912
(I1
(tg8
I00
S'&\xed\xbd>\xd8E\xe9?'
tbsS'v_C(trial_PE)[PP]_subj.22'
p913
g4
(g5
(I0
tS'b'
tRp914
(I1
(tg8
I00
S'=\x7f!\xa3\x91\x81\xf5?'
tbsg447
g4
(g5
(I0
tS'b'
tRp915
(I1
(tg8
I00
S'\xbd0\xe4{\x86f\xd8?'
tbsS'v_C(trial_PE)[PP]_subj.20'
p916
g4
(g5
(I0
tS'b'
tRp917
(I1
(tg8
I00
S'\xac\x15U\x91Q\xf0\xf3?'
tbsS'v_C(trial_PE)[PP]_subj.27'
p918
g4
(g5
(I0
tS'b'
tRp919
(I1
(tg8
I00
S'?mJ\x84\xab\xa2\xe0?'
tbsS't_C(trial_PE)[PU]_subj.9'
p920
g4
(g5
(I0
tS'b'
tRp921
(I1
(tg8
I00
S'\xc8j{\xdcY\xc9\xdf?'
tbsS'v_C(trial_PE)[PP]_subj.25'
p922
g4
(g5
(I0
tS'b'
tRp923
(I1
(tg8
I00
S'\xa8\x99:\x0b\xc3\xa3\xea?'
tbsS't_C(trial_PE)[UU]_subj.7'
p924
g4
(g5
(I0
tS'b'
tRp925
(I1
(tg8
I00
S'fE\xd3\x8f\xe3)\xe1?'
tbsS'v_C(trial_PE)[PP]_subj.29'
p926
g4
(g5
(I0
tS'b'
tRp927
(I1
(tg8
I00
S'7|\xd2o0\xd7\xe5?'
tbsS'v_C(trial_PE)[PP]_subj.28'
p928
g4
(g5
(I0
tS'b'
tRp929
(I1
(tg8
I00
S'\\K\xc7\x0b\xa7n\xf1?'
tbsS't_C(trial_PE)[UU]_subj.28'
p930
g4
(g5
(I0
tS'b'
tRp931
(I1
(tg8
I00
S'\xba\n\xf9\xf2)\x82\xd3?'
tbsS'a'
g4
(g5
(I0
tS'b'
tRp932
(I1
(tg8
I00
S'\xcf\xed\x88-\x92\xb1\x00@'
tbsg303
g4
(g5
(I0
tS'b'
tRp933
(I1
(tg8
I00
S'\x11\xed\x9a7\xec\x8e\xdc?'
tbsS'a_subj.11'
p934
g4
(g5
(I0
tS'b'
tRp935
(I1
(tg8
I00
S'\x1e\x1bd\xbd\x03\xf7\x02@'
tbsS't_C(trial_PE)[PP]_subj.4'
p936
g4
(g5
(I0
tS'b'
tRp937
(I1
(tg8
I00
S'\xb1U\xa0\xb3s\xf7\xdb?'
tbsS'sv'
p938
g4
(g5
(I0
tS'b'
tRp939
(I1
(tg8
I00
S'\xc2\xf8\xee\x0e\t@\xd5?'
tbsS'v_C(trial_PE)[PU]'
p940
g4
(g5
(I0
tS'b'
tRp941
(I1
(tg8
I00
S'\xb9=\xc9??f\xf1?'
tbsS't_C(trial_PE)[UP]_std'
p942
g4
(g5
(I0
tS'b'
tRp943
(I1
(tg8
I00
S'\xd0\xc5Z\xea\xfd\x9d\xba?'
tbsg141
g4
(g5
(I0
tS'b'
tRp944
(I1
(tg8
I00
S'`\xd8\x12\xde\x97\xdd\xc0?'
tbsS't_C(trial_PE)[PU]'
p945
g4
(g5
(I0
tS'b'
tRp946
(I1
(tg8
I00
S'\x0co\xdb\xef;\xe7\xdc?'
tbsS't_C(trial_PE)[UU]_subj.30'
p947
g4
(g5
(I0
tS'b'
tRp948
(I1
(tg8
I00
S'\xb5t8\x83\xd5l\xdf?'
tbsS't_C(trial_PE)[UU]_subj.31'
p949
g4
(g5
(I0
tS'b'
tRp950
(I1
(tg8
I00
S'\x10J\x8f=\x1f\xcf\xd2?'
tbsS't_C(trial_PE)[UU]_subj.32'
p951
g4
(g5
(I0
tS'b'
tRp952
(I1
(tg8
I00
S'\xc4A?\x1bw\xe4\xd7?'
tbsg90
g4
(g5
(I0
tS'b'
tRp953
(I1
(tg8
I00
S'\x9d\xa3\xd5\xff\xb4\xc2\xf9?'
tbssS'step_methods'
p954
(dp955
S'SliceStep_v_C(trial_PE)[UP]_subj.2'
p956
(dp957
S'adaptive_scale_factor'
p958
F1
sS'proposal_distribution'
p959
S'Normal'
p960
sS'proposal_sd'
p961
cnumpy.core.multiarray
scalar
p962
(g8
S'\xd3"\x18\xb5\xd8<\xfd?'
tRp963
sS'accepted'
p964
F0
sS'check_before_accepting'
p965
I01
sS'rejected'
p966
F0
ssS'SliceStep_v_C(trial_PE)[UP]_subj.1'
p967
(dp968
g958
F1
sg959
g960
sg961
g962
(g8
S'\x15\xf8\x9fN3\x12\xfe?'
tRp969
sg964
F0
sg965
I01
sg966
F0
ssS'SliceStep_v_C(trial_PE)[PP]_subj.12'
p970
(dp971
g958
F1
sg959
g960
sg961
g962
(g8
S']\x07\x85\x0f\xcel\xf4?'
tRp972
sg964
F0
sg965
I01
sg966
F0
ssS'SliceStep_v_C(trial_PE)[UU]_subj.31'
p973
(dp974
g958
F1
sg959
g960
sg961
g962
(g8
S'\x84\xfe\xb8\x05\xbe\xb6\xfd?'
tRp975
sg964
F0
sg965
I01
sg966
F0
ssS'SliceStep_v_C(trial_PE)[UU]_subj.30'
p976
(dp977
g958
F1
sg959
g960
sg961
g962
(g8
S'\x80w\x11\xc6\xed2\xfa?'
tRp978
sg964
F0
sg965
I01
sg966
F0
ssS'SliceStep_v_C(trial_PE)[UU]_subj.32'
p979
(dp980
g958
F1
sg959
g960
sg961
g962
(g8
S'l\x8f\x80\x11\xfa\xfd\xfc?'
tRp981
sg964
F0
sg965
I01
sg966
F0
ssS'SliceStep_v_C(trial_PE)[PP]_subj.4'
p982
(dp983
g958
F1
sg959
g960
sg961
g962
(g8
S'\xeb\x92\x88\xd0sB\xfb?'
tRp984
sg964
F0
sg965
I01
sg966
F0
ssS'SliceStep_t_C(trial_PE)[PU]_subj.14'
p985
(dp986
g958
F1
sg959
g960
sg961
g962
(g8
S'<m\x0c\xc4\xe2d\xe1?'
tRp987
sg964
F0
sg965
I01
sg966
F0
ssS'kNormalNormal_v_C(trial_PE)[PU]'
p988
(dp989
g958
F1
sg959
g960
sg961
g962
(g8
S'\x12\x94\xbc\xb1b\xb8\xfd?'
tRp990
sg964
F0
sg965
I01
sg966
F0
ssS'SliceStep_v_C(trial_PE)[PP]_subj.14'
p991
(dp992
g958
F1
sg959
g960
sg961
g962
(g8
S"H\x06\xecNr'\xf7?"
tRp993
sg964
F0
sg965
I01
sg966
F0
ssS'SliceStep_v_C(trial_PE)[UP]_subj.5'
p994
(dp995
g958
F1
sg959
g960
sg961
g962
(g8
S'O\x86\x8b\xa0\x7f\xfc\xfe?'
tRp996
sg964
F0
sg965
I01
sg966
F0
ssS'SliceStep_t_C(trial_PE)[UU]'
p997
(dp998
g958
F1
sg959
g960
sg961
g962
(g8
S'\xd5=\xf0]\xe3\x1a\xdc?'
tRp999
sg964
F0
sg965
I01
sg966
F0
ssS'SliceStep_t_C(trial_PE)[PU]_subj.9'
p1000
(dp1001
g958
F1
sg959
g960
sg961
g962
(g8
S'\x90\xa1W\xc6J\x0c\xdf?'
tRp1002
sg964
F0
sg965
I01
sg966
F0
ssS'SliceStep_v_C(trial_PE)[PP]_subj.17'
p1003
(dp1004
g958
F1
sg959
g960
sg961
g962
(g8
S'\xbd9\xccF;F\xf6?'
tRp1005
sg964
F0
sg965
I01
sg966
F0
ssS'SliceStep_a_subj.9'
p1006
(dp1007
g958
F1
sg959
g960
sg961
g962
(g8
S'\xef\xc3\x03\x9f\x0b\x11\xf9?'
tRp1008
sg964
F0
sg965
I01
sg966
F0
ssS'SliceStep_a_subj.8'
p1009
(dp1010
g958
F1
sg959
g960
sg961
g962
(g8
S'O\xb6\\)\x1fK\xfe?'
tRp1011
sg964
F0
sg965
I01
sg966
F0
ssS'SliceStep_a_subj.7'
p1012
(dp1013
g958
F1
sg959
g960
sg961
g962
(g8
S'\x9c\x1b\x02\x0c\x91Q\x05@'
tRp1014
sg964
F0
sg965
I01
sg966
F0
ssS'SliceStep_a_subj.13'
p1015
(dp1016
g958
F1
sg959
g960
sg961
g962
(g8
S'\xa8P-\xd3d/\x02@'
tRp1017
sg964
F0
sg965
I01
sg966
F0
ssS'SliceStep_a_subj.5'
p1018
(dp1019
g958
F1
sg959
g960
sg961
g962
(g8
S'e\r\xde\xad\x9e~\xfd?'
tRp1020
sg964
F0
sg965
I01
sg966
F0
ssS'SliceStep_v_C(trial_PE)[PP]_subj.16'
p1021
(dp1022
g958
F1
sg959
g960
sg961
g962
(g8
S'e\xd5I\xda\x0e\x14\xf8?'
tRp1023
sg964
F0
sg965
I01
sg966
F0
ssS'SliceStep_a_subj.3'
p1024
(dp1025
g958
F1
sg959
g960
sg961
g962
(g8
S'\x95\xcb\xfd\xda\xcd\xe1\xfe?'
tRp1026
sg964
F0
sg965
I01
sg966
F0
ssS'SliceStep_a_subj.2'
p1027
(dp1028
g958
F1
sg959
g960
sg961
g962
(g8
S'x\xa1H\xe6\xac\x1c\x03@'
tRp1029
sg964
F0
sg965
I01
sg966
F0
ssS'SliceStep_a_subj.1'
p1030
(dp1031
g958
F1
sg959
g960
sg961
g962
(g8
S')\xa6\x9e\xbe\x9e\xee\xfc?'
tRp1032
sg964
F0
sg965
I01
sg966
F0
ssS'SliceStep_a_subj.0'
p1033
(dp1034
g958
F1
sg959
g960
sg961
g962
(g8
S'p,O\xc6\xaf\xb8\x01@'
tRp1035
sg964
F0
sg965
I01
sg966
F0
ssS'SliceStep_t_C(trial_PE)[PP]_subj.22'
p1036
(dp1037
g958
F1
sg959
g960
sg961
g962
(g8
S'\x10\x8f\x88p\xf0\xe2\xda?'
tRp1038
sg964
F0
sg965
I01
sg966
F0
ssS'SliceStep_t_C(trial_PE)[PP]_subj.23'
p1039
(dp1040
g958
F1
sg959
g960
sg961
g962
(g8
S'7\xc99(\x14G\xcc?'
tRp1041
sg964
F0
sg965
I01
sg966
F0
ssS'SliceStep_t_C(trial_PE)[PP]_subj.20'
p1042
(dp1043
g958
F1
sg959
g960
sg961
g962
(g8
S'\xf0\xcf\x88\xf2\xbe\xdf\xd5?'
tRp1044
sg964
F0
sg965
I01
sg966
F0
ssS'SliceStep_t_C(trial_PE)[PP]_subj.21'
p1045
(dp1046
g958
F1
sg959
g960
sg961
g962
(g8
S'\x0c2\xa9\x0b\x16\xc5\xd1?'
tRp1047
sg964
F0
sg965
I01
sg966
F0
ssS'SliceStep_t_C(trial_PE)[PP]_subj.26'
p1048
(dp1049
g958
F1
sg959
g960
sg961
g962
(g8
S'\xa0\xeb!o#1\xd3?'
tRp1050
sg964
F0
sg965
I01
sg966
F0
ssS'SliceStep_t_C(trial_PE)[PP]_subj.27'
p1051
(dp1052
g958
F1
sg959
g960
sg961
g962
(g8
S'O\xea\xe2\xfc\xbc\xe8\xd7?'
tRp1053
sg964
F0
sg965
I01
sg966
F0
ssS'SliceStep_t_C(trial_PE)[PP]_subj.24'
p1054
(dp1055
g958
F1
sg959
g960
sg961
g962
(g8
S' \xbb?\x9f\x8b\x88\xd4?'
tRp1056
sg964
F0
sg965
I01
sg966
F0
ssS'SliceStep_t_C(trial_PE)[UP]_subj.22'
p1057
(dp1058
g958
F1
sg959
g960
sg961
g962
(g8
S'D\x98\x9b\xd8\xf4\xeb\xd7?'
tRp1059
sg964
F0
sg965
I01
sg966
F0
ssS'SliceStep_t_C(trial_PE)[UU]_subj.32'
p1060
(dp1061
g958
F1
sg959
g960
sg961
g962
(g8
S'O\x05\xa7O/S\xd9?'
tRp1062
sg964
F0
sg965
I01
sg966
F0
ssS'SliceStep_t_C(trial_PE)[PP]_subj.28'
p1063
(dp1064
g958
F1
sg959
g960
sg961
g962
(g8
S'\xc5\xdci\xa1\r\x87\xd2?'
tRp1065
sg964
F0
sg965
I01
sg966
F0
ssS'SliceStep_t_C(trial_PE)[UU]_subj.30'
p1066
(dp1067
g958
F1
sg959
g960
sg961
g962
(g8
S'\xf5F\xeb\x11\xee\xf0\xdb?'
tRp1068
sg964
F0
sg965
I01
sg966
F0
ssS'SliceStep_v_C(trial_PE)[UP]_subj.32'
p1069
(dp1070
g958
F1
sg959
g960
sg961
g962
(g8
S'\x04.3\x96\x7f_\xfd?'
tRp1071
sg964
F0
sg965
I01
sg966
F0
ssS'SliceStep_t_C(trial_PE)[UP]_subj.27'
p1072
(dp1073
g958
F1
sg959
g960
sg961
g962
(g8
S'K\xe2\xe0\x8dh#\xdc?'
tRp1074
sg964
F0
sg965
I01
sg966
F0
ssS'SliceStep_v_C(trial_PE)[UP]_subj.30'
p1075
(dp1076
g958
F1
sg959
g960
sg961
g962
(g8
S'\x9cK\xe0\xc4\x81\x9d\xf8?'
tRp1077
sg964
F0
sg965
I01
sg966
F0
ssS'SliceStep_v_C(trial_PE)[UP]_subj.31'
p1078
(dp1079
g958
F1
sg959
g960
sg961
g962
(g8
S'\xc8q\x99\x12Uk\xfd?'
tRp1080
sg964
F0
sg965
I01
sg966
F0
ssS'SliceStep_t_C(trial_PE)[PU]_subj.0'
p1081
(dp1082
g958
F1
sg959
g960
sg961
g962
(g8
S'\x1a\xd0G$\x91\x18\xe6?'
tRp1083
sg964
F0
sg965
I01
sg966
F0
ssS'SliceStep_a_subj.22'
p1084
(dp1085
g958
F1
sg959
g960
sg961
g962
(g8
S'\x19\x05\xa8\xf3f\x88\x01@'
tRp1086
sg964
F0
sg965
I01
sg966
F0
ssS'SliceStep_sv'
p1087
(dp1088
g958
F1
sg959
g960
sg961
g962
(g8
S'\xbbZ]#?\x9d\xf4='
tRp1089
sg964
F0
sg965
I01
sg966
F0
ssS'SliceStep_v_C(trial_PE)[UU]_subj.28'
p1090
(dp1091
g958
F1
sg959
g960
sg961
g962
(g8
S'\x92{eE\\\xef\xfc?'
tRp1092
sg964
F0
sg965
I01
sg966
F0
ssS'SliceStep_t_C(trial_PE)[PU]_subj.1'
p1093
(dp1094
g958
F1
sg959
g960
sg961
g962
(g8
S'\x018\xc2.\xbc}\xdb?'
tRp1095
sg964
F0
sg965
I01
sg966
F0
ssS'SliceStep_v_C(trial_PE)[UU]_subj.22'
p1096
(dp1097
g958
F1
sg959
g960
sg961
g962
(g8
S'$\xf16\xb8\xd9\xfd\xfd?'
tRp1098
sg964
F0
sg965
I01
sg966
F0
ssS'SliceStep_v_C(trial_PE)[UU]_subj.23'
p1099
(dp1100
g958
F1
sg959
g960
sg961
g962
(g8
S'\xca9\xb0:C\xfd\xfc?'
tRp1101
sg964
F0
sg965
I01
sg966
F0
ssS'SliceStep_v_C(trial_PE)[UU]_subj.20'
p1102
(dp1103
g958
F1
sg959
g960
sg961
g962
(g8
S'(\x9b\xa1HM\x12\x00@'
tRp1104
sg964
F0
sg965
I01
sg966
F0
ssS'SliceStep_v_C(trial_PE)[UU]_subj.21'
p1105
(dp1106
g958
F1
sg959
g960
sg961
g962
(g8
S'\x1cn19\xfe\x8d\xfe?'
tRp1107
sg964
F0
sg965
I01
sg966
F0
ssS'SliceStep_v_C(trial_PE)[UU]_subj.26'
p1108
(dp1109
g958
F1
sg959
g960
sg961
g962
(g8
S'k\x07\xeb\xbc\x8b#\xfd?'
tRp1110
sg964
F0
sg965
I01
sg966
F0
ssS'SliceStep_v_C(trial_PE)[UU]_subj.27'
p1111
(dp1112
g958
F1
sg959
g960
sg961
g962
(g8
S'A\xd1\x89\x9dW\xf2\xfb?'
tRp1113
sg964
F0
sg965
I01
sg966
F0
ssS'SliceStep_v_C(trial_PE)[UU]_subj.24'
p1114
(dp1115
g958
F1
sg959
g960
sg961
g962
(g8
S'\xe0\xdf\xf0\xc4\xef<\xfb?'
tRp1116
sg964
F0
sg965
I01
sg966
F0
ssS'SliceStep_v_C(trial_PE)[UU]_subj.25'
p1117
(dp1118
g958
F1
sg959
g960
sg961
g962
(g8
S'\x00\x97\x7fri\x86\xfc?'
tRp1119
sg964
F0
sg965
I01
sg966
F0
ssS'SliceStep_t_C(trial_PE)[PU]_subj.32'
p1120
(dp1121
g958
F1
sg959
g960
sg961
g962
(g8
S'\xe6\x07\xffUY\x98\xd5?'
tRp1122
sg964
F0
sg965
I01
sg966
F0
ssS'SliceStep_v_C(trial_PE)[PU]_std'
p1123
(dp1124
g958
F1
sg959
g960
sg961
g962
(g8
S'\xeelZn\x19%\xb3?'
tRp1125
sg964
F0
sg965
I01
sg966
F0
ssS'SliceStep_t_C(trial_PE)[PP]_subj.9'
p1126
(dp1127
g958
F1
sg959
g960
sg961
g962
(g8
S'B\x04*\x85~E\xdb?'
tRp1128
sg964
F0
sg965
I01
sg966
F0
ssS'SliceStep_t_C(trial_PE)[PP]_subj.8'
p1129
(dp1130
g958
F1
sg959
g960
sg961
g962
(g8
S'>\xd3\xa8w\xa2k\xde?'
tRp1131
sg964
F0
sg965
I01
sg966
F0
ssS'SliceStep_v_C(trial_PE)[T.UU]:pupil_response_1'
p1132
(dp1133
g958
F1
sg959
g960
sg961
g962
(g8
S'\x18=\xd1\xe8\xa1\x0b\xb3='
tRp1134
sg964
F0
sg965
I01
sg966
F0
ssS'SliceStep_t_C(trial_PE)[PU]_subj.4'
p1135
(dp1136
g958
F1
sg959
g960
sg961
g962
(g8
S'\xf1\x7fMY\x8fR\xdb?'
tRp1137
sg964
F0
sg965
I01
sg966
F0
ssS'SliceStep_t_C(trial_PE)[PP]_subj.3'
p1138
(dp1139
g958
F1
sg959
g960
sg961
g962
(g8
S'Y\x1a5\x81Q\x00\xdd?'
tRp1140
sg964
F0
sg965
I01
sg966
F0
ssS'SliceStep_t_C(trial_PE)[PP]_subj.2'
p1141
(dp1142
g958
F1
sg959
g960
sg961
g962
(g8
S'9?\x84\xd1v\xc3\xe0?'
tRp1143
sg964
F0
sg965
I01
sg966
F0
ssS'SliceStep_t_C(trial_PE)[PP]_subj.1'
p1144
(dp1145
g958
F1
sg959
g960
sg961
g962
(g8
S'\xc6.\xf1\xf3\xa9A\xdd?'
tRp1146
sg964
F0
sg965
I01
sg966
F0
ssS'SliceStep_t_C(trial_PE)[PP]_subj.0'
p1147
(dp1148
g958
F1
sg959
g960
sg961
g962
(g8
S']\x05\\\x9d\x81\xbe\xe3?'
tRp1149
sg964
F0
sg965
I01
sg966
F0
ssS'SliceStep_t_C(trial_PE)[PP]_subj.7'
p1150
(dp1151
g958
F1
sg959
g960
sg961
g962
(g8
S'\x1e\x1e\xa3^\x82\xd9\xde?'
tRp1152
sg964
F0
sg965
I01
sg966
F0
ssS'SliceStep_t_C(trial_PE)[PP]_subj.6'
p1153
(dp1154
g958
F1
sg959
g960
sg961
g962
(g8
S" 'G\x19@S\xdb?"
tRp1155
sg964
F0
sg965
I01
sg966
F0
ssS'SliceStep_t_C(trial_PE)[PP]_subj.5'
p1156
(dp1157
g958
F1
sg959
g960
sg961
g962
(g8
S'\xb9\xbe\xd3\x1b\x17&\xd7?'
tRp1158
sg964
F0
sg965
I01
sg966
F0
ssS'SliceStep_t_C(trial_PE)[PP]_subj.4'
p1159
(dp1160
g958
F1
sg959
g960
sg961
g962
(g8
S'\x96\xd2_3\xd0\x17\xdc?'
tRp1161
sg964
F0
sg965
I01
sg966
F0
ssS'SliceStep_t_C(trial_PE)[UU]_subj.28'
p1162
(dp1163
g958
F1
sg959
g960
sg961
g962
(g8
S"s'\xa5\xd4\xaf\x84\xd2?"
tRp1164
sg964
F0
sg965
I01
sg966
F0
ssS'SliceStep_t_C(trial_PE)[UU]_subj.29'
p1165
(dp1166
g958
F1
sg959
g960
sg961
g962
(g8
S'P\xc3\xd8n\xc3\x87\xcc?'
tRp1167
sg964
F0
sg965
I01
sg966
F0
ssS'SliceStep_a_subj.31'
p1168
(dp1169
g958
F1
sg959
g960
sg961
g962
(g8
S'b\x88\x00\x030\xdb\x00@'
tRp1170
sg964
F0
sg965
I01
sg966
F0
ssS'SliceStep_t_C(trial_PE)[UU]_subj.20'
p1171
(dp1172
g958
F1
sg959
g960
sg961
g962
(g8
S'\xe1\xccV4\x91o\xd7?'
tRp1173
sg964
F0
sg965
I01
sg966
F0
ssS'SliceStep_t_C(trial_PE)[UU]_subj.21'
p1174
(dp1175
g958
F1
sg959
g960
sg961
g962
(g8
S'\xf2/\x08\x98\xe5\xf4\xd0?'
tRp1176
sg964
F0
sg965
I01
sg966
F0
ssS'SliceStep_t_C(trial_PE)[UU]_subj.22'
p1177
(dp1178
g958
F1
sg959
g960
sg961
g962
(g8
S'\xb6\xc1U\x1a+\x97\xd4?'
tRp1179
sg964
F0
sg965
I01
sg966
F0
ssS'SliceStep_t_C(trial_PE)[UU]_subj.23'
p1180
(dp1181
g958
F1
sg959
g960
sg961
g962
(g8
S'\xa5\x1c\xa6\xc4!\xbd\xcd?'
tRp1182
sg964
F0
sg965
I01
sg966
F0
ssS'SliceStep_t_C(trial_PE)[UU]_subj.24'
p1183
(dp1184
g958
F1
sg959
g960
sg961
g962
(g8
S'\xe6\xdd\x9d\x85z]\xd6?'
tRp1185
sg964
F0
sg965
I01
sg966
F0
ssS'SliceStep_t_C(trial_PE)[UU]_subj.25'
p1186
(dp1187
g958
F1
sg959
g960
sg961
g962
(g8
S'\xa3d \x7f4\x01\xd2?'
tRp1188
sg964
F0
sg965
I01
sg966
F0
ssS'SliceStep_t_C(trial_PE)[UU]_subj.26'
p1189
(dp1190
g958
F1
sg959
g960
sg961
g962
(g8
S'\xde\xa7Ah"&\xd7?'
tRp1191
sg964
F0
sg965
I01
sg966
F0
ssS'SliceStep_t_C(trial_PE)[UU]_subj.27'
p1192
(dp1193
g958
F1
sg959
g960
sg961
g962
(g8
S'\xcb2\x8a\x15\x97W\xe0?'
tRp1194
sg964
F0
sg965
I01
sg966
F0
ssS'SliceStep_v_C(trial_PE)[PU]_subj.30'
p1195
(dp1196
g958
F1
sg959
g960
sg961
g962
(g8
S'a\xad\xda\x85b\xe0\xfa?'
tRp1197
sg964
F0
sg965
I01
sg966
F0
ssS'SliceStep_t_C(trial_PE)[UP]_subj.18'
p1198
(dp1199
g958
F1
sg959
g960
sg961
g962
(g8
S'\x11\xf9=\\\xb2\x1b\xd8?'
tRp1200
sg964
F0
sg965
I01
sg966
F0
ssS'SliceStep_v_C(trial_PE)[PU]_subj.31'
p1201
(dp1202
g958
F1
sg959
g960
sg961
g962
(g8
S't\xb1w\x04\x9b\x02\xff?'
tRp1203
sg964
F0
sg965
I01
sg966
F0
ssS'SliceStep_v_C(trial_PE)[PP]_subj.18'
p1204
(dp1205
g958
F1
sg959
g960
sg961
g962
(g8
S'\x0b\n\x89\xb2\xde\x85\xfd?'
tRp1206
sg964
F0
sg965
I01
sg966
F0
ssS'SliceStep_v_C(trial_PE)[PU]_subj.32'
p1207
(dp1208
g958
F1
sg959
g960
sg961
g962
(g8
S'\xbb\xcc\xb4\xb4%\x9f\xfc?'
tRp1209
sg964
F0
sg965
I01
sg966
F0
ssS'SliceStep_t_C(trial_PE)[PU]_std'
p1210
(dp1211
g958
F1
sg959
g960
sg961
g962
(g8
S'1\x12q\xb5l0\xbc?'
tRp1212
sg964
F0
sg965
I01
sg966
F0
ssS'SliceStep_v_C(trial_PE)[UP]_subj.26'
p1213
(dp1214
g958
F1
sg959
g960
sg961
g962
(g8
S'\x9d\n\xd3\xba\xab\x1b\xfd?'
tRp1215
sg964
F0
sg965
I01
sg966
F0
ssS'kNormalNormal_v_C(trial_PE)[UU]'
p1216
(dp1217
g958
F1
sg959
g960
sg961
g962
(g8
S'\t\x99~\xd3\x04\x95\xfd?'
tRp1218
sg964
F0
sg965
I01
sg966
F0
ssS'SliceStep_t_C(trial_PE)[PP]'
p1219
(dp1220
g958
F1
sg959
g960
sg961
g962
(g8
S'\x80\xb6\xabO\x84\xba\xd8?'
tRp1221
sg964
F0
sg965
I01
sg966
F0
ssS'SliceStep_v_C(trial_PE)[PP]_subj.9'
p1222
(dp1223
g958
F1
sg959
g960
sg961
g962
(g8
S'\xa5\xe7\x03\xbb\xc7\x91\xfb?'
tRp1224
sg964
F0
sg965
I01
sg966
F0
ssS'SliceStep_v_C(trial_PE)[PP]_subj.8'
p1225
(dp1226
g958
F1
sg959
g960
sg961
g962
(g8
S'\xd7*\xa6\xf2\xccq\xfb?'
tRp1227
sg964
F0
sg965
I01
sg966
F0
ssS'SliceStep_a_subj.6'
p1228
(dp1229
g958
F1
sg959
g960
sg961
g962
(g8
S'\xc0\xae\xe2\xf2\xbcg\x01@'
tRp1230
sg964
F0
sg965
I01
sg966
F0
ssS'SliceStep_v_C(trial_PE)[PP]_subj.5'
p1231
(dp1232
g958
F1
sg959
g960
sg961
g962
(g8
S'\xb9\xbe@\xef-\xb4\xfa?'
tRp1233
sg964
F0
sg965
I01
sg966
F0
ssS'SliceStep_v_C(trial_PE)[PU]_subj.8'
p1234
(dp1235
g958
F1
sg959
g960
sg961
g962
(g8
S'L\xef4\x8f9\xf7\xfe?'
tRp1236
sg964
F0
sg965
I01
sg966
F0
ssS'SliceStep_v_C(trial_PE)[PP]_subj.7'
p1237
(dp1238
g958
F1
sg959
g960
sg961
g962
(g8
S'\xfd\x83&N#\x0c\xf6?'
tRp1239
sg964
F0
sg965
I01
sg966
F0
ssS'SliceStep_v_C(trial_PE)[PP]_subj.6'
p1240
(dp1241
g958
F1
sg959
g960
sg961
g962
(g8
S'i.\xba\xb0\x96\x9a\xf7?'
tRp1242
sg964
F0
sg965
I01
sg966
F0
ssS'SliceStep_v_C(trial_PE)[PP]_subj.1'
p1243
(dp1244
g958
F1
sg959
g960
sg961
g962
(g8
S'\xf2OU\xda#\xdc\xf9?'
tRp1245
sg964
F0
sg965
I01
sg966
F0
ssS'SliceStep_v_C(trial_PE)[PP]_subj.0'
p1246
(dp1247
g958
F1
sg959
g960
sg961
g962
(g8
S'\xe3\xa6\x1f\xbe\xcd5\xf6?'
tRp1248
sg964
F0
sg965
I01
sg966
F0
ssS'SliceStep_v_C(trial_PE)[PP]_subj.3'
p1249
(dp1250
g958
F1
sg959
g960
sg961
g962
(g8
S'I\xdfk,\xca\xed\xfb?'
tRp1251
sg964
F0
sg965
I01
sg966
F0
ssS'SliceStep_v_C(trial_PE)[PP]_subj.2'
p1252
(dp1253
g958
F1
sg959
g960
sg961
g962
(g8
S'\x15\xfe\x17[\xeb\xb5\xf5?'
tRp1254
sg964
F0
sg965
I01
sg966
F0
ssS'SliceStep_a_subj.4'
p1255
(dp1256
g958
F1
sg959
g960
sg961
g962
(g8
S'\x8b\xf0(aA8\xfc?'
tRp1257
sg964
F0
sg965
I01
sg966
F0
ssS'SliceStep_t_C(trial_PE)[UU]_subj.19'
p1258
(dp1259
g958
F1
sg959
g960
sg961
g962
(g8
S'SN\xb9\xa4M\xab\xe1?'
tRp1260
sg964
F0
sg965
I01
sg966
F0
ssS'SliceStep_t_C(trial_PE)[UU]_subj.18'
p1261
(dp1262
g958
F1
sg959
g960
sg961
g962
(g8
S'"\xb5"\x10m*\xd7?'
tRp1263
sg964
F0
sg965
I01
sg966
F0
ssS'SliceStep_t_C(trial_PE)[UU]_subj.15'
p1264
(dp1265
g958
F1
sg959
g960
sg961
g962
(g8
S'\xf6i\x7f\x96\xc15\xde?'
tRp1266
sg964
F0
sg965
I01
sg966
F0
ssS'SliceStep_t_C(trial_PE)[PP]_std'
p1267
(dp1268
g958
F1
sg959
g960
sg961
g962
(g8
S'\xeb\x06\xaf\xa6\x95H\xb9?'
tRp1269
sg964
F0
sg965
I01
sg966
F0
ssS'SliceStep_t_C(trial_PE)[UU]_subj.17'
p1270
(dp1271
g958
F1
sg959
g960
sg961
g962
(g8
S'\x11UOuS\x93\xda?'
tRp1272
sg964
F0
sg965
I01
sg966
F0
ssS'SliceStep_t_C(trial_PE)[UU]_subj.16'
p1273
(dp1274
g958
F1
sg959
g960
sg961
g962
(g8
S'\xa2\xe3\xff\x00\x1d\xff\xd7?'
tRp1275
sg964
F0
sg965
I01
sg966
F0
ssS'SliceStep_t_C(trial_PE)[UU]_subj.11'
p1276
(dp1277
g958
F1
sg959
g960
sg961
g962
(g8
S'\xe7\xcc\xe5\x8a\xeb\x9d\xe3?'
tRp1278
sg964
F0
sg965
I01
sg966
F0
ssS'SliceStep_t_C(trial_PE)[UU]_subj.10'
p1279
(dp1280
g958
F1
sg959
g960
sg961
g962
(g8
S'3\x0b\xb4\xfb\x01\xf2\xe1?'
tRp1281
sg964
F0
sg965
I01
sg966
F0
ssS'SliceStep_t_C(trial_PE)[UU]_subj.13'
p1282
(dp1283
g958
F1
sg959
g960
sg961
g962
(g8
S'\xd6\xbfN\xba\xa5\xd5\xdc?'
tRp1284
sg964
F0
sg965
I01
sg966
F0
ssS'SliceStep_t_C(trial_PE)[UU]_subj.12'
p1285
(dp1286
g958
F1
sg959
g960
sg961
g962
(g8
S'\xc8\xa1\x12\x8e*\x1a\xe0?'
tRp1287
sg964
F0
sg965
I01
sg966
F0
ssS'SliceStep_t_C(trial_PE)[UP]_subj.23'
p1288
(dp1289
g958
F1
sg959
g960
sg961
g962
(g8
S'\xbc\xf2Z\x0c7]\xce?'
tRp1290
sg964
F0
sg965
I01
sg966
F0
ssS'SliceStep_a_subj.26'
p1291
(dp1292
g958
F1
sg959
g960
sg961
g962
(g8
S'^oT\x92\xe6]\x01@'
tRp1293
sg964
F0
sg965
I01
sg966
F0
ssS'SliceStep_t_C(trial_PE)[UP]_subj.21'
p1294
(dp1295
g958
F1
sg959
g960
sg961
g962
(g8
S'\xe28\x15\xba\xc4\x91\xd5?'
tRp1296
sg964
F0
sg965
I01
sg966
F0
ssS'SliceStep_t_C(trial_PE)[UP]_subj.20'
p1297
(dp1298
g958
F1
sg959
g960
sg961
g962
(g8
S'\xaf\x0c\xf2,[n\xd8?'
tRp1299
sg964
F0
sg965
I01
sg966
F0
ssS'SliceStep_t_C(trial_PE)[PU]_subj.8'
p1300
(dp1301
g958
F1
sg959
g960
sg961
g962
(g8
S'\x8dj*Lb8\xe0?'
tRp1302
sg964
F0
sg965
I01
sg966
F0
ssS'SliceStep_t_C(trial_PE)[UP]_subj.26'
p1303
(dp1304
g958
F1
sg959
g960
sg961
g962
(g8
S'y\xc7\xa8\x85\xdc\xce\xd5?'
tRp1305
sg964
F0
sg965
I01
sg966
F0
ssS'SliceStep_t_C(trial_PE)[UP]_subj.25'
p1306
(dp1307
g958
F1
sg959
g960
sg961
g962
(g8
S'\xb7(\xb8J\xa8j\xdb?'
tRp1308
sg964
F0
sg965
I01
sg966
F0
ssS'SliceStep_t_C(trial_PE)[UP]_subj.24'
p1309
(dp1310
g958
F1
sg959
g960
sg961
g962
(g8
S'1\xef<\xda7\xc1\xd5?'
tRp1311
sg964
F0
sg965
I01
sg966
F0
ssS'SliceStep_t_C(trial_PE)[UP]_subj.29'
p1312
(dp1313
g958
F1
sg959
g960
sg961
g962
(g8
S'\xcec\x1a^L\xe3\xd1?'
tRp1314
sg964
F0
sg965
I01
sg966
F0
ssS'SliceStep_t_C(trial_PE)[UP]_subj.28'
p1315
(dp1316
g958
F1
sg959
g960
sg961
g962
(g8
S'\x8c\xa3\xbeN\x02\x1d\xd6?'
tRp1317
sg964
F0
sg965
I01
sg966
F0
ssS'SliceStep_v_C(trial_PE)[PU]_subj.6'
p1318
(dp1319
g958
F1
sg959
g960
sg961
g962
(g8
S'\xec\xb1\x80\x98\xf7\xaf\xfd?'
tRp1320
sg964
F0
sg965
I01
sg966
F0
ssS'SliceStep_t_C(trial_PE)[UP]_subj.0'
p1321
(dp1322
g958
F1
sg959
g960
sg961
g962
(g8
S'\xcf\xf2%\xc7vu\xe6?'
tRp1323
sg964
F0
sg965
I01
sg966
F0
ssS'SliceStep_t_C(trial_PE)[UP]_subj.1'
p1324
(dp1325
g958
F1
sg959
g960
sg961
g962
(g8
S'\x9a\xea6\xd7\xaaa\xdd?'
tRp1326
sg964
F0
sg965
I01
sg966
F0
ssS'SliceStep_t_C(trial_PE)[UP]_subj.2'
p1327
(dp1328
g958
F1
sg959
g960
sg961
g962
(g8
S'U\xd0$\x1a\xf4\x90\xe4?'
tRp1329
sg964
F0
sg965
I01
sg966
F0
ssS'SliceStep_t_C(trial_PE)[UP]_subj.3'
p1330
(dp1331
g958
F1
sg959
g960
sg961
g962
(g8
S'\xa1\x93\x00\x84\xf5i\xe4?'
tRp1332
sg964
F0
sg965
I01
sg966
F0
ssS'SliceStep_t_C(trial_PE)[UP]_subj.4'
p1333
(dp1334
g958
F1
sg959
g960
sg961
g962
(g8
S'\xcd7\x9bEA\x95\xda?'
tRp1335
sg964
F0
sg965
I01
sg966
F0
ssS'SliceStep_t_C(trial_PE)[UP]_subj.5'
p1336
(dp1337
g958
F1
sg959
g960
sg961
g962
(g8
S'I\x1a\xf1-\xb4\xd6\xdd?'
tRp1338
sg964
F0
sg965
I01
sg966
F0
ssS'SliceStep_t_C(trial_PE)[UP]_subj.6'
p1339
(dp1340
g958
F1
sg959
g960
sg961
g962
(g8
S'P\xfe\xee\xe1\x14!\xe2?'
tRp1341
sg964
F0
sg965
I01
sg966
F0
ssS'SliceStep_t_C(trial_PE)[UP]_subj.7'
p1342
(dp1343
g958
F1
sg959
g960
sg961
g962
(g8
S'\x99\n\x1eO\xdb\x01\xea?'
tRp1344
sg964
F0
sg965
I01
sg966
F0
ssS'SliceStep_t_C(trial_PE)[UP]_subj.8'
p1345
(dp1346
g958
F1
sg959
g960
sg961
g962
(g8
S'_l*M\xb9\xd9\xdc?'
tRp1347
sg964
F0
sg965
I01
sg966
F0
ssS'SliceStep_t_C(trial_PE)[UP]_subj.9'
p1348
(dp1349
g958
F1
sg959
g960
sg961
g962
(g8
S'\xd2&d\x988?\xdc?'
tRp1350
sg964
F0
sg965
I01
sg966
F0
ssS'SliceStep_v_C(trial_PE)[PU]_subj.1'
p1351
(dp1352
g958
F1
sg959
g960
sg961
g962
(g8
S'\xbaS\x92l\xdco\xff?'
tRp1353
sg964
F0
sg965
I01
sg966
F0
ssS'SliceStep_v_C(trial_PE)[PU]_subj.27'
p1354
(dp1355
g958
F1
sg959
g960
sg961
g962
(g8
S'\x1c\xf1\x81A\x0f0\xfd?'
tRp1356
sg964
F0
sg965
I01
sg966
F0
ssS'SliceStep_t_C(trial_PE)[PP]_subj.13'
p1357
(dp1358
g958
F1
sg959
g960
sg961
g962
(g8
S'/%\xf8\xd8\xc1Q\xdc?'
tRp1359
sg964
F0
sg965
I01
sg966
F0
ssS'SliceStep_v_C(trial_PE)[PU]_subj.25'
p1360
(dp1361
g958
F1
sg959
g960
sg961
g962
(g8
S'\xfc\xe9"\x9fg\xf6\xfc?'
tRp1362
sg964
F0
sg965
I01
sg966
F0
ssS'SliceStep_v_C(trial_PE)[PU]_subj.24'
p1363
(dp1364
g958
F1
sg959
g960
sg961
g962
(g8
S'9\x11H\xd53\xb5\xfa?'
tRp1365
sg964
F0
sg965
I01
sg966
F0
ssS'SliceStep_v_C(trial_PE)[PU]_subj.23'
p1366
(dp1367
g958
F1
sg959
g960
sg961
g962
(g8
S'\xac\xe5\x96\x05N\x86\xfd?'
tRp1368
sg964
F0
sg965
I01
sg966
F0
ssS'SliceStep_v_C(trial_PE)[PU]_subj.22'
p1369
(dp1370
g958
F1
sg959
g960
sg961
g962
(g8
S'\xa6\x8b\xe5c\xd6\x98\xfe?'
tRp1371
sg964
F0
sg965
I01
sg966
F0
ssS'SliceStep_v_C(trial_PE)[PU]_subj.21'
p1372
(dp1373
g958
F1
sg959
g960
sg961
g962
(g8
S'GN\xf88\xa2.\xfd?'
tRp1374
sg964
F0
sg965
I01
sg966
F0
ssS'SliceStep_t_C(trial_PE)[PP]_subj.12'
p1375
(dp1376
g958
F1
sg959
g960
sg961
g962
(g8
S'm\xeew\xe7\xea\x13\xdc?'
tRp1377
sg964
F0
sg965
I01
sg966
F0
ssS'SliceStep_a_subj.21'
p1378
(dp1379
g958
F1
sg959
g960
sg961
g962
(g8
S'/>dj\x85X\x02@'
tRp1380
sg964
F0
sg965
I01
sg966
F0
ssS'SliceStep_t_C(trial_PE)[UP]_std'
p1381
(dp1382
g958
F1
sg959
g960
sg961
g962
(g8
S'\xe8\xfe\x81H\xda\xeb\xbd?'
tRp1383
sg964
F0
sg965
I01
sg966
F0
ssS'SliceStep_t_C(trial_PE)[PP]_subj.11'
p1384
(dp1385
g958
F1
sg959
g960
sg961
g962
(g8
S'\xb3\x7fl\t\x8b\x84\xdd?'
tRp1386
sg964
F0
sg965
I01
sg966
F0
ssS'SliceStep_v_C(trial_PE)[PU]_subj.29'
p1387
(dp1388
g958
F1
sg959
g960
sg961
g962
(g8
S'">\x8d5\xa3\x90\xfc?'
tRp1389
sg964
F0
sg965
I01
sg966
F0
ssS'SliceStep_v_C(trial_PE)[PU]_subj.28'
p1390
(dp1391
g958
F1
sg959
g960
sg961
g962
(g8
S'\xc89M\x95a\x08\xfd?'
tRp1392
sg964
F0
sg965
I01
sg966
F0
ssS'SliceStep_t_C(trial_PE)[UP]_subj.11'
p1393
(dp1394
g958
F1
sg959
g960
sg961
g962
(g8
S'\xaa\x8a\xac]\xeal\xdf?'
tRp1395
sg964
F0
sg965
I01
sg966
F0
ssS'SliceStep_v_C(trial_PE)[PU]_subj.26'
p1396
(dp1397
g958
F1
sg959
g960
sg961
g962
(g8
S'\xe0\x8du\xb4\x13\xb1\xfd?'
tRp1398
sg964
F0
sg965
I01
sg966
F0
ssS'SliceStep_t_C(trial_PE)[UP]_subj.19'
p1399
(dp1400
g958
F1
sg959
g960
sg961
g962
(g8
S'\xa6\xa2\xca\xd4\xcf\xac\xdb?'
tRp1401
sg964
F0
sg965
I01
sg966
F0
ssS'SliceStep_t_C(trial_PE)[PP]_subj.17'
p1402
(dp1403
g958
F1
sg959
g960
sg961
g962
(g8
S' \xd5\xd94\xd8V\xd8?'
tRp1404
sg964
F0
sg965
I01
sg966
F0
ssS'SliceStep_t_C(trial_PE)[PP]_subj.25'
p1405
(dp1406
g958
F1
sg959
g960
sg961
g962
(g8
S'V\x08\xbaxP\x80\xd9?'
tRp1407
sg964
F0
sg965
I01
sg966
F0
ssS'SliceStep_t_C(trial_PE)[PP]_subj.16'
p1408
(dp1409
g958
F1
sg959
g960
sg961
g962
(g8
S'fv\x13EY\x14\xd7?'
tRp1410
sg964
F0
sg965
I01
sg966
F0
ssS'SliceStep_t_C(trial_PE)[UP]_subj.30'
p1411
(dp1412
g958
F1
sg959
g960
sg961
g962
(g8
S'y}!\xa2\xfdi\xd7?'
tRp1413
sg964
F0
sg965
I01
sg966
F0
ssS'SliceStep_t_C(trial_PE)[UP]_subj.31'
p1414
(dp1415
g958
F1
sg959
g960
sg961
g962
(g8
S'\xf3\x9d\x83{\xf9\x90\xd3?'
tRp1416
sg964
F0
sg965
I01
sg966
F0
ssS'SliceStep_t_C(trial_PE)[UP]_subj.32'
p1417
(dp1418
g958
F1
sg959
g960
sg961
g962
(g8
S'\xf4\xb2M\xa0,\xa9\xd7?'
tRp1419
sg964
F0
sg965
I01
sg966
F0
ssS'SliceStep_t_C(trial_PE)[PP]_subj.15'
p1420
(dp1421
g958
F1
sg959
g960
sg961
g962
(g8
S'\x05\xb2`C\xf9\xff\xd9?'
tRp1422
sg964
F0
sg965
I01
sg966
F0
ssS'SliceStep_t_C(trial_PE)[PP]_subj.14'
p1423
(dp1424
g958
F1
sg959
g960
sg961
g962
(g8
S'\xeb\xbd[\x046D\xde?'
tRp1425
sg964
F0
sg965
I01
sg966
F0
ssS'SliceStep_t_C(trial_PE)[UU]_subj.31'
p1426
(dp1427
g958
F1
sg959
g960
sg961
g962
(g8
S'\x99%\xe3x\xcd\xa5\xd2?'
tRp1428
sg964
F0
sg965
I01
sg966
F0
ssS'SliceStep_t_C(trial_PE)[UU]_std'
p1429
(dp1430
g958
F1
sg959
g960
sg961
g962
(g8
S'\xff\xe6\xd3\x82\x81#\xc0?'
tRp1431
sg964
F0
sg965
I01
sg966
F0
ssS'SliceStep_a_subj.17'
p1432
(dp1433
g958
F1
sg959
g960
sg961
g962
(g8
S'\xc0\x8e\xad8@A\x00@'
tRp1434
sg964
F0
sg965
I01
sg966
F0
ssS'SliceStep_a_subj.16'
p1435
(dp1436
g958
F1
sg959
g960
sg961
g962
(g8
S'<\xd5%\xf9\xc8\xdd\x00@'
tRp1437
sg964
F0
sg965
I01
sg966
F0
ssS'SliceStep_a_subj.15'
p1438
(dp1439
g958
F1
sg959
g960
sg961
g962
(g8
S'\x8b\xaa\xf5\xb3\xf6\x9b\x01@'
tRp1440
sg964
F0
sg965
I01
sg966
F0
ssS'SliceStep_t_C(trial_PE)[PP]_subj.29'
p1441
(dp1442
g958
F1
sg959
g960
sg961
g962
(g8
S'\xa0\x81\xef\xec<\xa2\xd1?'
tRp1443
sg964
F0
sg965
I01
sg966
F0
ssS'SliceStep_v_C(trial_PE)[UP]_subj.6'
p1444
(dp1445
g958
F1
sg959
g960
sg961
g962
(g8
S'\x04\xe5\xc3\x1f\x18\x9b\xfd?'
tRp1446
sg964
F0
sg965
I01
sg966
F0
ssS'SliceStep_a_subj.12'
p1447
(dp1448
g958
F1
sg959
g960
sg961
g962
(g8
S'\xdc\x90\xae\x83\x07\xab\x01@'
tRp1449
sg964
F0
sg965
I01
sg966
F0
ssS'SliceStep_a_subj.11'
p1450
(dp1451
g958
F1
sg959
g960
sg961
g962
(g8
S'\xa2\xe1\xcba\xe2}\x01@'
tRp1452
sg964
F0
sg965
I01
sg966
F0
ssS'SliceStep_a_subj.10'
p1453
(dp1454
g958
F1
sg959
g960
sg961
g962
(g8
S'\xa0\xcd\x1f5Xf\x00@'
tRp1455
sg964
F0
sg965
I01
sg966
F0
ssS'SliceStep_t_C(trial_PE)[PU]_subj.2'
p1456
(dp1457
g958
F1
sg959
g960
sg961
g962
(g8
S'\x94C\xd6\xf8\xb9\xbf\xe3?'
tRp1458
sg964
F0
sg965
I01
sg966
F0
ssS'SliceStep_t_C(trial_PE)[PU]_subj.3'
p1459
(dp1460
g958
F1
sg959
g960
sg961
g962
(g8
S'\xbc\x052\xce\xa6\xf1\xdf?'
tRp1461
sg964
F0
sg965
I01
sg966
F0
ssS'SliceStep_v_C(trial_PE)[UP]_subj.8'
p1462
(dp1463
g958
F1
sg959
g960
sg961
g962
(g8
S'\xa9FQ\xff\x9ds\xfe?'
tRp1464
sg964
F0
sg965
I01
sg966
F0
ssS'SliceStep_v_C(trial_PE)[UP]_subj.9'
p1465
(dp1466
g958
F1
sg959
g960
sg961
g962
(g8
S'\xea\x9dlb{|\xfe?'
tRp1467
sg964
F0
sg965
I01
sg966
F0
ssS'SliceStep_t_C(trial_PE)[PU]_subj.6'
p1468
(dp1469
g958
F1
sg959
g960
sg961
g962
(g8
S'x`\xa7\xb4\x04w\xe0?'
tRp1470
sg964
F0
sg965
I01
sg966
F0
ssS'SliceStep_t_C(trial_PE)[PU]_subj.7'
p1471
(dp1472
g958
F1
sg959
g960
sg961
g962
(g8
S'\x93\x94\x8cY\x88\x9e\xe2?'
tRp1473
sg964
F0
sg965
I01
sg966
F0
ssS'SliceStep_a_subj.19'
p1474
(dp1475
g958
F1
sg959
g960
sg961
g962
(g8
S'\x89D:3$J\x02@'
tRp1476
sg964
F0
sg965
I01
sg966
F0
ssS'SliceStep_a_subj.18'
p1477
(dp1478
g958
F1
sg959
g960
sg961
g962
(g8
S'R!t\xb9\t\xfc\xfa?'
tRp1479
sg964
F0
sg965
I01
sg966
F0
ssS'SliceStep_v_C(trial_PE)[UU]_subj.3'
p1480
(dp1481
g958
F1
sg959
g960
sg961
g962
(g8
S'\x0e\x16\xca\x0c\x14q\xfe?'
tRp1482
sg964
F0
sg965
I01
sg966
F0
ssS'SliceStep_v_C(trial_PE)[UU]_subj.2'
p1483
(dp1484
g958
F1
sg959
g960
sg961
g962
(g8
S'\x17\x07\x1dB@\x9b\xfc?'
tRp1485
sg964
F0
sg965
I01
sg966
F0
ssS'SliceStep_v_C(trial_PE)[UU]_subj.1'
p1486
(dp1487
g958
F1
sg959
g960
sg961
g962
(g8
S'\xb8Q\x9d\x13\x08\xe0\xfe?'
tRp1488
sg964
F0
sg965
I01
sg966
F0
ssS'SliceStep_v_C(trial_PE)[UU]_subj.0'
p1489
(dp1490
g958
F1
sg959
g960
sg961
g962
(g8
S'\xda\xe4K\x16\xe5e\xfe?'
tRp1491
sg964
F0
sg965
I01
sg966
F0
ssS'SliceStep_v_C(trial_PE)[UU]_subj.7'
p1492
(dp1493
g958
F1
sg959
g960
sg961
g962
(g8
S'C\x94\x0f\xb8\xb9\x9a\xfd?'
tRp1494
sg964
F0
sg965
I01
sg966
F0
ssS'SliceStep_v_C(trial_PE)[UU]_subj.6'
p1495
(dp1496
g958
F1
sg959
g960
sg961
g962
(g8
S'\x0eLN"\xfd\xde\xfe?'
tRp1497
sg964
F0
sg965
I01
sg966
F0
ssS'SliceStep_v_C(trial_PE)[UU]_subj.5'
p1498
(dp1499
g958
F1
sg959
g960
sg961
g962
(g8
S'\x88b\xfe,\xab\xe2\xfe?'
tRp1500
sg964
F0
sg965
I01
sg966
F0
ssS'SliceStep_v_C(trial_PE)[UU]_subj.4'
p1501
(dp1502
g958
F1
sg959
g960
sg961
g962
(g8
S'\xd4\x81\xda\x8d\x11k\xfe?'
tRp1503
sg964
F0
sg965
I01
sg966
F0
ssS'SliceStep_v_C(trial_PE)[UU]_subj.9'
p1504
(dp1505
g958
F1
sg959
g960
sg961
g962
(g8
S'v\xa8s\xe2Z\xbf\xff?'
tRp1506
sg964
F0
sg965
I01
sg966
F0
ssS'SliceStep_v_C(trial_PE)[UU]_subj.8'
p1507
(dp1508
g958
F1
sg959
g960
sg961
g962
(g8
S'J\xa5\xed\x14"\xd7\xfd?'
tRp1509
sg964
F0
sg965
I01
sg966
F0
ssS'SliceStep_t_C(trial_PE)[PP]_subj.31'
p1510
(dp1511
g958
F1
sg959
g960
sg961
g962
(g8
S'q\xc5\x18X\xefP\xcb?'
tRp1512
sg964
F0
sg965
I01
sg966
F0
ssS'SliceStep_v_C(trial_PE)[UU]_subj.11'
p1513
(dp1514
g958
F1
sg959
g960
sg961
g962
(g8
S'l\xd5\t)\x11\xb4\xfd?'
tRp1515
sg964
F0
sg965
I01
sg966
F0
ssS'SliceStep_v_C(trial_PE)[UU]_std'
p1516
(dp1517
g958
F1
sg959
g960
sg961
g962
(g8
S'N\xa8E\x8fq\xa6\xb3?'
tRp1518
sg964
F0
sg965
I01
sg966
F0
ssS'SliceStep_t_C(trial_PE)[PU]_subj.30'
p1519
(dp1520
g958
F1
sg959
g960
sg961
g962
(g8
S'\xc31\x91Y\xaa4\xdb?'
tRp1521
sg964
F0
sg965
I01
sg966
F0
ssS'SliceStep_v_C(trial_PE)[PP]_subj.32'
p1522
(dp1523
g958
F1
sg959
g960
sg961
g962
(g8
S'\t{\xdc)\x86\xd3\xf6?'
tRp1524
sg964
F0
sg965
I01
sg966
F0
ssS'SliceStep_v_C(trial_PE)[PP]_subj.31'
p1525
(dp1526
g958
F1
sg959
g960
sg961
g962
(g8
S'\xc2\xa7"\xe6\x04\xe6\xf8?'
tRp1527
sg964
F0
sg965
I01
sg966
F0
ssS'SliceStep_v_C(trial_PE)[PP]_subj.30'
p1528
(dp1529
g958
F1
sg959
g960
sg961
g962
(g8
S'\x17\xd7\xa6\xcb_\xf5\xe9?'
tRp1530
sg964
F0
sg965
I01
sg966
F0
ssS'SliceStep_t_C(trial_PE)[PU]_subj.5'
p1531
(dp1532
g958
F1
sg959
g960
sg961
g962
(g8
S'\xdc\xdf8\xe6\xa7v\xdd?'
tRp1533
sg964
F0
sg965
I01
sg966
F0
ssS'SliceStep_v_C(trial_PE)[T.UP]:pupil_response_1'
p1534
(dp1535
g958
F1
sg959
g960
sg961
g962
(g8
S'z1\xe2\xe7\x0e\xaf\xbd>'
tRp1536
sg964
F0
sg965
I01
sg966
F0
ssS'SliceStep_t_C(trial_PE)[PU]_subj.11'
p1537
(dp1538
g958
F1
sg959
g960
sg961
g962
(g8
S'\x99\xe71U\xeaH\xda?'
tRp1539
sg964
F0
sg965
I01
sg966
F0
ssS'SliceStep_v_C(trial_PE)[UU]_subj.10'
p1540
(dp1541
g958
F1
sg959
g960
sg961
g962
(g8
S'"\x90\x84\x0bJx\xfd?'
tRp1542
sg964
F0
sg965
I01
sg966
F0
ssS'SliceStep_a_std'
p1543
(dp1544
g958
F1
sg959
g960
sg961
g962
(g8
S'\x83#\xbe\xfe\xdbK\xd1?'
tRp1545
sg964
F0
sg965
I01
sg966
F0
ssS'SliceStep_t_C(trial_PE)[UU]_subj.14'
p1546
(dp1547
g958
F1
sg959
g960
sg961
g962
(g8
S'\x87\x01\x06\xa8\x97\x85\xe0?'
tRp1548
sg964
F0
sg965
I01
sg966
F0
ssS'SliceStep_t_C(trial_PE)[UU]_subj.9'
p1549
(dp1550
g958
F1
sg959
g960
sg961
g962
(g8
S'\x8el\xf2\x84\xd2\xcc\xde?'
tRp1551
sg964
F0
sg965
I01
sg966
F0
ssS'SliceStep_t_C(trial_PE)[UU]_subj.8'
p1552
(dp1553
g958
F1
sg959
g960
sg961
g962
(g8
S'&\x82\xa1\xe2\x08_\xde?'
tRp1554
sg964
F0
sg965
I01
sg966
F0
ssS'kNormalNormal_v_C(trial_PE)[PP]'
p1555
(dp1556
g958
F1
sg959
g960
sg961
g962
(g8
S'\xa0\xad[4\xe4\xfa\xf7?'
tRp1557
sg964
F0
sg965
I01
sg966
F0
ssS'SliceStep_v_C(trial_PE)[UU]_subj.18'
p1558
(dp1559
g958
F1
sg959
g960
sg961
g962
(g8
S'N\x04\x00\x07R\x97\xfe?'
tRp1560
sg964
F0
sg965
I01
sg966
F0
ssS'SliceStep_t_C(trial_PE)[UU]_subj.1'
p1561
(dp1562
g958
F1
sg959
g960
sg961
g962
(g8
S'\x86,\xd3w+\xd0\xde?'
tRp1563
sg964
F0
sg965
I01
sg966
F0
ssS'SliceStep_t_C(trial_PE)[UU]_subj.0'
p1564
(dp1565
g958
F1
sg959
g960
sg961
g962
(g8
S'\x10\xed\xaaCW\xfc\xe5?'
tRp1566
sg964
F0
sg965
I01
sg966
F0
ssS'SliceStep_t_C(trial_PE)[UU]_subj.3'
p1567
(dp1568
g958
F1
sg959
g960
sg961
g962
(g8
S'c=v\x9d\xc1.\xe6?'
tRp1569
sg964
F0
sg965
I01
sg966
F0
ssS'SliceStep_t_C(trial_PE)[UU]_subj.2'
p1570
(dp1571
g958
F1
sg959
g960
sg961
g962
(g8
S'\xf2\xb9AvJy\xe2?'
tRp1572
sg964
F0
sg965
I01
sg966
F0
ssS'SliceStep_t_C(trial_PE)[UU]_subj.5'
p1573
(dp1574
g958
F1
sg959
g960
sg961
g962
(g8
S'\x10\xcd$\xceT2\xdc?'
tRp1575
sg964
F0
sg965
I01
sg966
F0
ssS'SliceStep_t_C(trial_PE)[UU]_subj.4'
p1576
(dp1577
g958
F1
sg959
g960
sg961
g962
(g8
S'\xf4%\xe9x\xd7\xdf\xda?'
tRp1578
sg964
F0
sg965
I01
sg966
F0
ssS'SliceStep_t_C(trial_PE)[UU]_subj.7'
p1579
(dp1580
g958
F1
sg959
g960
sg961
g962
(g8
S'\x89\x1fb3i\xb2\xe4?'
tRp1581
sg964
F0
sg965
I01
sg966
F0
ssS'SliceStep_t_C(trial_PE)[UU]_subj.6'
p1582
(dp1583
g958
F1
sg959
g960
sg961
g962
(g8
S'l\x8d\x86\xd2\xed\\\xdf?'
tRp1584
sg964
F0
sg965
I01
sg966
F0
ssS'SliceStep_v_C(trial_PE)[PP]_subj.11'
p1585
(dp1586
g958
F1
sg959
g960
sg961
g962
(g8
S'\xc3\x1d\x97\xd2\xca\xe6\xf9?'
tRp1587
sg964
F0
sg965
I01
sg966
F0
ssS'SliceStep_v_C(trial_PE)[T.PU]:pupil_response_1'
p1588
(dp1589
g958
F1
sg959
g960
sg961
g962
(g8
S'\xc0L\xba\x12\x82\x1e\xa6='
tRp1590
sg964
F0
sg965
I01
sg966
F0
ssS'SliceStep_v_C(trial_PE)[UP]_subj.3'
p1591
(dp1592
g958
F1
sg959
g960
sg961
g962
(g8
S'\x88\xa5Y\x0c\xea\x9e\xfe?'
tRp1593
sg964
F0
sg965
I01
sg966
F0
ssS'SliceStep_v_C(trial_PE)[PP]_subj.24'
p1594
(dp1595
g958
F1
sg959
g960
sg961
g962
(g8
S'$Jiw\xd2\xf5\xf0?'
tRp1596
sg964
F0
sg965
I01
sg966
F0
ssS'SliceStep_v_C(trial_PE)[PP]_subj.25'
p1597
(dp1598
g958
F1
sg959
g960
sg961
g962
(g8
S'\xc3\xdc)\xd6ob\xf8?'
tRp1599
sg964
F0
sg965
I01
sg966
F0
ssS'SliceStep_v_C(trial_PE)[PP]_subj.26'
p1600
(dp1601
g958
F1
sg959
g960
sg961
g962
(g8
S'(\xe2\xe5O(\xf6\xf8?'
tRp1602
sg964
F0
sg965
I01
sg966
F0
ssS'SliceStep_v_C(trial_PE)[PP]_subj.27'
p1603
(dp1604
g958
F1
sg959
g960
sg961
g962
(g8
S'}\xa0\xf5\x11S\x1e\xf6?'
tRp1605
sg964
F0
sg965
I01
sg966
F0
ssS'SliceStep_v_C(trial_PE)[PP]_subj.20'
p1606
(dp1607
g958
F1
sg959
g960
sg961
g962
(g8
S'\x11\xac\xd8\x89\xb8U\xfd?'
tRp1608
sg964
F0
sg965
I01
sg966
F0
ssS'SliceStep_v_C(trial_PE)[PP]_subj.21'
p1609
(dp1610
g958
F1
sg959
g960
sg961
g962
(g8
S'\xb3\x0b\xd5\xf9\x8bN\xf7?'
tRp1611
sg964
F0
sg965
I01
sg966
F0
ssS'SliceStep_v_C(trial_PE)[PP]_subj.22'
p1612
(dp1613
g958
F1
sg959
g960
sg961
g962
(g8
S'|n\xb4\x07\x12\xe0\xf9?'
tRp1614
sg964
F0
sg965
I01
sg966
F0
ssS'SliceStep_v_C(trial_PE)[PP]_subj.23'
p1615
(dp1616
g958
F1
sg959
g960
sg961
g962
(g8
S'\x7f\x16oaW\xf7\xf6?'
tRp1617
sg964
F0
sg965
I01
sg966
F0
ssS'SliceStep_v_C(trial_PE)[PP]_subj.28'
p1618
(dp1619
g958
F1
sg959
g960
sg961
g962
(g8
S'\xde3\x02\xe2W\xec\xf7?'
tRp1620
sg964
F0
sg965
I01
sg966
F0
ssS'SliceStep_v_C(trial_PE)[PP]_subj.29'
p1621
(dp1622
g958
F1
sg959
g960
sg961
g962
(g8
S'%tD%\x88\xf5\xf6?'
tRp1623
sg964
F0
sg965
I01
sg966
F0
ssS'SliceStep_t_C(trial_PE)[PP]_subj.19'
p1624
(dp1625
g958
F1
sg959
g960
sg961
g962
(g8
S'"\xfc\x80\xeb\xc6#\xdc?'
tRp1626
sg964
F0
sg965
I01
sg966
F0
ssS'SliceStep_t_C(trial_PE)[PP]_subj.18'
p1627
(dp1628
g958
F1
sg959
g960
sg961
g962
(g8
S'$\xae\xd5c\xcd\x9b\xd6?'
tRp1629
sg964
F0
sg965
I01
sg966
F0
ssS'SliceStep_t_C(trial_PE)[PU]_subj.22'
p1630
(dp1631
g958
F1
sg959
g960
sg961
g962
(g8
S'\xe5)\x9d\x880\xa3\xdc?'
tRp1632
sg964
F0
sg965
I01
sg966
F0
ssS'SliceStep_t_C(trial_PE)[UP]_subj.12'
p1633
(dp1634
g958
F1
sg959
g960
sg961
g962
(g8
S'\x13\x83\x8b]\x00\xa7\xe1?'
tRp1635
sg964
F0
sg965
I01
sg966
F0
ssS'SliceStep_t_C(trial_PE)[UP]_subj.13'
p1636
(dp1637
g958
F1
sg959
g960
sg961
g962
(g8
S'\x8a\x82\xb4\xd0`\x11\xd9?'
tRp1638
sg964
F0
sg965
I01
sg966
F0
ssS'SliceStep_t_C(trial_PE)[UP]_subj.10'
p1639
(dp1640
g958
F1
sg959
g960
sg961
g962
(g8
S'?\x9f\xe2\x98\xdf>\xe2?'
tRp1641
sg964
F0
sg965
I01
sg966
F0
ssS'SliceStep_t_C(trial_PE)[PP]_subj.10'
p1642
(dp1643
g958
F1
sg959
g960
sg961
g962
(g8
S'\xb6_\x92\xbcb\xba\xd8?'
tRp1644
sg964
F0
sg965
I01
sg966
F0
ssS'SliceStep_t_C(trial_PE)[UP]_subj.16'
p1645
(dp1646
g958
F1
sg959
g960
sg961
g962
(g8
S')X`\xaf\x02P\xd9?'
tRp1647
sg964
F0
sg965
I01
sg966
F0
ssS'SliceStep_t_C(trial_PE)[UP]_subj.17'
p1648
(dp1649
g958
F1
sg959
g960
sg961
g962
(g8
S'0\x1c\xb2V\xf4\x14\xd8?'
tRp1650
sg964
F0
sg965
I01
sg966
F0
ssS'SliceStep_t_C(trial_PE)[UP]_subj.14'
p1651
(dp1652
g958
F1
sg959
g960
sg961
g962
(g8
S'\x86\x18\xbb\x1a\x95\xc7\xe0?'
tRp1653
sg964
F0
sg965
I01
sg966
F0
ssS'SliceStep_t_C(trial_PE)[UP]_subj.15'
p1654
(dp1655
g958
F1
sg959
g960
sg961
g962
(g8
S'\x91\xa4u\xb8\x94q\xda?'
tRp1656
sg964
F0
sg965
I01
sg966
F0
ssS'SliceStep_v_C(trial_PE)[UU]_subj.13'
p1657
(dp1658
g958
F1
sg959
g960
sg961
g962
(g8
S'0\n/V\xb6\x86\xfe?'
tRp1659
sg964
F0
sg965
I01
sg966
F0
ssS'SliceStep_v_C(trial_PE)[UU]_subj.12'
p1660
(dp1661
g958
F1
sg959
g960
sg961
g962
(g8
S'\x92\xf9\x0e\xf9\x08!\xfd?'
tRp1662
sg964
F0
sg965
I01
sg966
F0
ssS'SliceStep_v_C(trial_PE)[PU]_subj.5'
p1663
(dp1664
g958
F1
sg959
g960
sg961
g962
(g8
S'_`\x9c\x16\xdb:\xff?'
tRp1665
sg964
F0
sg965
I01
sg966
F0
ssS'SliceStep_v_C(trial_PE)[PP]_std'
p1666
(dp1667
g958
F1
sg959
g960
sg961
g962
(g8
S'T\x04\xec-r\x8b\xca?'
tRp1668
sg964
F0
sg965
I01
sg966
F0
ssS'SliceStep_v_C(trial_PE)[UU]_subj.17'
p1669
(dp1670
g958
F1
sg959
g960
sg961
g962
(g8
S'XkU\xa3\xd6.\xfd?'
tRp1671
sg964
F0
sg965
I01
sg966
F0
ssS'SliceStep_v_C(trial_PE)[UU]_subj.16'
p1672
(dp1673
g958
F1
sg959
g960
sg961
g962
(g8
S'\xfc\xce\xa45\x0f\x84\xfc?'
tRp1674
sg964
F0
sg965
I01
sg966
F0
ssS'SliceStep_v_C(trial_PE)[UU]_subj.15'
p1675
(dp1676
g958
F1
sg959
g960
sg961
g962
(g8
S'\xc9H\xd4-\x98\xb4\xfe?'
tRp1677
sg964
F0
sg965
I01
sg966
F0
ssS'SliceStep_v_C(trial_PE)[UU]_subj.14'
p1678
(dp1679
g958
F1
sg959
g960
sg961
g962
(g8
S';\x8cM\x95\x19S\xfd?'
tRp1680
sg964
F0
sg965
I01
sg966
F0
ssS'SliceStep_v_pupil_response_1'
p1681
(dp1682
g958
F1
sg959
g960
sg961
g962
(g8
S'\x00/\xe6d\x96He>'
tRp1683
sg964
F0
sg965
I01
sg966
F0
ssS'SliceStep_a_subj.30'
p1684
(dp1685
g958
F1
sg959
g960
sg961
g962
(g8
S'\x1db\xb5\xd9\x9az\x05@'
tRp1686
sg964
F0
sg965
I01
sg966
F0
ssS'SliceStep_v_C(trial_PE)[UU]_subj.19'
p1687
(dp1688
g958
F1
sg959
g960
sg961
g962
(g8
S'\xc15\x99\x80\x0cH\xfc?'
tRp1689
sg964
F0
sg965
I01
sg966
F0
ssS'SliceStep_a_subj.32'
p1690
(dp1691
g958
F1
sg959
g960
sg961
g962
(g8
S'\xbf\xfb\x00o\xab\x00\xff?'
tRp1692
sg964
F0
sg965
I01
sg966
F0
ssS'SliceStep_a_subj.20'
p1693
(dp1694
g958
F1
sg959
g960
sg961
g962
(g8
S'%l\xf0\xa7\xf9\xf4\xfb?'
tRp1695
sg964
F0
sg965
I01
sg966
F0
ssS'SliceStep_v_C(trial_PE)[PP]_subj.13'
p1696
(dp1697
g958
F1
sg959
g960
sg961
g962
(g8
S'.\x16\x1e>\xcc\xaa\xf9?'
tRp1698
sg964
F0
sg965
I01
sg966
F0
ssS'SliceStep_v_C(trial_PE)[UU]_subj.29'
p1699
(dp1700
g958
F1
sg959
g960
sg961
g962
(g8
S'\xdf\x90vp\x00\xb9\xfc?'
tRp1701
sg964
F0
sg965
I01
sg966
F0
ssS'SliceStep_v_C(trial_PE)[PU]_subj.18'
p1702
(dp1703
g958
F1
sg959
g960
sg961
g962
(g8
S'O\x97\x9e\xce\xbb;\xff?'
tRp1704
sg964
F0
sg965
I01
sg966
F0
ssS'SliceStep_v_C(trial_PE)[PU]_subj.19'
p1705
(dp1706
g958
F1
sg959
g960
sg961
g962
(g8
S',\x85U\x82\xf10\xfc?'
tRp1707
sg964
F0
sg965
I01
sg966
F0
ssS'SliceStep_v_C(trial_PE)[PU]_subj.16'
p1708
(dp1709
g958
F1
sg959
g960
sg961
g962
(g8
S'\xee\xb4\x9c\x90\x81\x94\xfc?'
tRp1710
sg964
F0
sg965
I01
sg966
F0
ssS'SliceStep_v_C(trial_PE)[PU]_subj.17'
p1711
(dp1712
g958
F1
sg959
g960
sg961
g962
(g8
S'\x15\xf8\x11X\xb4\xa0\xfc?'
tRp1713
sg964
F0
sg965
I01
sg966
F0
ssS'SliceStep_v_C(trial_PE)[PU]_subj.14'
p1714
(dp1715
g958
F1
sg959
g960
sg961
g962
(g8
S'\x1aak\xd1\xf6l\xfe?'
tRp1716
sg964
F0
sg965
I01
sg966
F0
ssS'SliceStep_v_C(trial_PE)[PU]_subj.15'
p1717
(dp1718
g958
F1
sg959
g960
sg961
g962
(g8
S'F\t$\xfb\xc0\x06\xff?'
tRp1719
sg964
F0
sg965
I01
sg966
F0
ssS'SliceStep_v_C(trial_PE)[PU]_subj.12'
p1720
(dp1721
g958
F1
sg959
g960
sg961
g962
(g8
S'\xaf\xc3~>;\xdb\xfc?'
tRp1722
sg964
F0
sg965
I01
sg966
F0
ssS'SliceStep_v_C(trial_PE)[PU]_subj.13'
p1723
(dp1724
g958
F1
sg959
g960
sg961
g962
(g8
S'\xcb\xa2l\x1e\xcd=\xfe?'
tRp1725
sg964
F0
sg965
I01
sg966
F0
ssS'SliceStep_v_C(trial_PE)[PU]_subj.20'
p1726
(dp1727
g958
F1
sg959
g960
sg961
g962
(g8
S'A\xec\x11\xe1Dk\xff?'
tRp1728
sg964
F0
sg965
I01
sg966
F0
ssS'SliceStep_v_C(trial_PE)[PU]_subj.11'
p1729
(dp1730
g958
F1
sg959
g960
sg961
g962
(g8
S'\rG@\xf8\xdfI\xfd?'
tRp1731
sg964
F0
sg965
I01
sg966
F0
ssS'SliceStep_v_C(trial_PE)[PP]_subj.19'
p1732
(dp1733
g958
F1
sg959
g960
sg961
g962
(g8
S'\x89\x84\xc3\x01-\x90\xf4?'
tRp1734
sg964
F0
sg965
I01
sg966
F0
ssS'SliceStep_t_C(trial_PE)[PU]_subj.19'
p1735
(dp1736
g958
F1
sg959
g960
sg961
g962
(g8
S'M\x94\x0cW\x94@\xdd?'
tRp1737
sg964
F0
sg965
I01
sg966
F0
ssS'SliceStep_t_C(trial_PE)[PU]_subj.10'
p1738
(dp1739
g958
F1
sg959
g960
sg961
g962
(g8
S'\x0c:\xfc\x19=\x0e\xe3?'
tRp1740
sg964
F0
sg965
I01
sg966
F0
ssS'SliceStep_v_C(trial_PE)[PP]_subj.10'
p1741
(dp1742
g958
F1
sg959
g960
sg961
g962
(g8
S'\x7f\x1d\xbb\xd3\xc2\xae\xf6?'
tRp1743
sg964
F0
sg965
I01
sg966
F0
ssS'SliceStep_t_C(trial_PE)[PU]_subj.12'
p1744
(dp1745
g958
F1
sg959
g960
sg961
g962
(g8
S'\xf8\x05p\x97\xd8p\xe1?'
tRp1746
sg964
F0
sg965
I01
sg966
F0
ssS'SliceStep_t_C(trial_PE)[PU]_subj.13'
p1747
(dp1748
g958
F1
sg959
g960
sg961
g962
(g8
S'\\`\xe2\xf1\x9a\xaf\xdd?'
tRp1749
sg964
F0
sg965
I01
sg966
F0
ssS'SliceStep_v_C(trial_PE)[PP]_subj.15'
p1750
(dp1751
g958
F1
sg959
g960
sg961
g962
(g8
S'l\x84\xd6\r\x8d3\xfb?'
tRp1752
sg964
F0
sg965
I01
sg966
F0
ssS'SliceStep_t_C(trial_PE)[PU]_subj.15'
p1753
(dp1754
g958
F1
sg959
g960
sg961
g962
(g8
S'\r6\xc1\x8e}\x9e\xdf?'
tRp1755
sg964
F0
sg965
I01
sg966
F0
ssS'SliceStep_t_C(trial_PE)[PU]_subj.16'
p1756
(dp1757
g958
F1
sg959
g960
sg961
g962
(g8
S'\x1d\x99\x93\xc9KO\xdb?'
tRp1758
sg964
F0
sg965
I01
sg966
F0
ssS'SliceStep_t_C(trial_PE)[PU]_subj.17'
p1759
(dp1760
g958
F1
sg959
g960
sg961
g962
(g8
S'~\x02\x9bP\x06|\xdb?'
tRp1761
sg964
F0
sg965
I01
sg966
F0
ssS'SliceStep_v_C(trial_PE)[UP]_subj.10'
p1762
(dp1763
g958
F1
sg959
g960
sg961
g962
(g8
S'Y%\x82\xe1\xb3\x13\xfd?'
tRp1764
sg964
F0
sg965
I01
sg966
F0
ssS'SliceStep_v_C(trial_PE)[UP]_subj.11'
p1765
(dp1766
g958
F1
sg959
g960
sg961
g962
(g8
S'\xae\xdcn\xfe]\x0b\xfe?'
tRp1767
sg964
F0
sg965
I01
sg966
F0
ssS'SliceStep_v_C(trial_PE)[UP]_subj.12'
p1768
(dp1769
g958
F1
sg959
g960
sg961
g962
(g8
S'\x8b\xcf^\x02\xdc\x98\xfd?'
tRp1770
sg964
F0
sg965
I01
sg966
F0
ssS'SliceStep_v_C(trial_PE)[UP]_subj.13'
p1771
(dp1772
g958
F1
sg959
g960
sg961
g962
(g8
S'\xd7\xd2\xf5\xcd\x8eC\xfe?'
tRp1773
sg964
F0
sg965
I01
sg966
F0
ssS'SliceStep_v_C(trial_PE)[UP]_subj.14'
p1774
(dp1775
g958
F1
sg959
g960
sg961
g962
(g8
S'\x97\xe4\xcc\x83\xe1\x8c\xfd?'
tRp1776
sg964
F0
sg965
I01
sg966
F0
ssS'SliceStep_v_C(trial_PE)[UP]_subj.15'
p1777
(dp1778
g958
F1
sg959
g960
sg961
g962
(g8
S'R>@\x1f\xc9 \xff?'
tRp1779
sg964
F0
sg965
I01
sg966
F0
ssS'SliceStep_v_C(trial_PE)[UP]_subj.16'
p1780
(dp1781
g958
F1
sg959
g960
sg961
g962
(g8
S'/\xdb\x95\x13\x14\x04\xfd?'
tRp1782
sg964
F0
sg965
I01
sg966
F0
ssS'SliceStep_v_C(trial_PE)[UP]_subj.17'
p1783
(dp1784
g958
F1
sg959
g960
sg961
g962
(g8
S'\x0b:\xbd\xbf\xfd\xef\xfb?'
tRp1785
sg964
F0
sg965
I01
sg966
F0
ssS'SliceStep_v_C(trial_PE)[UP]_subj.18'
p1786
(dp1787
g958
F1
sg959
g960
sg961
g962
(g8
S'\xa4W\xd1\xb7\xfce\xff?'
tRp1788
sg964
F0
sg965
I01
sg966
F0
ssS'SliceStep_v_C(trial_PE)[UP]_subj.19'
p1789
(dp1790
g958
F1
sg959
g960
sg961
g962
(g8
S'\xe1\xeb\xbc\xf9\x80a\xfb?'
tRp1791
sg964
F0
sg965
I01
sg966
F0
ssS'SliceStep_v_C(trial_PE)[UP]_subj.0'
p1792
(dp1793
g958
F1
sg959
g960
sg961
g962
(g8
S'\x99jY4c\x8f\xfd?'
tRp1794
sg964
F0
sg965
I01
sg966
F0
ssS'SliceStep_v_C(trial_PE)[PU]_subj.7'
p1795
(dp1796
g958
F1
sg959
g960
sg961
g962
(g8
S'\xa6R/qkj\xfd?'
tRp1797
sg964
F0
sg965
I01
sg966
F0
ssS'SliceStep_t_C(trial_PE)[PU]'
p1798
(dp1799
g958
F1
sg959
g960
sg961
g962
(g8
S'-\xc3/\xe1\xd8\x9a\xdb?'
tRp1800
sg964
F0
sg965
I01
sg966
F0
ssS'SliceStep_t_C(trial_PE)[PU]_subj.18'
p1801
(dp1802
g958
F1
sg959
g960
sg961
g962
(g8
S'\xb9\xb7\x14\xce\xc4\xbe\xd7?'
tRp1803
sg964
F0
sg965
I01
sg966
F0
ssS'SliceStep_v_C(trial_PE)[UP]_subj.4'
p1804
(dp1805
g958
F1
sg959
g960
sg961
g962
(g8
S'\xb3\xa1\xde,0\x02\xff?'
tRp1806
sg964
F0
sg965
I01
sg966
F0
ssS'SliceStep_v_C(trial_PE)[PU]_subj.9'
p1807
(dp1808
g958
F1
sg959
g960
sg961
g962
(g8
S'[\xa4\xc2\xc6U\r\xff?'
tRp1809
sg964
F0
sg965
I01
sg966
F0
ssS'SliceStep_a_subj.28'
p1810
(dp1811
g958
F1
sg959
g960
sg961
g962
(g8
S")\xbc'%T\xbb\x02@"
tRp1812
sg964
F0
sg965
I01
sg966
F0
ssS'SliceStep_a_subj.29'
p1813
(dp1814
g958
F1
sg959
g960
sg961
g962
(g8
S'd\xc9BD\x14\xc1\xfc?'
tRp1815
sg964
F0
sg965
I01
sg966
F0
ssS'SliceStep_v_C(trial_PE)[PU]_subj.4'
p1816
(dp1817
g958
F1
sg959
g960
sg961
g962
(g8
S'YCXAg<\xfe?'
tRp1818
sg964
F0
sg965
I01
sg966
F0
ssS'SliceStep_a_subj.27'
p1819
(dp1820
g958
F1
sg959
g960
sg961
g962
(g8
S'\x1fpe\\\xe9\x9a\x05@'
tRp1821
sg964
F0
sg965
I01
sg966
F0
ssS'SliceStep_a_subj.24'
p1822
(dp1823
g958
F1
sg959
g960
sg961
g962
(g8
S'\x19\xb9<!\x80]\x01@'
tRp1824
sg964
F0
sg965
I01
sg966
F0
ssS'SliceStep_a_subj.25'
p1825
(dp1826
g958
F1
sg959
g960
sg961
g962
(g8
S'\x86,\xbe&\x8f\x82\x01@'
tRp1827
sg964
F0
sg965
I01
sg966
F0
ssS'SliceStep_v_C(trial_PE)[PU]_subj.0'
p1828
(dp1829
g958
F1
sg959
g960
sg961
g962
(g8
S'\xda\x1dp\x93H)\xfe?'
tRp1830
sg964
F0
sg965
I01
sg966
F0
ssS'SliceStep_a_subj.23'
p1831
(dp1832
g958
F1
sg959
g960
sg961
g962
(g8
S'\xd0\xa0\x95\x9e-c\x00@'
tRp1833
sg964
F0
sg965
I01
sg966
F0
ssS'SliceStep_v_C(trial_PE)[PU]_subj.2'
p1834
(dp1835
g958
F1
sg959
g960
sg961
g962
(g8
S'\x05\xbbHq\xba\x1f\xfe?'
tRp1836
sg964
F0
sg965
I01
sg966
F0
ssS'SliceStep_v_C(trial_PE)[PU]_subj.3'
p1837
(dp1838
g958
F1
sg959
g960
sg961
g962
(g8
S'I\xbdHp\x1f\x84\xfe?'
tRp1839
sg964
F0
sg965
I01
sg966
F0
ssS'SliceStep_v_C(trial_PE)[PU]_subj.10'
p1840
(dp1841
g958
F1
sg959
g960
sg961
g962
(g8
S'M\x98\xa5)\xb3\x17\xfe?'
tRp1842
sg964
F0
sg965
I01
sg966
F0
ssS'SliceStep_v_C(trial_PE)[UP]_subj.7'
p1843
(dp1844
g958
F1
sg959
g960
sg961
g962
(g8
S'\xf7}\xa0\t\xec\x12\xfd?'
tRp1845
sg964
F0
sg965
I01
sg966
F0
ssS'SliceStep_t_C(trial_PE)[UP]'
p1846
(dp1847
g958
F1
sg959
g960
sg961
g962
(g8
S'\xec\x83W\xdc\xd1[\xdc?'
tRp1848
sg964
F0
sg965
I01
sg966
F0
ssS'kNormalNormal_v_C(trial_PE)[UP]'
p1849
(dp1850
g958
F1
sg959
g960
sg961
g962
(g8
S'\x9cG\neko\xfd?'
tRp1851
sg964
F0
sg965
I01
sg966
F0
ssS'SliceStep_a'
p1852
(dp1853
g958
F1
sg959
g960
sg961
g962
(g8
S'\\\xcfv\xac\x1c\xf0\x00@'
tRp1854
sg964
F0
sg965
I01
sg966
F0
ssS'SliceStep_t_C(trial_PE)[PU]_subj.29'
p1855
(dp1856
g958
F1
sg959
g960
sg961
g962
(g8
S'PM^_\x8f\xef\xd0?'
tRp1857
sg964
F0
sg965
I01
sg966
F0
ssS'SliceStep_t_C(trial_PE)[PU]_subj.28'
p1858
(dp1859
g958
F1
sg959
g960
sg961
g962
(g8
S'\xec\xd5\xc1\x83W\xdc\xd6?'
tRp1860
sg964
F0
sg965
I01
sg966
F0
ssS'SliceStep_t_C(trial_PE)[PU]_subj.25'
p1861
(dp1862
g958
F1
sg959
g960
sg961
g962
(g8
S',\xb1\xc9\xfe\xd1\xa3\xcb?'
tRp1863
sg964
F0
sg965
I01
sg966
F0
ssS'SliceStep_t_C(trial_PE)[PU]_subj.24'
p1864
(dp1865
g958
F1
sg959
g960
sg961
g962
(g8
S'\x9cIi;\x0c\xd2\xd5?'
tRp1866
sg964
F0
sg965
I01
sg966
F0
ssS'SliceStep_t_C(trial_PE)[PU]_subj.27'
p1867
(dp1868
g958
F1
sg959
g960
sg961
g962
(g8
S'M\xb25\xa5\xfeZ\xd6?'
tRp1869
sg964
F0
sg965
I01
sg966
F0
ssS'SliceStep_t_C(trial_PE)[PU]_subj.26'
p1870
(dp1871
g958
F1
sg959
g960
sg961
g962
(g8
S'\x8d\xbe\x1b\xa4\xa2\xbe\xd6?'
tRp1872
sg964
F0
sg965
I01
sg966
F0
ssS'SliceStep_t_C(trial_PE)[PU]_subj.21'
p1873
(dp1874
g958
F1
sg959
g960
sg961
g962
(g8
S'\x82\xbd\xaeI&@\xd2?'
tRp1875
sg964
F0
sg965
I01
sg966
F0
ssS'SliceStep_t_C(trial_PE)[PU]_subj.20'
p1876
(dp1877
g958
F1
sg959
g960
sg961
g962
(g8
S'F\x1d\xbf\xe9\x04\xa3\xd7?'
tRp1878
sg964
F0
sg965
I01
sg966
F0
ssS'SliceStep_t_C(trial_PE)[PU]_subj.23'
p1879
(dp1880
g958
F1
sg959
g960
sg961
g962
(g8
S'\xd4\nqt\x7f3\xd2?'
tRp1881
sg964
F0
sg965
I01
sg966
F0
ssS'SliceStep_v_C(trial_PE)[UP]_subj.28'
p1882
(dp1883
g958
F1
sg959
g960
sg961
g962
(g8
S'\x9b\x05I9\xae\xfd\xfc?'
tRp1884
sg964
F0
sg965
I01
sg966
F0
ssS'SliceStep_v_C(trial_PE)[UP]_subj.25'
p1885
(dp1886
g958
F1
sg959
g960
sg961
g962
(g8
S'\xc9\x06\xb3>\x98*\xfd?'
tRp1887
sg964
F0
sg965
I01
sg966
F0
ssS'SliceStep_v_C(trial_PE)[UP]_subj.24'
p1888
(dp1889
g958
F1
sg959
g960
sg961
g962
(g8
S'SR\x8e\xc59A\xfb?'
tRp1890
sg964
F0
sg965
I01
sg966
F0
ssS'SliceStep_v_C(trial_PE)[UP]_subj.27'
p1891
(dp1892
g958
F1
sg959
g960
sg961
g962
(g8
S'-\xa6\xbb\x87\x0e\x1d\xfd?'
tRp1893
sg964
F0
sg965
I01
sg966
F0
ssS'SliceStep_t_C(trial_PE)[PU]_subj.31'
p1894
(dp1895
g958
F1
sg959
g960
sg961
g962
(g8
S'\x12\xa1\xabp\x00=\xd2?'
tRp1896
sg964
F0
sg965
I01
sg966
F0
ssS'SliceStep_v_C(trial_PE)[UP]_subj.21'
p1897
(dp1898
g958
F1
sg959
g960
sg961
g962
(g8
S'\x84\xc6\x0e\tj\xad\xfc?'
tRp1899
sg964
F0
sg965
I01
sg966
F0
ssS'SliceStep_v_C(trial_PE)[UP]_subj.20'
p1900
(dp1901
g958
F1
sg959
g960
sg961
g962
(g8
S'\x1dVX\xfb\x9fL\xff?'
tRp1902
sg964
F0
sg965
I01
sg966
F0
ssS'SliceStep_v_C(trial_PE)[UP]_subj.23'
p1903
(dp1904
g958
F1
sg959
g960
sg961
g962
(g8
S'\xc2\x1b\x95\xe5\x8dN\xfd?'
tRp1905
sg964
F0
sg965
I01
sg966
F0
ssS'SliceStep_v_C(trial_PE)[UP]_subj.22'
p1906
(dp1907
g958
F1
sg959
g960
sg961
g962
(g8
S'g]\xa4]\x9e\xb8\xfd?'
tRp1908
sg964
F0
sg965
I01
sg966
F0
ssS'SliceStep_a_subj.14'
p1909
(dp1910
g958
F1
sg959
g960
sg961
g962
(g8
S'\xeeA"fFd\x02@'
tRp1911
sg964
F0
sg965
I01
sg966
F0
ssS'SliceStep_v_C(trial_PE)[UP]_subj.29'
p1912
(dp1913
g958
F1
sg959
g960
sg961
g962
(g8
S'\x99\xe6\x08\x17\xb6\xd1\xfc?'
tRp1914
sg964
F0
sg965
I01
sg966
F0
ssS'SliceStep_t_C(trial_PE)[PP]_subj.30'
p1915
(dp1916
g958
F1
sg959
g960
sg961
g962
(g8
S'\xf1g\x82\xbc=\xa8\xc5?'
tRp1917
sg964
F0
sg965
I01
sg966
F0
ssS'SliceStep_v_C(trial_PE)[UP]_std'
p1918
(dp1919
g958
F1
sg959
g960
sg961
g962
(g8
S'$ \xd5JX\xf5\xb4?'
tRp1920
sg964
F0
sg965
I01
sg966
F0
ssS'SliceStep_t_C(trial_PE)[PP]_subj.32'
p1921
(dp1922
g958
F1
sg959
g960
sg961
g962
(g8
S'M\x13\xe8C\xf3!\xd7?'
tRp1923
sg964
F0
sg965
I01
sg966
F0
sssS'sampler'
p1924
(dp1925
S'status'
p1926
S'ready'
p1927
sS'_iter'
p1928
g962
(g7
(S'i8'
I0
I1
tRp1929
(I3
S'<'
NNNI-1
I-1
I0
tbS'\xa0\x86\x01\x00\x00\x00\x00\x00'
tRp1930
sS'_tune_interval'
p1931
I1000
sS'_tuned_count'
p1932
I0
sS'_tune_throughout'
p1933
I01
sS'_burn_till_tuned'
p1934
I00
sS'_current_iter'
p1935
I1
sS'_burn'
p1936
I1000
sS'_thin'
p1937
I1
sssg651
(dp1938
I0
g4
(g5
(I0
tS'b'
tRp1939
(I1
(I0
tg8
I00
S''
tbssg494
(dp1940
I0
g4
(g5
(I0
tS'b'
tRp1941
(I1
(I0
tg8
I00
S''
tbssg653
(dp1942
I0
g4
(g5
(I0
tS'b'
tRp1943
(I1
(I0
tg8
I00
S''
tbssg655
(dp1944
I0
g4
(g5
(I0
tS'b'
tRp1945
(I1
(I0
tg8
I00
S''
tbssg945
(dp1946
I0
g4
(g5
(I0
tS'b'
tRp1947
(I1
(I0
tg8
I00
S''
tbssg660
(dp1948
I0
g4
(g5
(I0
tS'b'
tRp1949
(I1
(I0
tg8
I00
S''
tbssg662
(dp1950
I0
g4
(g5
(I0
tS'b'
tRp1951
(I1
(I0
tg8
I00
S''
tbssg506
(dp1952
I0
g4
(g5
(I0
tS'b'
tRp1953
(I1
(I0
tg8
I00
S''
tbssg665
(dp1954
I0
g4
(g5
(I0
tS'b'
tRp1955
(I1
(I0
tg8
I00
S''
tbssg667
(dp1956
I0
g4
(g5
(I0
tS'b'
tRp1957
(I1
(I0
tg8
I00
S''
tbssg669
(dp1958
I0
g4
(g5
(I0
tS'b'
tRp1959
(I1
(I0
tg8
I00
S''
tbssg671
(dp1960
I0
g4
(g5
(I0
tS'b'
tRp1961
(I1
(I0
tg8
I00
S''
tbssg673
(dp1962
I0
g4
(g5
(I0
tS'b'
tRp1963
(I1
(I0
tg8
I00
S''
tbssg675
(dp1964
I0
g4
(g5
(I0
tS'b'
tRp1965
(I1
(I0
tg8
I00
S''
tbssg677
(dp1966
I0
g4
(g5
(I0
tS'b'
tRp1967
(I1
(I0
tg8
I00
S''
tbssg679
(dp1968
I0
g4
(g5
(I0
tS'b'
tRp1969
(I1
(I0
tg8
I00
S''
tbssg525
(dp1970
I0
g4
(g5
(I0
tS'b'
tRp1971
(I1
(I0
tg8
I00
S''
tbssg635
(dp1972
I0
g4
(g5
(I0
tS'b'
tRp1973
(I1
(I0
tg8
I00
S''
tbssg936
(dp1974
I0
g4
(g5
(I0
tS'b'
tRp1975
(I1
(I0
tg8
I00
S''
tbssg687
(dp1976
I0
g4
(g5
(I0
tS'b'
tRp1977
(I1
(I0
tg8
I00
S''
tbssg689
(dp1978
I0
g4
(g5
(I0
tS'b'
tRp1979
(I1
(I0
tg8
I00
S''
tbssg691
(dp1980
I0
g4
(g5
(I0
tS'b'
tRp1981
(I1
(I0
tg8
I00
S''
tbssg513
(dp1982
I0
g4
(g5
(I0
tS'b'
tRp1983
(I1
(I0
tg8
I00
S''
tbssg577
(dp1984
I0
g4
(g5
(I0
tS'b'
tRp1985
(I1
(I0
tg8
I00
S''
tbssg696
(dp1986
I0
g4
(g5
(I0
tS'b'
tRp1987
(I1
(I0
tg8
I00
S''
tbssg698
(dp1988
I0
g4
(g5
(I0
tS'b'
tRp1989
(I1
(I0
tg8
I00
S''
tbssg700
(dp1990
I0
g4
(g5
(I0
tS'b'
tRp1991
(I1
(I0
tg8
I00
S''
tbssg702
(dp1992
I0
g4
(g5
(I0
tS'b'
tRp1993
(I1
(I0
tg8
I00
S''
tbssg704
(dp1994
I0
g4
(g5
(I0
tS'b'
tRp1995
(I1
(I0
tg8
I00
S''
tbssg706
(dp1996
I0
g4
(g5
(I0
tS'b'
tRp1997
(I1
(I0
tg8
I00
S''
tbssg708
(dp1998
I0
g4
(g5
(I0
tS'b'
tRp1999
(I1
(I0
tg8
I00
S''
tbssg711
(dp2000
I0
g4
(g5
(I0
tS'b'
tRp2001
(I1
(I0
tg8
I00
S''
tbssg713
(dp2002
I0
g4
(g5
(I0
tS'b'
tRp2003
(I1
(I0
tg8
I00
S''
tbssg715
(dp2004
I0
g4
(g5
(I0
tS'b'
tRp2005
(I1
(I0
tg8
I00
S''
tbssg717
(dp2006
I0
g4
(g5
(I0
tS'b'
tRp2007
(I1
(I0
tg8
I00
S''
tbssg719
(dp2008
I0
g4
(g5
(I0
tS'b'
tRp2009
(I1
(I0
tg8
I00
S''
tbssg721
(dp2010
I0
g4
(g5
(I0
tS'b'
tRp2011
(I1
(I0
tg8
I00
S''
tbssg723
(dp2012
I0
g4
(g5
(I0
tS'b'
tRp2013
(I1
(I0
tg8
I00
S''
tbssg725
(dp2014
I0
g4
(g5
(I0
tS'b'
tRp2015
(I1
(I0
tg8
I00
S''
tbssg727
(dp2016
I0
g4
(g5
(I0
tS'b'
tRp2017
(I1
(I0
tg8
I00
S''
tbssg729
(dp2018
I0
g4
(g5
(I0
tS'b'
tRp2019
(I1
(I0
tg8
I00
S''
tbssg731
(dp2020
I0
g4
(g5
(I0
tS'b'
tRp2021
(I1
(I0
tg8
I00
S''
tbssg498
(dp2022
I0
g4
(g5
(I0
tS'b'
tRp2023
(I1
(I0
tg8
I00
S''
tbssg735
(dp2024
I0
g4
(g5
(I0
tS'b'
tRp2025
(I1
(I0
tg8
I00
S''
tbssg737
(dp2026
I0
g4
(g5
(I0
tS'b'
tRp2027
(I1
(I0
tg8
I00
S''
tbssg784
(dp2028
I0
g4
(g5
(I0
tS'b'
tRp2029
(I1
(I0
tg8
I00
S''
tbssg504
(dp2030
I0
g4
(g5
(I0
tS'b'
tRp2031
(I1
(I0
tg8
I00
S''
tbssg743
(dp2032
I0
g4
(g5
(I0
tS'b'
tRp2033
(I1
(I0
tg8
I00
S''
tbssg745
(dp2034
I0
g4
(g5
(I0
tS'b'
tRp2035
(I1
(I0
tg8
I00
S''
tbssg747
(dp2036
I0
g4
(g5
(I0
tS'b'
tRp2037
(I1
(I0
tg8
I00
S''
tbssg749
(dp2038
I0
g4
(g5
(I0
tS'b'
tRp2039
(I1
(I0
tg8
I00
S''
tbssg751
(dp2040
I0
g4
(g5
(I0
tS'b'
tRp2041
(I1
(I0
tg8
I00
S''
tbssg753
(dp2042
I0
g4
(g5
(I0
tS'b'
tRp2043
(I1
(I0
tg8
I00
S''
tbssg818
(dp2044
I0
g4
(g5
(I0
tS'b'
tRp2045
(I1
(I0
tg8
I00
S''
tbssg841
(dp2046
I0
g4
(g5
(I0
tS'b'
tRp2047
(I1
(I0
tg8
I00
S''
tbssg758
(dp2048
I0
g4
(g5
(I0
tS'b'
tRp2049
(I1
(I0
tg8
I00
S''
tbssg760
(dp2050
I0
g4
(g5
(I0
tS'b'
tRp2051
(I1
(I0
tg8
I00
S''
tbssg762
(dp2052
I0
g4
(g5
(I0
tS'b'
tRp2053
(I1
(I0
tg8
I00
S''
tbssg764
(dp2054
I0
g4
(g5
(I0
tS'b'
tRp2055
(I1
(I0
tg8
I00
S''
tbssg741
(dp2056
I0
g4
(g5
(I0
tS'b'
tRp2057
(I1
(I0
tg8
I00
S''
tbssg920
(dp2058
I0
g4
(g5
(I0
tS'b'
tRp2059
(I1
(I0
tg8
I00
S''
tbssg767
(dp2060
I0
g4
(g5
(I0
tS'b'
tRp2061
(I1
(I0
tg8
I00
S''
tbssg733
(dp2062
I0
g4
(g5
(I0
tS'b'
tRp2063
(I1
(I0
tg8
I00
S''
tbssg693
(dp2064
I0
g4
(g5
(I0
tS'b'
tRp2065
(I1
(I0
tg8
I00
S''
tbssg769
(dp2066
I0
g4
(g5
(I0
tS'b'
tRp2067
(I1
(I0
tg8
I00
S''
tbssg771
(dp2068
I0
g4
(g5
(I0
tS'b'
tRp2069
(I1
(I0
tg8
I00
S''
tbssg773
(dp2070
I0
g4
(g5
(I0
tS'b'
tRp2071
(I1
(I0
tg8
I00
S''
tbssg775
(dp2072
I0
g4
(g5
(I0
tS'b'
tRp2073
(I1
(I0
tg8
I00
S''
tbssg777
(dp2074
I0
g4
(g5
(I0
tS'b'
tRp2075
(I1
(I0
tg8
I00
S''
tbssg543
(dp2076
I0
g4
(g5
(I0
tS'b'
tRp2077
(I1
(I0
tg8
I00
S''
tbssg596
(dp2078
I0
g4
(g5
(I0
tS'b'
tRp2079
(I1
(I0
tg8
I00
S''
tbssg639
(dp2080
I0
g4
(g5
(I0
tS'b'
tRp2081
(I1
(I0
tg8
I00
S''
tbssg502
(dp2082
I0
g4
(g5
(I0
tS'b'
tRp2083
(I1
(I0
tg8
I00
S''
tbssg739
(dp2084
I0
g4
(g5
(I0
tS'b'
tRp2085
(I1
(I0
tg8
I00
S''
tbssg488
(dp2086
I0
g4
(g5
(I0
tS'b'
tRp2087
(I1
(I0
tg8
I00
S''
tbssg787
(dp2088
I0
g4
(g5
(I0
tS'b'
tRp2089
(I1
(I0
tg8
I00
S''
tbssg789
(dp2090
I0
g4
(g5
(I0
tS'b'
tRp2091
(I1
(I0
tg8
I00
S''
tbssg791
(dp2092
I0
g4
(g5
(I0
tS'b'
tRp2093
(I1
(I0
tg8
I00
S''
tbssg500
(dp2094
I0
g4
(g5
(I0
tS'b'
tRp2095
(I1
(I0
tg8
I00
S''
tbssg797
(dp2096
I0
g4
(g5
(I0
tS'b'
tRp2097
(I1
(I0
tg8
I00
S''
tbssg799
(dp2098
I0
g4
(g5
(I0
tS'b'
tRp2099
(I1
(I0
tg8
I00
S''
tbssg801
(dp2100
I0
g4
(g5
(I0
tS'b'
tRp2101
(I1
(I0
tg8
I00
S''
tbssg803
(dp2102
I0
g4
(g5
(I0
tS'b'
tRp2103
(I1
(I0
tg8
I00
S''
tbssg805
(dp2104
I0
g4
(g5
(I0
tS'b'
tRp2105
(I1
(I0
tg8
I00
S''
tbssg807
(dp2106
I0
g4
(g5
(I0
tS'b'
tRp2107
(I1
(I0
tg8
I00
S''
tbssg809
(dp2108
I0
g4
(g5
(I0
tS'b'
tRp2109
(I1
(I0
tg8
I00
S''
tbssg648
(dp2110
I0
g4
(g5
(I0
tS'b'
tRp2111
(I1
(I0
tg8
I00
S''
tbssg812
(dp2112
I0
g4
(g5
(I0
tS'b'
tRp2113
(I1
(I0
tg8
I00
S''
tbssg814
(dp2114
I0
g4
(g5
(I0
tS'b'
tRp2115
(I1
(I0
tg8
I00
S''
tbssg569
(dp2116
I0
g4
(g5
(I0
tS'b'
tRp2117
(I1
(I0
tg8
I00
S''
tbssg685
(dp2118
I0
g4
(g5
(I0
tS'b'
tRp2119
(I1
(I0
tg8
I00
S''
tbssg916
(dp2120
I0
g4
(g5
(I0
tS'b'
tRp2121
(I1
(I0
tg8
I00
S''
tbssg823
(dp2122
I0
g4
(g5
(I0
tS'b'
tRp2123
(I1
(I0
tg8
I00
S''
tbssg825
(dp2124
I0
g4
(g5
(I0
tS'b'
tRp2125
(I1
(I0
tg8
I00
S''
tbssg827
(dp2126
I0
g4
(g5
(I0
tS'b'
tRp2127
(I1
(I0
tg8
I00
S''
tbssg829
(dp2128
I0
g4
(g5
(I0
tS'b'
tRp2129
(I1
(I0
tg8
I00
S''
tbssg831
(dp2130
I0
g4
(g5
(I0
tS'b'
tRp2131
(I1
(I0
tg8
I00
S''
tbssg833
(dp2132
I0
g4
(g5
(I0
tS'b'
tRp2133
(I1
(I0
tg8
I00
S''
tbssg835
(dp2134
I0
g4
(g5
(I0
tS'b'
tRp2135
(I1
(I0
tg8
I00
S''
tbssg510
(dp2136
I0
g4
(g5
(I0
tS'b'
tRp2137
(I1
(I0
tg8
I00
S''
tbssg839
(dp2138
I0
g4
(g5
(I0
tS'b'
tRp2139
(I1
(I0
tg8
I00
S''
tbssg795
(dp2140
I0
g4
(g5
(I0
tS'b'
tRp2141
(I1
(I0
tg8
I00
S''
tbssg793
(dp2142
I0
g4
(g5
(I0
tS'b'
tRp2143
(I1
(I0
tg8
I00
S''
tbssg845
(dp2144
I0
g4
(g5
(I0
tS'b'
tRp2145
(I1
(I0
tg8
I00
S''
tbssg847
(dp2146
I0
g4
(g5
(I0
tS'b'
tRp2147
(I1
(I0
tg8
I00
S''
tbssg849
(dp2148
I0
g4
(g5
(I0
tS'b'
tRp2149
(I1
(I0
tg8
I00
S''
tbssg851
(dp2150
I0
g4
(g5
(I0
tS'b'
tRp2151
(I1
(I0
tg8
I00
S''
tbssg853
(dp2152
I0
g4
(g5
(I0
tS'b'
tRp2153
(I1
(I0
tg8
I00
S''
tbssg855
(dp2154
I0
g4
(g5
(I0
tS'b'
tRp2155
(I1
(I0
tg8
I00
S''
tbssg857
(dp2156
I0
g4
(g5
(I0
tS'b'
tRp2157
(I1
(I0
tg8
I00
S''
tbssg564
(dp2158
I0
g4
(g5
(I0
tS'b'
tRp2159
(I1
(I0
tg8
I00
S''
tbssg859
(dp2160
I0
g4
(g5
(I0
tS'b'
tRp2161
(I1
(I0
tg8
I00
S''
tbssg861
(dp2162
I0
g4
(g5
(I0
tS'b'
tRp2163
(I1
(I0
tg8
I00
S''
tbssg681
(dp2164
I0
g4
(g5
(I0
tS'b'
tRp2165
(I1
(I0
tg8
I00
S''
tbssg837
(dp2166
I0
g4
(g5
(I0
tS'b'
tRp2167
(I1
(I0
tg8
I00
S''
tbssg863
(dp2168
I0
g4
(g5
(I0
tS'b'
tRp2169
(I1
(I0
tg8
I00
S''
tbssg865
(dp2170
I0
g4
(g5
(I0
tS'b'
tRp2171
(I1
(I0
tg8
I00
S''
tbssg603
(dp2172
I0
g4
(g5
(I0
tS'b'
tRp2173
(I1
(I0
tg8
I00
S''
tbssg517
(dp2174
I0
g4
(g5
(I0
tS'b'
tRp2175
(I1
(I0
tg8
I00
S''
tbssg870
(dp2176
I0
g4
(g5
(I0
tS'b'
tRp2177
(I1
(I0
tg8
I00
S''
tbssg872
(dp2178
I0
g4
(g5
(I0
tS'b'
tRp2179
(I1
(I0
tg8
I00
S''
tbssg874
(dp2180
I0
g4
(g5
(I0
tS'b'
tRp2181
(I1
(I0
tg8
I00
S''
tbssg876
(dp2182
I0
g4
(g5
(I0
tS'b'
tRp2183
(I1
(I0
tg8
I00
S''
tbssg878
(dp2184
I0
g4
(g5
(I0
tS'b'
tRp2185
(I1
(I0
tg8
I00
S''
tbssg880
(dp2186
I0
g4
(g5
(I0
tS'b'
tRp2187
(I1
(I0
tg8
I00
S''
tbssg562
(dp2188
I0
g4
(g5
(I0
tS'b'
tRp2189
(I1
(I0
tg8
I00
S''
tbssg883
(dp2190
I0
g4
(g5
(I0
tS'b'
tRp2191
(I1
(I0
tg8
I00
S''
tbssg885
(dp2192
I0
g4
(g5
(I0
tS'b'
tRp2193
(I1
(I0
tg8
I00
S''
tbssg887
(dp2194
I0
g4
(g5
(I0
tS'b'
tRp2195
(I1
(I0
tg8
I00
S''
tbssg566
(dp2196
I0
g4
(g5
(I0
tS'b'
tRp2197
(I1
(I0
tg8
I00
S''
tbssg867
(dp2198
I0
g4
(g5
(I0
tS'b'
tRp2199
(I1
(I0
tg8
I00
S''
tbssg891
(dp2200
I0
g4
(g5
(I0
tS'b'
tRp2201
(I1
(I0
tg8
I00
S''
tbssg893
(dp2202
I0
g4
(g5
(I0
tS'b'
tRp2203
(I1
(I0
tg8
I00
S''
tbssg895
(dp2204
I0
g4
(g5
(I0
tS'b'
tRp2205
(I1
(I0
tg8
I00
S''
tbssg571
(dp2206
I0
g4
(g5
(I0
tS'b'
tRp2207
(I1
(I0
tg8
I00
S''
tbssg898
(dp2208
I0
g4
(g5
(I0
tS'b'
tRp2209
(I1
(I0
tg8
I00
S''
tbssg611
(dp2210
I0
g4
(g5
(I0
tS'b'
tRp2211
(I1
(I0
tg8
I00
S''
tbssg585
(dp2212
I0
g4
(g5
(I0
tS'b'
tRp2213
(I1
(I0
tg8
I00
S''
tbssg902
(dp2214
I0
g4
(g5
(I0
tS'b'
tRp2215
(I1
(I0
tg8
I00
S''
tbssg906
(dp2216
I0
g4
(g5
(I0
tS'b'
tRp2217
(I1
(I0
tg8
I00
S''
tbssg908
(dp2218
I0
g4
(g5
(I0
tS'b'
tRp2219
(I1
(I0
tg8
I00
S''
tbssg904
(dp2220
I0
g4
(g5
(I0
tS'b'
tRp2221
(I1
(I0
tg8
I00
S''
tbssg911
(dp2222
I0
g4
(g5
(I0
tS'b'
tRp2223
(I1
(I0
tg8
I00
S''
tbssg913
(dp2224
I0
g4
(g5
(I0
tS'b'
tRp2225
(I1
(I0
tg8
I00
S''
tbssg645
(dp2226
I0
g4
(g5
(I0
tS'b'
tRp2227
(I1
(I0
tg8
I00
S''
tbssg594
(dp2228
I0
g4
(g5
(I0
tS'b'
tRp2229
(I1
(I0
tg8
I00
S''
tbssg918
(dp2230
I0
g4
(g5
(I0
tS'b'
tRp2231
(I1
(I0
tg8
I00
S''
tbssg657
(dp2232
I0
g4
(g5
(I0
tS'b'
tRp2233
(I1
(I0
tg8
I00
S''
tbssg756
(dp2234
I0
g4
(g5
(I0
tS'b'
tRp2235
(I1
(I0
tg8
I00
S''
tbssg821
(dp2236
I0
g4
(g5
(I0
tS'b'
tRp2237
(I1
(I0
tg8
I00
S''
tbssg843
(dp2238
I0
g4
(g5
(I0
tS'b'
tRp2239
(I1
(I0
tg8
I00
S''
tbssg926
(dp2240
I0
g4
(g5
(I0
tS'b'
tRp2241
(I1
(I0
tg8
I00
S''
tbssg928
(dp2242
I0
g4
(g5
(I0
tS'b'
tRp2243
(I1
(I0
tg8
I00
S''
tbssg930
(dp2244
I0
g4
(g5
(I0
tS'b'
tRp2245
(I1
(I0
tg8
I00
S''
tbssS'a'
(dp2246
I0
g4
(g5
(I0
tS'b'
tRp2247
(I1
(I0
tg8
I00
S''
tbssg934
(dp2248
I0
g4
(g5
(I0
tS'b'
tRp2249
(I1
(I0
tg8
I00
S''
tbssg924
(dp2250
I0
g4
(g5
(I0
tS'b'
tRp2251
(I1
(I0
tg8
I00
S''
tbssg590
(dp2252
I0
g4
(g5
(I0
tS'b'
tRp2253
(I1
(I0
tg8
I00
S''
tbssg938
(dp2254
I0
g4
(g5
(I0
tS'b'
tRp2255
(I1
(I0
tg8
I00
S''
tbssg470
(dp2256
I0
g4
(g5
(I0
tS'b'
tRp2257
(I1
(I0
tg8
I00
S''
tbssg940
(dp2258
I0
g4
(g5
(I0
tS'b'
tRp2259
(I1
(I0
tg8
I00
S''
tbssg782
(dp2260
I0
g4
(g5
(I0
tS'b'
tRp2261
(I1
(I0
tg8
I00
S''
tbssg683
(dp2262
I0
g4
(g5
(I0
tS'b'
tRp2263
(I1
(I0
tg8
I00
S''
tbssg942
(dp2264
I0
g4
(g5
(I0
tS'b'
tRp2265
(I1
(I0
tg8
I00
S''
tbssg922
(dp2266
I0
g4
(g5
(I0
tS'b'
tRp2267
(I1
(I0
tg8
I00
S''
tbssg780
(dp2268
I0
g4
(g5
(I0
tS'b'
tRp2269
(I1
(I0
tg8
I00
S''
tbssg947
(dp2270
I0
g4
(g5
(I0
tS'b'
tRp2271
(I1
(I0
tg8
I00
S''
tbssg949
(dp2272
I0
g4
(g5
(I0
tS'b'
tRp2273
(I1
(I0
tg8
I00
S''
tbssg951
(dp2274
I0
g4
(g5
(I0
tS'b'
tRp2275
(I1
(I0
tg8
I00
S''
tbss.