(dp1
S'v_C(trial_PE)[UU]_subj.2'
p2
(dp3
I0
cnumpy.core.multiarray
_reconstruct
p4
(cnumpy
ndarray
p5
(I0
tS'b'
tRp6
(I1
(I0
tcnumpy
dtype
p7
(S'f8'
I0
I1
tRp8
(I3
S'<'
NNNI-1
I-1
I0
tbI00
S''
tbssS'v_C(trial_PE)[UU]_subj.3'
p9
(dp10
I0
g4
(g5
(I0
tS'b'
tRp11
(I1
(I0
tg8
I00
S''
tbssS'v_C(trial_PE)[UU]_subj.0'
p12
(dp13
I0
g4
(g5
(I0
tS'b'
tRp14
(I1
(I0
tg8
I00
S''
tbssS'v_C(trial_PE)[UU]_subj.1'
p15
(dp16
I0
g4
(g5
(I0
tS'b'
tRp17
(I1
(I0
tg8
I00
S''
tbssS'v_C(trial_PE)[UU]_subj.6'
p18
(dp19
I0
g4
(g5
(I0
tS'b'
tRp20
(I1
(I0
tg8
I00
S''
tbssS't_C(trial_PE)[PP]_subj.28'
p21
(dp22
I0
g4
(g5
(I0
tS'b'
tRp23
(I1
(I0
tg8
I00
S''
tbssS'v_C(trial_PE)[UU]_subj.4'
p24
(dp25
I0
g4
(g5
(I0
tS'b'
tRp26
(I1
(I0
tg8
I00
S''
tbssS'v_C(trial_PE)[UU]_subj.5'
p27
(dp28
I0
g4
(g5
(I0
tS'b'
tRp29
(I1
(I0
tg8
I00
S''
tbssS't_C(trial_PE)[PP]_subj.25'
p30
(dp31
I0
g4
(g5
(I0
tS'b'
tRp32
(I1
(I0
tg8
I00
S''
tbssS't_C(trial_PE)[PP]_subj.24'
p33
(dp34
I0
g4
(g5
(I0
tS'b'
tRp35
(I1
(I0
tg8
I00
S''
tbssS't_C(trial_PE)[PP]_subj.27'
p36
(dp37
I0
g4
(g5
(I0
tS'b'
tRp38
(I1
(I0
tg8
I00
S''
tbssS'v_C(trial_PE)[UU]_subj.9'
p39
(dp40
I0
g4
(g5
(I0
tS'b'
tRp41
(I1
(I0
tg8
I00
S''
tbssS't_C(trial_PE)[PP]_subj.21'
p42
(dp43
I0
g4
(g5
(I0
tS'b'
tRp44
(I1
(I0
tg8
I00
S''
tbssS't_C(trial_PE)[PP]_subj.20'
p45
(dp46
I0
g4
(g5
(I0
tS'b'
tRp47
(I1
(I0
tg8
I00
S''
tbssS't_C(trial_PE)[PP]_subj.23'
p48
(dp49
I0
g4
(g5
(I0
tS'b'
tRp50
(I1
(I0
tg8
I00
S''
tbssS't_C(trial_PE)[PP]_subj.22'
p51
(dp52
I0
g4
(g5
(I0
tS'b'
tRp53
(I1
(I0
tg8
I00
S''
tbssS'v_C(trial_PE)[PU]_subj.15'
p54
(dp55
I0
g4
(g5
(I0
tS'b'
tRp56
(I1
(I0
tg8
I00
S''
tbssS'v_C(trial_PE)[PU]_subj.14'
p57
(dp58
I0
g4
(g5
(I0
tS'b'
tRp59
(I1
(I0
tg8
I00
S''
tbssS'v_C(trial_PE)[PU]_subj.17'
p60
(dp61
I0
g4
(g5
(I0
tS'b'
tRp62
(I1
(I0
tg8
I00
S''
tbssS'v_C(trial_PE)[PU]_subj.16'
p63
(dp64
I0
g4
(g5
(I0
tS'b'
tRp65
(I1
(I0
tg8
I00
S''
tbssS't_C(trial_PE)[UU]_subj.8'
p66
(dp67
I0
g4
(g5
(I0
tS'b'
tRp68
(I1
(I0
tg8
I00
S''
tbssS'v_C(trial_PE)[PU]_subj.10'
p69
(dp70
I0
g4
(g5
(I0
tS'b'
tRp71
(I1
(I0
tg8
I00
S''
tbssS'v_C(trial_PE)[PU]_subj.13'
p72
(dp73
I0
g4
(g5
(I0
tS'b'
tRp74
(I1
(I0
tg8
I00
S''
tbssS'v_C(trial_PE)[PU]_subj.12'
p75
(dp76
I0
g4
(g5
(I0
tS'b'
tRp77
(I1
(I0
tg8
I00
S''
tbssS't_C(trial_PE)[UP]_subj.15'
p78
(dp79
I0
g4
(g5
(I0
tS'b'
tRp80
(I1
(I0
tg8
I00
S''
tbssS't_C(trial_PE)[UU]_subj.5'
p81
(dp82
I0
g4
(g5
(I0
tS'b'
tRp83
(I1
(I0
tg8
I00
S''
tbssS't_C(trial_PE)[UU]_subj.6'
p84
(dp85
I0
g4
(g5
(I0
tS'b'
tRp86
(I1
(I0
tg8
I00
S''
tbssS't_C(trial_PE)[UU]_subj.7'
p87
(dp88
I0
g4
(g5
(I0
tS'b'
tRp89
(I1
(I0
tg8
I00
S''
tbssS't_C(trial_PE)[UU]_subj.0'
p90
(dp91
I0
g4
(g5
(I0
tS'b'
tRp92
(I1
(I0
tg8
I00
S''
tbssS't_C(trial_PE)[UP]_subj.10'
p93
(dp94
I0
g4
(g5
(I0
tS'b'
tRp95
(I1
(I0
tg8
I00
S''
tbssS't_C(trial_PE)[UP]_subj.13'
p96
(dp97
I0
g4
(g5
(I0
tS'b'
tRp98
(I1
(I0
tg8
I00
S''
tbssS'v_C(trial_PE)[UP]_subj.4'
p99
(dp100
I0
g4
(g5
(I0
tS'b'
tRp101
(I1
(I0
tg8
I00
S''
tbssS't_C(trial_PE)[UU]'
p102
(dp103
I0
g4
(g5
(I0
tS'b'
tRp104
(I1
(I0
tg8
I00
S''
tbssS'v_C(trial_PE)[UU]_subj.7'
p105
(dp106
I0
g4
(g5
(I0
tS'b'
tRp107
(I1
(I0
tg8
I00
S''
tbssS'v_C(trial_PE)[UP]_subj.30'
p108
(dp109
I0
g4
(g5
(I0
tS'b'
tRp110
(I1
(I0
tg8
I00
S''
tbssS'v_C(trial_PE)[UP]_subj.32'
p111
(dp112
I0
g4
(g5
(I0
tS'b'
tRp113
(I1
(I0
tg8
I00
S''
tbssS't_C(trial_PE)[UU]_subj.29'
p114
(dp115
I0
g4
(g5
(I0
tS'b'
tRp116
(I1
(I0
tg8
I00
S''
tbssS't_C(trial_PE)[PU]_subj.10'
p117
(dp118
I0
g4
(g5
(I0
tS'b'
tRp119
(I1
(I0
tg8
I00
S''
tbssS'v_C(trial_PE)[UP]_subj.16'
p120
(dp121
I0
g4
(g5
(I0
tS'b'
tRp122
(I1
(I0
tg8
I00
S''
tbssS'v_C(trial_PE)[UU]_subj.8'
p123
(dp124
I0
g4
(g5
(I0
tS'b'
tRp125
(I1
(I0
tg8
I00
S''
tbssS'v_C(trial_PE)[PP]_std'
p126
(dp127
I0
g4
(g5
(I0
tS'b'
tRp128
(I1
(I0
tg8
I00
S''
tbssS't_C(trial_PE)[UU]_subj.16'
p129
(dp130
I0
g4
(g5
(I0
tS'b'
tRp131
(I1
(I0
tg8
I00
S''
tbssS'a_subj.7'
p132
(dp133
I0
g4
(g5
(I0
tS'b'
tRp134
(I1
(I0
tg8
I00
S''
tbssS't_C(trial_PE)[PP]_subj.26'
p135
(dp136
I0
g4
(g5
(I0
tS'b'
tRp137
(I1
(I0
tg8
I00
S''
tbssS't_C(trial_PE)[UU]_std'
p138
(dp139
I0
g4
(g5
(I0
tS'b'
tRp140
(I1
(I0
tg8
I00
S''
tbssS't_C(trial_PE)[UU]_subj.17'
p141
(dp142
I0
g4
(g5
(I0
tS'b'
tRp143
(I1
(I0
tg8
I00
S''
tbssS'v_C(trial_PE)[PU]_subj.1'
p144
(dp145
I0
g4
(g5
(I0
tS'b'
tRp146
(I1
(I0
tg8
I00
S''
tbssS't_C(trial_PE)[PP]_subj.32'
p147
(dp148
I0
g4
(g5
(I0
tS'b'
tRp149
(I1
(I0
tg8
I00
S''
tbssS't_C(trial_PE)[UU]_subj.14'
p150
(dp151
I0
g4
(g5
(I0
tS'b'
tRp152
(I1
(I0
tg8
I00
S''
tbssS't_C(trial_PE)[PP]_subj.30'
p153
(dp154
I0
g4
(g5
(I0
tS'b'
tRp155
(I1
(I0
tg8
I00
S''
tbssS't_C(trial_PE)[PP]_subj.31'
p156
(dp157
I0
g4
(g5
(I0
tS'b'
tRp158
(I1
(I0
tg8
I00
S''
tbssS'v_C(trial_PE)[UU]_subj.22'
p159
(dp160
I0
g4
(g5
(I0
tS'b'
tRp161
(I1
(I0
tg8
I00
S''
tbssS'a_subj.29'
p162
(dp163
I0
g4
(g5
(I0
tS'b'
tRp164
(I1
(I0
tg8
I00
S''
tbssS'a_subj.28'
p165
(dp166
I0
g4
(g5
(I0
tS'b'
tRp167
(I1
(I0
tg8
I00
S''
tbssS'a_subj.25'
p168
(dp169
I0
g4
(g5
(I0
tS'b'
tRp170
(I1
(I0
tg8
I00
S''
tbssS'a_subj.24'
p171
(dp172
I0
g4
(g5
(I0
tS'b'
tRp173
(I1
(I0
tg8
I00
S''
tbssS'a_subj.27'
p174
(dp175
I0
g4
(g5
(I0
tS'b'
tRp176
(I1
(I0
tg8
I00
S''
tbssS'a_subj.26'
p177
(dp178
I0
g4
(g5
(I0
tS'b'
tRp179
(I1
(I0
tg8
I00
S''
tbssS'a_subj.21'
p180
(dp181
I0
g4
(g5
(I0
tS'b'
tRp182
(I1
(I0
tg8
I00
S''
tbssS'a_subj.20'
p183
(dp184
I0
g4
(g5
(I0
tS'b'
tRp185
(I1
(I0
tg8
I00
S''
tbssS'a_subj.23'
p186
(dp187
I0
g4
(g5
(I0
tS'b'
tRp188
(I1
(I0
tg8
I00
S''
tbssS'a_subj.22'
p189
(dp190
I0
g4
(g5
(I0
tS'b'
tRp191
(I1
(I0
tg8
I00
S''
tbssS'v_C(trial_PE)[UU]_subj.21'
p192
(dp193
I0
g4
(g5
(I0
tS'b'
tRp194
(I1
(I0
tg8
I00
S''
tbssS'v_C(trial_PE)[UU]_subj.20'
p195
(dp196
I0
g4
(g5
(I0
tS'b'
tRp197
(I1
(I0
tg8
I00
S''
tbssS'v_C(trial_PE)[UP]_subj.28'
p198
(dp199
I0
g4
(g5
(I0
tS'b'
tRp200
(I1
(I0
tg8
I00
S''
tbssS'v_C(trial_PE)[UP]_subj.29'
p201
(dp202
I0
g4
(g5
(I0
tS'b'
tRp203
(I1
(I0
tg8
I00
S''
tbssS'v_C(trial_PE)[UU]_subj.25'
p204
(dp205
I0
g4
(g5
(I0
tS'b'
tRp206
(I1
(I0
tg8
I00
S''
tbssS'v_C(trial_PE)[PP]_subj.2'
p207
(dp208
I0
g4
(g5
(I0
tS'b'
tRp209
(I1
(I0
tg8
I00
S''
tbssS'v_C(trial_PE)[UU]_subj.27'
p210
(dp211
I0
g4
(g5
(I0
tS'b'
tRp212
(I1
(I0
tg8
I00
S''
tbssS'deviance'
p213
(dp214
I0
g4
(g5
(I0
tS'b'
tRp215
(I1
(I0
tg8
I00
S''
tbssS'v_C(trial_PE)[UP]_subj.22'
p216
(dp217
I0
g4
(g5
(I0
tS'b'
tRp218
(I1
(I0
tg8
I00
S''
tbssS'v_C(trial_PE)[UU]_subj.28'
p219
(dp220
I0
g4
(g5
(I0
tS'b'
tRp221
(I1
(I0
tg8
I00
S''
tbssS'v_C(trial_PE)[UP]_subj.20'
p222
(dp223
I0
g4
(g5
(I0
tS'b'
tRp224
(I1
(I0
tg8
I00
S''
tbssS'v_C(trial_PE)[UU]_subj.26'
p225
(dp226
I0
g4
(g5
(I0
tS'b'
tRp227
(I1
(I0
tg8
I00
S''
tbssS'v_C(trial_PE)[UP]_subj.26'
p228
(dp229
I0
g4
(g5
(I0
tS'b'
tRp230
(I1
(I0
tg8
I00
S''
tbssS'v_C(trial_PE)[UP]_subj.27'
p231
(dp232
I0
g4
(g5
(I0
tS'b'
tRp233
(I1
(I0
tg8
I00
S''
tbssS'v_C(trial_PE)[UP]_subj.24'
p234
(dp235
I0
g4
(g5
(I0
tS'b'
tRp236
(I1
(I0
tg8
I00
S''
tbssS'v_C(trial_PE)[UP]_subj.25'
p237
(dp238
I0
g4
(g5
(I0
tS'b'
tRp239
(I1
(I0
tg8
I00
S''
tbssS'v_C(trial_PE)[UU]_subj.29'
p240
(dp241
I0
g4
(g5
(I0
tS'b'
tRp242
(I1
(I0
tg8
I00
S''
tbssS'v_C(trial_PE)[UP]_subj.9'
p243
(dp244
I0
g4
(g5
(I0
tS'b'
tRp245
(I1
(I0
tg8
I00
S''
tbssS'v_C(trial_PE)[UP]_subj.8'
p246
(dp247
I0
g4
(g5
(I0
tS'b'
tRp248
(I1
(I0
tg8
I00
S''
tbssS'v_C(trial_PE)[PP]'
p249
(dp250
I0
g4
(g5
(I0
tS'b'
tRp251
(I1
(I0
tg8
I00
S''
tbssS'v_C(trial_PE)[UP]_subj.23'
p252
(dp253
I0
g4
(g5
(I0
tS'b'
tRp254
(I1
(I0
tg8
I00
S''
tbssS'v_C(trial_PE)[PP]_subj.30'
p255
(dp256
I0
g4
(g5
(I0
tS'b'
tRp257
(I1
(I0
tg8
I00
S''
tbssS'a_subj.5'
p258
(dp259
I0
g4
(g5
(I0
tS'b'
tRp260
(I1
(I0
tg8
I00
S''
tbssS't_C(trial_PE)[UP]_subj.18'
p261
(dp262
I0
g4
(g5
(I0
tS'b'
tRp263
(I1
(I0
tg8
I00
S''
tbssS't_C(trial_PE)[PU]_std'
p264
(dp265
I0
g4
(g5
(I0
tS'b'
tRp266
(I1
(I0
tg8
I00
S''
tbssS'a_std'
p267
(dp268
I0
g4
(g5
(I0
tS'b'
tRp269
(I1
(I0
tg8
I00
S''
tbssS'v_C(trial_PE)[UP]_subj.21'
p270
(dp271
I0
g4
(g5
(I0
tS'b'
tRp272
(I1
(I0
tg8
I00
S''
tbssS'v_C(trial_PE)[PP]_subj.32'
p273
(dp274
I0
g4
(g5
(I0
tS'b'
tRp275
(I1
(I0
tg8
I00
S''
tbssS'v_C(trial_PE)[PP]_subj.1'
p276
(dp277
I0
g4
(g5
(I0
tS'b'
tRp278
(I1
(I0
tg8
I00
S''
tbssS't_C(trial_PE)[UU]_subj.12'
p279
(dp280
I0
g4
(g5
(I0
tS'b'
tRp281
(I1
(I0
tg8
I00
S''
tbssS'a_subj.13'
p282
(dp283
I0
g4
(g5
(I0
tS'b'
tRp284
(I1
(I0
tg8
I00
S''
tbssS't_C(trial_PE)[UU]_subj.4'
p285
(dp286
I0
g4
(g5
(I0
tS'b'
tRp287
(I1
(I0
tg8
I00
S''
tbssS't_C(trial_PE)[UP]_subj.31'
p288
(dp289
I0
g4
(g5
(I0
tS'b'
tRp290
(I1
(I0
tg8
I00
S''
tbssS't_C(trial_PE)[UP]_subj.30'
p291
(dp292
I0
g4
(g5
(I0
tS'b'
tRp293
(I1
(I0
tg8
I00
S''
tbssS'v_pupil_response_1'
p294
(dp295
I0
g4
(g5
(I0
tS'b'
tRp296
(I1
(I0
tg8
I00
S''
tbssS'a_subj.32'
p297
(dp298
I0
g4
(g5
(I0
tS'b'
tRp299
(I1
(I0
tg8
I00
S''
tbssS'v_C(trial_PE)[UP]_subj.1'
p300
(dp301
I0
g4
(g5
(I0
tS'b'
tRp302
(I1
(I0
tg8
I00
S''
tbssS'a_subj.30'
p303
(dp304
I0
g4
(g5
(I0
tS'b'
tRp305
(I1
(I0
tg8
I00
S''
tbssS'a_subj.31'
p306
(dp307
I0
g4
(g5
(I0
tS'b'
tRp308
(I1
(I0
tg8
I00
S''
tbssS'v_C(trial_PE)[UU]_subj.32'
p309
(dp310
I0
g4
(g5
(I0
tS'b'
tRp311
(I1
(I0
tg8
I00
S''
tbssS'v_C(trial_PE)[UU]_subj.30'
p312
(dp313
I0
g4
(g5
(I0
tS'b'
tRp314
(I1
(I0
tg8
I00
S''
tbssS'v_C(trial_PE)[UU]_subj.31'
p315
(dp316
I0
g4
(g5
(I0
tS'b'
tRp317
(I1
(I0
tg8
I00
S''
tbssS'a_subj.0'
p318
(dp319
I0
g4
(g5
(I0
tS'b'
tRp320
(I1
(I0
tg8
I00
S''
tbssS'v_C(trial_PE)[UP]_subj.19'
p321
(dp322
I0
g4
(g5
(I0
tS'b'
tRp323
(I1
(I0
tg8
I00
S''
tbssS'v_C(trial_PE)[UP]_subj.18'
p324
(dp325
I0
g4
(g5
(I0
tS'b'
tRp326
(I1
(I0
tg8
I00
S''
tbssS'v_C(trial_PE)[UP]_subj.17'
p327
(dp328
I0
g4
(g5
(I0
tS'b'
tRp329
(I1
(I0
tg8
I00
S''
tbssS't_C(trial_PE)[UP]_subj.11'
p330
(dp331
I0
g4
(g5
(I0
tS'b'
tRp332
(I1
(I0
tg8
I00
S''
tbssS'v_C(trial_PE)[UP]_subj.15'
p333
(dp334
I0
g4
(g5
(I0
tS'b'
tRp335
(I1
(I0
tg8
I00
S''
tbssS'v_C(trial_PE)[UP]_subj.14'
p336
(dp337
I0
g4
(g5
(I0
tS'b'
tRp338
(I1
(I0
tg8
I00
S''
tbssS'v_C(trial_PE)[UP]_subj.13'
p339
(dp340
I0
g4
(g5
(I0
tS'b'
tRp341
(I1
(I0
tg8
I00
S''
tbssS'v_C(trial_PE)[UP]_subj.12'
p342
(dp343
I0
g4
(g5
(I0
tS'b'
tRp344
(I1
(I0
tg8
I00
S''
tbssS'v_C(trial_PE)[UP]_subj.11'
p345
(dp346
I0
g4
(g5
(I0
tS'b'
tRp347
(I1
(I0
tg8
I00
S''
tbssS't_C(trial_PE)[UU]_subj.1'
p348
(dp349
I0
g4
(g5
(I0
tS'b'
tRp350
(I1
(I0
tg8
I00
S''
tbssS't_C(trial_PE)[UP]_subj.14'
p351
(dp352
I0
g4
(g5
(I0
tS'b'
tRp353
(I1
(I0
tg8
I00
S''
tbssS'v_C(trial_PE)[UP]_subj.5'
p354
(dp355
I0
g4
(g5
(I0
tS'b'
tRp356
(I1
(I0
tg8
I00
S''
tbssS't_C(trial_PE)[UU]_subj.3'
p357
(dp358
I0
g4
(g5
(I0
tS'b'
tRp359
(I1
(I0
tg8
I00
S''
tbssS't_C(trial_PE)[PP]_subj.14'
p360
(dp361
I0
g4
(g5
(I0
tS'b'
tRp362
(I1
(I0
tg8
I00
S''
tbssS't_C(trial_PE)[PP]_subj.15'
p363
(dp364
I0
g4
(g5
(I0
tS'b'
tRp365
(I1
(I0
tg8
I00
S''
tbssS't_C(trial_PE)[PP]_subj.16'
p366
(dp367
I0
g4
(g5
(I0
tS'b'
tRp368
(I1
(I0
tg8
I00
S''
tbssS't_C(trial_PE)[PP]_subj.17'
p369
(dp370
I0
g4
(g5
(I0
tS'b'
tRp371
(I1
(I0
tg8
I00
S''
tbssS't_C(trial_PE)[PP]_subj.10'
p372
(dp373
I0
g4
(g5
(I0
tS'b'
tRp374
(I1
(I0
tg8
I00
S''
tbssS't_C(trial_PE)[PP]_subj.11'
p375
(dp376
I0
g4
(g5
(I0
tS'b'
tRp377
(I1
(I0
tg8
I00
S''
tbssS't_C(trial_PE)[PP]_subj.12'
p378
(dp379
I0
g4
(g5
(I0
tS'b'
tRp380
(I1
(I0
tg8
I00
S''
tbssS't_C(trial_PE)[PP]_subj.13'
p381
(dp382
I0
g4
(g5
(I0
tS'b'
tRp383
(I1
(I0
tg8
I00
S''
tbssS't_C(trial_PE)[PP]_subj.18'
p384
(dp385
I0
g4
(g5
(I0
tS'b'
tRp386
(I1
(I0
tg8
I00
S''
tbssS't_C(trial_PE)[UP]'
p387
(dp388
I0
g4
(g5
(I0
tS'b'
tRp389
(I1
(I0
tg8
I00
S''
tbssS't_C(trial_PE)[PP]_subj.19'
p390
(dp391
I0
g4
(g5
(I0
tS'b'
tRp392
(I1
(I0
tg8
I00
S''
tbssS't_C(trial_PE)[UP]_subj.24'
p393
(dp394
I0
g4
(g5
(I0
tS'b'
tRp395
(I1
(I0
tg8
I00
S''
tbssS't_C(trial_PE)[UP]_subj.25'
p396
(dp397
I0
g4
(g5
(I0
tS'b'
tRp398
(I1
(I0
tg8
I00
S''
tbssS't_C(trial_PE)[UP]_subj.26'
p399
(dp400
I0
g4
(g5
(I0
tS'b'
tRp401
(I1
(I0
tg8
I00
S''
tbssS't_C(trial_PE)[UP]_subj.27'
p402
(dp403
I0
g4
(g5
(I0
tS'b'
tRp404
(I1
(I0
tg8
I00
S''
tbssS't_C(trial_PE)[UP]_subj.20'
p405
(dp406
I0
g4
(g5
(I0
tS'b'
tRp407
(I1
(I0
tg8
I00
S''
tbssS't_C(trial_PE)[UP]_subj.21'
p408
(dp409
I0
g4
(g5
(I0
tS'b'
tRp410
(I1
(I0
tg8
I00
S''
tbssS't_C(trial_PE)[UP]_subj.22'
p411
(dp412
I0
g4
(g5
(I0
tS'b'
tRp413
(I1
(I0
tg8
I00
S''
tbssS't_C(trial_PE)[UP]_subj.23'
p414
(dp415
I0
g4
(g5
(I0
tS'b'
tRp416
(I1
(I0
tg8
I00
S''
tbssS'v_C(trial_PE)[PU]_subj.11'
p417
(dp418
I0
g4
(g5
(I0
tS'b'
tRp419
(I1
(I0
tg8
I00
S''
tbssS't_C(trial_PE)[UP]_subj.28'
p420
(dp421
I0
g4
(g5
(I0
tS'b'
tRp422
(I1
(I0
tg8
I00
S''
tbssS't_C(trial_PE)[UP]_subj.29'
p423
(dp424
I0
g4
(g5
(I0
tS'b'
tRp425
(I1
(I0
tg8
I00
S''
tbssS'v_C(trial_PE)[PP]_subj.26'
p426
(dp427
I0
g4
(g5
(I0
tS'b'
tRp428
(I1
(I0
tg8
I00
S''
tbssS'v_C(trial_PE)[T.UP]:pupil_response_1'
p429
(dp430
I0
g4
(g5
(I0
tS'b'
tRp431
(I1
(I0
tg8
I00
S''
tbssS'v_C(trial_PE)[PU]_subj.32'
p432
(dp433
I0
g4
(g5
(I0
tS'b'
tRp434
(I1
(I0
tg8
I00
S''
tbssS'v_C(trial_PE)[PU]_subj.31'
p435
(dp436
I0
g4
(g5
(I0
tS'b'
tRp437
(I1
(I0
tg8
I00
S''
tbssS'v_C(trial_PE)[PU]_subj.30'
p438
(dp439
I0
g4
(g5
(I0
tS'b'
tRp440
(I1
(I0
tg8
I00
S''
tbssS't_C(trial_PE)[UP]_subj.32'
p441
(dp442
I0
g4
(g5
(I0
tS'b'
tRp443
(I1
(I0
tg8
I00
S''
tbssS'v_C(trial_PE)[PP]_subj.21'
p444
(dp445
I0
g4
(g5
(I0
tS'b'
tRp446
(I1
(I0
tg8
I00
S''
tbssS'v_C(trial_PE)[PU]_subj.19'
p447
(dp448
I0
g4
(g5
(I0
tS'b'
tRp449
(I1
(I0
tg8
I00
S''
tbssS't_C(trial_PE)[UP]_subj.16'
p450
(dp451
I0
g4
(g5
(I0
tS'b'
tRp452
(I1
(I0
tg8
I00
S''
tbssS'v_C(trial_PE)[UP]_subj.31'
p453
(dp454
I0
g4
(g5
(I0
tS'b'
tRp455
(I1
(I0
tg8
I00
S''
tbssS'_state_'
p456
(dp457
S'stochastics'
p458
(dp459
g2
g4
(g5
(I0
tS'b'
tRp460
(I1
(tg8
I00
S'\x9d\xc2\xb8\xf0\xa49\xfa?'
tbsg9
g4
(g5
(I0
tS'b'
tRp461
(I1
(tg8
I00
S'\xca\xdb\x8d\xf5\xd4\x00\xfc?'
tbsg12
g4
(g5
(I0
tS'b'
tRp462
(I1
(tg8
I00
S'q\xe4\x1e\\\xd9\xbf\xf9?'
tbsg15
g4
(g5
(I0
tS'b'
tRp463
(I1
(tg8
I00
S'\x84\xab*\x10\xfeZ\xfb?'
tbsg18
g4
(g5
(I0
tS'b'
tRp464
(I1
(tg8
I00
S'H\xb1x\xbc\x88\xc2\xf8?'
tbsg105
g4
(g5
(I0
tS'b'
tRp465
(I1
(tg8
I00
S'qw\x01\xb9o\xbd\xf9?'
tbsg24
g4
(g5
(I0
tS'b'
tRp466
(I1
(tg8
I00
S'u\x84\xbbe]\x04\xf7?'
tbsg27
g4
(g5
(I0
tS'b'
tRp467
(I1
(tg8
I00
S'+\xda7K\xb3\x88\xfd?'
tbsg30
g4
(g5
(I0
tS'b'
tRp468
(I1
(tg8
I00
S'\xaeL\xb7M\xfaf\xd9?'
tbsg33
g4
(g5
(I0
tS'b'
tRp469
(I1
(tg8
I00
S'\x9f9\xaf\xd2\x93d\xd3?'
tbsg123
g4
(g5
(I0
tS'b'
tRp470
(I1
(tg8
I00
S'\x16\xa6F)\x93\xd2\xf8?'
tbsg39
g4
(g5
(I0
tS'b'
tRp471
(I1
(tg8
I00
S'E\x82\xcd~\xcd\x9b\xfe?'
tbsg42
g4
(g5
(I0
tS'b'
tRp472
(I1
(tg8
I00
S'\nO\xfc\xc1j\x9d\xd1?'
tbsg45
g4
(g5
(I0
tS'b'
tRp473
(I1
(tg8
I00
S'P-\x7f1\xa5\xd5\xd5?'
tbsg48
g4
(g5
(I0
tS'b'
tRp474
(I1
(tg8
I00
S'\xcb\n\x1da\xa1\x1f\xc8?'
tbsg51
g4
(g5
(I0
tS'b'
tRp475
(I1
(tg8
I00
S'\xec\x01\x12\xf5\xbfn\xd5?'
tbsg54
g4
(g5
(I0
tS'b'
tRp476
(I1
(tg8
I00
S'\xa1\xe9!\x1b\xd0\xe6\x00@'
tbsg57
g4
(g5
(I0
tS'b'
tRp477
(I1
(tg8
I00
S"\xe0Y3\xb9'\xc8\xfa?"
tbsg60
g4
(g5
(I0
tS'b'
tRp478
(I1
(tg8
I00
S'\xd1:\xf5\xa9e\xaf\xfb?'
tbsg63
g4
(g5
(I0
tS'b'
tRp479
(I1
(tg8
I00
S'\xca\xcf=\x15f\x05\xf9?'
tbsg417
g4
(g5
(I0
tS'b'
tRp480
(I1
(tg8
I00
S'\xcc\x0c>\xb56}\xf6?'
tbsS't_C(trial_PE)[UU]_subj.9'
p481
g4
(g5
(I0
tS'b'
tRp482
(I1
(tg8
I00
S'\xa7\x90\xc4\xcb\xab\xd5\xde?'
tbsg72
g4
(g5
(I0
tS'b'
tRp483
(I1
(tg8
I00
S'V\x99.\x17\\\xe0\xfb?'
tbsg171
g4
(g5
(I0
tS'b'
tRp484
(I1
(tg8
I00
S'\xc0\xaa\x9b\xbb\x8d\x0b\x02@'
tbsg285
g4
(g5
(I0
tS'b'
tRp485
(I1
(tg8
I00
S'\xf4Y{\x83H\xeb\xd7?'
tbsg294
g4
(g5
(I0
tS'b'
tRp486
(I1
(tg8
I00
S'[\xdf#\xa9\x07\xb1\xa0?'
tbsg84
g4
(g5
(I0
tS'b'
tRp487
(I1
(tg8
I00
S'e\xc2-L\x83w\xe0?'
tbsS'v_C(trial_PE)[UP]_subj.0'
p488
g4
(g5
(I0
tS'b'
tRp489
(I1
(tg8
I00
S'\x1eg\x1b\xb6\xdf\x81\xee?'
tbsg90
g4
(g5
(I0
tS'b'
tRp490
(I1
(tg8
I00
S'j\xdc\xfe3\xe1E\xe5?'
tbsS'v_C(trial_PE)[PU]_subj.18'
p491
g4
(g5
(I0
tS'b'
tRp492
(I1
(tg8
I00
S'6\x0ep\xc4\xb5.\xfe?'
tbsg96
g4
(g5
(I0
tS'b'
tRp493
(I1
(tg8
I00
S'\x05\xba\xdd\xd1\x7fs\xd9?'
tbsg357
g4
(g5
(I0
tS'b'
tRp494
(I1
(tg8
I00
S'\xfa\x9b8u\x88:\xe4?'
tbsS'v_C(trial_PE)[T.PU]:pupil_response_1'
p495
g4
(g5
(I0
tS'b'
tRp496
(I1
(tg8
I00
S'\xa4\x9a\n\x9cz\xc0\xcc?'
tbsg453
g4
(g5
(I0
tS'b'
tRp497
(I1
(tg8
I00
S'\xab-\xd2l\x96}\xf9?'
tbsg108
g4
(g5
(I0
tS'b'
tRp498
(I1
(tg8
I00
S'\xf1\xablB\xfb\x15\xf2?'
tbsS'v_C(trial_PE)[UP]_subj.10'
p499
g4
(g5
(I0
tS'b'
tRp500
(I1
(tg8
I00
S'c\x8b\xdf\x04\xb1\xc4\xfc?'
tbsg111
g4
(g5
(I0
tS'b'
tRp501
(I1
(tg8
I00
S'\x83\x87\xc4@\x14\xb4\xf8?'
tbsg114
g4
(g5
(I0
tS'b'
tRp502
(I1
(tg8
I00
S'\xebc\x18\xec\x19\xd0\xca?'
tbsg117
g4
(g5
(I0
tS'b'
tRp503
(I1
(tg8
I00
S'\xb1\x05Q \x0f\x00\xe3?'
tbsg354
g4
(g5
(I0
tS'b'
tRp504
(I1
(tg8
I00
S'\x12d\x81o"\x1b\xf2?'
tbsg189
g4
(g5
(I0
tS'b'
tRp505
(I1
(tg8
I00
S'\x10\xccm\xbd \x99\n@'
tbsg261
g4
(g5
(I0
tS'b'
tRp506
(I1
(tg8
I00
S'\x94%\xf1\xee\x83E\xd8?'
tbsg36
g4
(g5
(I0
tS'b'
tRp507
(I1
(tg8
I00
S'\x91\xcb\xd9N\n\x10\xcb?'
tbsg126
g4
(g5
(I0
tS'b'
tRp508
(I1
(tg8
I00
S'\xbfF }\xa9\xa7\xef?'
tbsS'v_C(trial_PE)[PP]_subj.4'
p509
g4
(g5
(I0
tS'b'
tRp510
(I1
(tg8
I00
S'\x97\xd6\xef\xa6\xc6\x13\xff?'
tbsg135
g4
(g5
(I0
tS'b'
tRp511
(I1
(tg8
I00
S'\xbd\x8a\x80\xb2a\xac\xd3?'
tbsS't_C(trial_PE)[PP]_subj.3'
p512
g4
(g5
(I0
tS'b'
tRp513
(I1
(tg8
I00
S')\xd0\xc7sI\xae\xdb?'
tbsS'v_C(trial_PE)[PP]_subj.5'
p514
g4
(g5
(I0
tS'b'
tRp515
(I1
(tg8
I00
S'r\xdb\xa5\xb3\x8c\x80\xf9?'
tbsg147
g4
(g5
(I0
tS'b'
tRp516
(I1
(tg8
I00
S'J|p\xad\x86V\xd7?'
tbsg150
g4
(g5
(I0
tS'b'
tRp517
(I1
(tg8
I00
S'\x17!\xf59\xde\x97\xe0?'
tbsg153
g4
(g5
(I0
tS'b'
tRp518
(I1
(tg8
I00
S'RQV\x87S\x8b\xc5?'
tbsg156
g4
(g5
(I0
tS'b'
tRp519
(I1
(tg8
I00
S'\xfd\x85\x16z/\xed\xca?'
tbsS't_C(trial_PE)[UU]_subj.23'
p520
g4
(g5
(I0
tS'b'
tRp521
(I1
(tg8
I00
S'c a\xe2\x19\x8a\xcd?'
tbsg201
g4
(g5
(I0
tS'b'
tRp522
(I1
(tg8
I00
S'$\xe9\xc2\x9bq\x19\xf8?'
tbsg162
g4
(g5
(I0
tS'b'
tRp523
(I1
(tg8
I00
S'\xc6\xefj\xca\xbb\x9e\xfe?'
tbsg165
g4
(g5
(I0
tS'b'
tRp524
(I1
(tg8
I00
S'\xfc\xa0\xfc\xdb.\xbe\x07@'
tbsg168
g4
(g5
(I0
tS'b'
tRp525
(I1
(tg8
I00
S'\xa5\xd9c\x8c9M\x02@'
tbsg279
g4
(g5
(I0
tS'b'
tRp526
(I1
(tg8
I00
S'\xe7J$gx<\xe0?'
tbsg174
g4
(g5
(I0
tS'b'
tRp527
(I1
(tg8
I00
S'W\xc0\x0e\xe5\rg\n@'
tbsg177
g4
(g5
(I0
tS'b'
tRp528
(I1
(tg8
I00
S'\x05\x88f%\xa6H\x02@'
tbsg180
g4
(g5
(I0
tS'b'
tRp529
(I1
(tg8
I00
S'\xb7\xda1UnY\x02@'
tbsg183
g4
(g5
(I0
tS'b'
tRp530
(I1
(tg8
I00
S'\x92c\x88\xb1\xbd\xd8\xff?'
tbsg186
g4
(g5
(I0
tS'b'
tRp531
(I1
(tg8
I00
S'\x131\xfb\xf3\xd2\x8d\xff?'
tbsS'v_C(trial_PE)[PU]'
p532
g4
(g5
(I0
tS'b'
tRp533
(I1
(tg8
I00
S'\xad\xd9s\x8eo\x91\xfb?'
tbsg192
g4
(g5
(I0
tS'b'
tRp534
(I1
(tg8
I00
S'P\xc4\xa6P\xe7@\xf9?'
tbsg195
g4
(g5
(I0
tS'b'
tRp535
(I1
(tg8
I00
S'\x08\xc1\xd60\xf0b\xfd?'
tbsS'v_C(trial_PE)[UU]_subj.23'
p536
g4
(g5
(I0
tS'b'
tRp537
(I1
(tg8
I00
S'\xea\xeb-\xefj\xc5\xfa?'
tbsg159
g4
(g5
(I0
tS'b'
tRp538
(I1
(tg8
I00
S'\xc1\xac\r\r\xe5A\xfb?'
tbsg204
g4
(g5
(I0
tS'b'
tRp539
(I1
(tg8
I00
S'1\xbf\xf1D\x9e\xd3\xf5?'
tbsS'v_C(trial_PE)[UU]_subj.24'
p540
g4
(g5
(I0
tS'b'
tRp541
(I1
(tg8
I00
S'$Q\x0fp\x81\x00\xfa?'
tbsg210
g4
(g5
(I0
tS'b'
tRp542
(I1
(tg8
I00
S'\xa0\xa6\xb5P\n\x86\xf5?'
tbsg225
g4
(g5
(I0
tS'b'
tRp543
(I1
(tg8
I00
S'+H\xb0F\x00\r\xfa?'
tbsg240
g4
(g5
(I0
tS'b'
tRp544
(I1
(tg8
I00
S'$\x90\x83x&M\xfa?'
tbsg219
g4
(g5
(I0
tS'b'
tRp545
(I1
(tg8
I00
S'\xed/\xfb\xd1\xdeU\xf9?'
tbsg222
g4
(g5
(I0
tS'b'
tRp546
(I1
(tg8
I00
S'0\x8b\xc6\xf6\r\x93\xfb?'
tbsg270
g4
(g5
(I0
tS'b'
tRp547
(I1
(tg8
I00
S'\x00\xa1\xc7\xf8\xa8\x9a\xf6?'
tbsg228
g4
(g5
(I0
tS'b'
tRp548
(I1
(tg8
I00
S"\x00:\x1c'\x8eo\xf2?"
tbsg231
g4
(g5
(I0
tS'b'
tRp549
(I1
(tg8
I00
S'\xbf\x1c\x91\xbf \x07\xf7?'
tbsg234
g4
(g5
(I0
tS'b'
tRp550
(I1
(tg8
I00
S'\x89\x85\n^U\xee\xea?'
tbsg237
g4
(g5
(I0
tS'b'
tRp551
(I1
(tg8
I00
S'\x83\x13\xbah\xffu\xfa?'
tbsg21
g4
(g5
(I0
tS'b'
tRp552
(I1
(tg8
I00
S'\x9d\x18\xc7R\x06\xa6\xce?'
tbsg243
g4
(g5
(I0
tS'b'
tRp553
(I1
(tg8
I00
S';S\x7f\x0c\x0e\xb0\xfd?'
tbsS'a_subj.17'
p554
g4
(g5
(I0
tS'b'
tRp555
(I1
(tg8
I00
S'\x1a\xda\x01u\xf2\xb3\x02@'
tbsS't_C(trial_PE)[UU]_subj.25'
p556
g4
(g5
(I0
tS'b'
tRp557
(I1
(tg8
I00
S')\x87\xe1b\xb0\x9d\xd2?'
tbsg252
g4
(g5
(I0
tS'b'
tRp558
(I1
(tg8
I00
S'\xb9\xfd\xd0\xd1\xdb\xe4\xf9?'
tbsg330
g4
(g5
(I0
tS'b'
tRp559
(I1
(tg8
I00
S'X\x82\xa0kU\xcc\xde?'
tbsg255
g4
(g5
(I0
tS'b'
tRp560
(I1
(tg8
I00
S'\xf5\x9c\td\x0b\x1e\xda\xbf'
tbsg69
g4
(g5
(I0
tS'b'
tRp561
(I1
(tg8
I00
S'\xba\x14\xba\xfbq\x8a\xfb?'
tbsg264
g4
(g5
(I0
tS'b'
tRp562
(I1
(tg8
I00
S'\xd5\xdc\xb0cA \xc1?'
tbsg267
g4
(g5
(I0
tS'b'
tRp563
(I1
(tg8
I00
S'\xe5\xee\xfa\xdf\xec`\xde?'
tbsg273
g4
(g5
(I0
tS'b'
tRp564
(I1
(tg8
I00
S"\x15<\xf7\xcb'L\xef?"
tbsg75
g4
(g5
(I0
tS'b'
tRp565
(I1
(tg8
I00
S'\x0bp#k6\xf5\xf9?'
tbsS't_C(trial_PE)[PP]_subj.1'
p566
g4
(g5
(I0
tS'b'
tRp567
(I1
(tg8
I00
S'\xf2\xd0\x84"a`\xda?'
tbsS'v_C(trial_PE)[PU]_subj.22'
p568
g4
(g5
(I0
tS'b'
tRp569
(I1
(tg8
I00
S'B\x07\xc0\xc7I\x91\xff?'
tbsg246
g4
(g5
(I0
tS'b'
tRp570
(I1
(tg8
I00
S'\x9b,&\x8b\xbe\xd3\xf6?'
tbsS'v_C(trial_PE)[UP]_subj.3'
p571
g4
(g5
(I0
tS'b'
tRp572
(I1
(tg8
I00
S'b\x89\x03w\x8a6\xf0?'
tbsg288
g4
(g5
(I0
tS'b'
tRp573
(I1
(tg8
I00
S'2t8\x10\xac\x80\xd4?'
tbsg291
g4
(g5
(I0
tS'b'
tRp574
(I1
(tg8
I00
S'\xd4\xff\xe6o\xc3\xdc\xd9?'
tbsg78
g4
(g5
(I0
tS'b'
tRp575
(I1
(tg8
I00
S'\xa9\x04.\x82\x11\xcf\xda?'
tbsg81
g4
(g5
(I0
tS'b'
tRp576
(I1
(tg8
I00
S'\x03:\x0e\xd3\xcc\xc0\xdc?'
tbsS'a_subj.10'
p577
g4
(g5
(I0
tS'b'
tRp578
(I1
(tg8
I00
S'\x18\xaf{\xec\xcb\xbc\x01@'
tbsg297
g4
(g5
(I0
tS'b'
tRp579
(I1
(tg8
I00
S'j\xd3\xfba}\xa7\xfd?'
tbsg300
g4
(g5
(I0
tS'b'
tRp580
(I1
(tg8
I00
S'\xb2\xdfs1Jj\xfb?'
tbsg303
g4
(g5
(I0
tS'b'
tRp581
(I1
(tg8
I00
S'\xc9>\xc0\xbe\xbf\xab\x04@'
tbsS'a_subj.3'
p582
g4
(g5
(I0
tS'b'
tRp583
(I1
(tg8
I00
S'\xde\x12\xa0\x02B\x13\x03@'
tbsg309
g4
(g5
(I0
tS'b'
tRp584
(I1
(tg8
I00
S'L\x1e_\x18eQ\xfb?'
tbsg312
g4
(g5
(I0
tS'b'
tRp585
(I1
(tg8
I00
S'\xacb\x99\x02\xda@\xf8?'
tbsg315
g4
(g5
(I0
tS'b'
tRp586
(I1
(tg8
I00
S'\xfeW\xa2\x1a\xd5"\xfb?'
tbsg207
g4
(g5
(I0
tS'b'
tRp587
(I1
(tg8
I00
S'\xbc^\xe7\xf9[\x12\xe3?'
tbsg120
g4
(g5
(I0
tS'b'
tRp588
(I1
(tg8
I00
S'\xd80\xe7\xb1I\x94\xf9?'
tbsS't_C(trial_PE)[UU]_subj.13'
p589
g4
(g5
(I0
tS'b'
tRp590
(I1
(tg8
I00
S'6\xc2\x02\x1c\x14X\xd7?'
tbsg327
g4
(g5
(I0
tS'b'
tRp591
(I1
(tg8
I00
S'4KK\xde\xb5a\xf8?'
tbsg447
g4
(g5
(I0
tS'b'
tRp592
(I1
(tg8
I00
S'*\xa3\xe8A!\xa7\xfb?'
tbsg333
g4
(g5
(I0
tS'b'
tRp593
(I1
(tg8
I00
S"\x8ai'\x8d5\x9a\xfe?"
tbsg336
g4
(g5
(I0
tS'b'
tRp594
(I1
(tg8
I00
S'Q\xd8\xb3\x96\xa7\xaa\xf9?'
tbsg339
g4
(g5
(I0
tS'b'
tRp595
(I1
(tg8
I00
S'\xf8\xed\x8a\xfcx\xd1\xfd?'
tbsg342
g4
(g5
(I0
tS'b'
tRp596
(I1
(tg8
I00
S'\xa7S\t?D\xc8\xfb?'
tbsg345
g4
(g5
(I0
tS'b'
tRp597
(I1
(tg8
I00
S'u\x99K\xec\x14\xa8\xfa?'
tbsg348
g4
(g5
(I0
tS'b'
tRp598
(I1
(tg8
I00
S'K\x018\xc6\xe7|\xdc?'
tbsg351
g4
(g5
(I0
tS'b'
tRp599
(I1
(tg8
I00
S'X&\x85ky\xee\xe0?'
tbsS't_C(trial_PE)[UU]_subj.2'
p600
g4
(g5
(I0
tS'b'
tRp601
(I1
(tg8
I00
S'X\x19\x17\xba\x01c\xe3?'
tbsS't_C(trial_PE)[UP]_subj.12'
p602
g4
(g5
(I0
tS'b'
tRp603
(I1
(tg8
I00
S'\xdcQ"eoi\xe2?'
tbsg360
g4
(g5
(I0
tS'b'
tRp604
(I1
(tg8
I00
S'L\xf6G\xa7f\xa4\xdf?'
tbsg363
g4
(g5
(I0
tS'b'
tRp605
(I1
(tg8
I00
S'&\x18\x1a!x\t\xda?'
tbsg366
g4
(g5
(I0
tS'b'
tRp606
(I1
(tg8
I00
S'rT=A\xd6\xd3\xd7?'
tbsg369
g4
(g5
(I0
tS'b'
tRp607
(I1
(tg8
I00
S'\xd3=\xcf\xad\xd2F\xd7?'
tbsg372
g4
(g5
(I0
tS'b'
tRp608
(I1
(tg8
I00
S'\xb6\x9c\xa7!,\xc1\xd8?'
tbsg375
g4
(g5
(I0
tS'b'
tRp609
(I1
(tg8
I00
S'v\xa2\xed\xaclD\xde?'
tbsg378
g4
(g5
(I0
tS'b'
tRp610
(I1
(tg8
I00
S'\xbbj\x95\xd8LW\xdc?'
tbsg381
g4
(g5
(I0
tS'b'
tRp611
(I1
(tg8
I00
S'\xba\xa6\xde\xcb^\xc1\xdb?'
tbsg99
g4
(g5
(I0
tS'b'
tRp612
(I1
(tg8
I00
S'\xae\xd0\xe1F+\x16\xfc?'
tbsg384
g4
(g5
(I0
tS'b'
tRp613
(I1
(tg8
I00
S'\xe2\xff\x8eWI\x97\xd6?'
tbsg387
g4
(g5
(I0
tS'b'
tRp614
(I1
(tg8
I00
S'\x16jC\xcfy\x88\xdd?'
tbsS't_C(trial_PE)[PU]_subj.19'
p615
g4
(g5
(I0
tS'b'
tRp616
(I1
(tg8
I00
S'_\x93\xb0\x07#\x8e\xdc?'
tbsg390
g4
(g5
(I0
tS'b'
tRp617
(I1
(tg8
I00
S'5d@qf/\xdc?'
tbsg393
g4
(g5
(I0
tS'b'
tRp618
(I1
(tg8
I00
S'D[\xf5-7\x1e\xd7?'
tbsg396
g4
(g5
(I0
tS'b'
tRp619
(I1
(tg8
I00
S'\x0b\x7f\xf4@\xae\x07\xdd?'
tbsg399
g4
(g5
(I0
tS'b'
tRp620
(I1
(tg8
I00
S'\x86\x1aB\x1a\xd5\xc5\xd6?'
tbsg402
g4
(g5
(I0
tS'b'
tRp621
(I1
(tg8
I00
S'\xaa\x9e<\x8a\x98+\xd9?'
tbsg405
g4
(g5
(I0
tS'b'
tRp622
(I1
(tg8
I00
S'\xa8\xca\xe0Re\xa8\xd7?'
tbsg408
g4
(g5
(I0
tS'b'
tRp623
(I1
(tg8
I00
S'\xbdn\xe5\x91\xf5\xf9\xd5?'
tbsg411
g4
(g5
(I0
tS'b'
tRp624
(I1
(tg8
I00
S'ABu\x10\xd7e\xd5?'
tbsg414
g4
(g5
(I0
tS'b'
tRp625
(I1
(tg8
I00
S'\x0cE\x00}\xe9\xfa\xcd?'
tbsg420
g4
(g5
(I0
tS'b'
tRp626
(I1
(tg8
I00
S'\x87\xfeu\xff#&\xd0?'
tbsg423
g4
(g5
(I0
tS'b'
tRp627
(I1
(tg8
I00
S'\x0bd\xbaZ\xbaW\xd2?'
tbsg198
g4
(g5
(I0
tS'b'
tRp628
(I1
(tg8
I00
S'\x83\xac\xa2\xe5\x03\xd4\xf6?'
tbsS't_C(trial_PE)[UU]_subj.11'
p629
g4
(g5
(I0
tS'b'
tRp630
(I1
(tg8
I00
S'\xacN)|\xba\xf0\xe1?'
tbsg441
g4
(g5
(I0
tS'b'
tRp631
(I1
(tg8
I00
S'\x82"W\xea\x06\x97\xd9?'
tbsg432
g4
(g5
(I0
tS'b'
tRp632
(I1
(tg8
I00
S'P\x9e\xf2\xb4\x8a\xc1\xf1?'
tbsg435
g4
(g5
(I0
tS'b'
tRp633
(I1
(tg8
I00
S'i\xe5\x0e)z\x98\xfe?'
tbsg438
g4
(g5
(I0
tS'b'
tRp634
(I1
(tg8
I00
S'\xa8Q\xe9\xa5\xb9]\xf8?'
tbsg444
g4
(g5
(I0
tS'b'
tRp635
(I1
(tg8
I00
S'w\xa8^<\xfd\xa8\xe4?'
tbsg450
g4
(g5
(I0
tS'b'
tRp636
(I1
(tg8
I00
S'\x82\xe1\xcd\xb8\xa7\xd4\xda?'
tbsS't_C(trial_PE)[UP]_subj.5'
p637
g4
(g5
(I0
tS'b'
tRp638
(I1
(tg8
I00
S'+,\x18\xc9\xa4|\xde?'
tbsS't_C(trial_PE)[PU]_subj.20'
p639
g4
(g5
(I0
tS'b'
tRp640
(I1
(tg8
I00
S' \x16\x05P!\x1f\xd8?'
tbsS't_C(trial_PE)[PU]_subj.18'
p641
g4
(g5
(I0
tS'b'
tRp642
(I1
(tg8
I00
S"l\xe49'\xac>\xd8?"
tbsS't_C(trial_PE)[UP]_subj.4'
p643
g4
(g5
(I0
tS'b'
tRp644
(I1
(tg8
I00
S'b\x8e/\xde`\x9d\xdb?'
tbsS't_C(trial_PE)[UP]_subj.17'
p645
g4
(g5
(I0
tS'b'
tRp646
(I1
(tg8
I00
S'\xee\xabj\xd0\xacu\xd8?'
tbsS'v_C(trial_PE)[PU]_std'
p647
g4
(g5
(I0
tS'b'
tRp648
(I1
(tg8
I00
S't\xa2\x1b\xbc2\x90\xd7?'
tbsS'v_C(trial_PE)[UU]'
p649
g4
(g5
(I0
tS'b'
tRp650
(I1
(tg8
I00
S'\x96I\xf5<\xdb0\xfb?'
tbsS't_C(trial_PE)[PU]'
p651
g4
(g5
(I0
tS'b'
tRp652
(I1
(tg8
I00
S'L\xfe\xe2\xd8\xae\xfb\xdd?'
tbsS't_C(trial_PE)[PU]_subj.8'
p653
g4
(g5
(I0
tS'b'
tRp654
(I1
(tg8
I00
S'Z\x91Xy\xba\xb2\xdf?'
tbsS'v_C(trial_PE)[PU]_subj.9'
p655
g4
(g5
(I0
tS'b'
tRp656
(I1
(tg8
I00
S'\xb9\xb7\x1f\xc8\x07Y\xfb?'
tbsS'v_C(trial_PE)[PU]_subj.8'
p657
g4
(g5
(I0
tS'b'
tRp658
(I1
(tg8
I00
S'\x13\x92\xb7\xb7\xf6*\xff?'
tbsg102
g4
(g5
(I0
tS'b'
tRp659
(I1
(tg8
I00
S'L\xfc\x8b\xcb\xf3Q\xdb?'
tbsS'v_C(trial_PE)[PU]_subj.5'
p660
g4
(g5
(I0
tS'b'
tRp661
(I1
(tg8
I00
S"\x83'\xb3\x9dp\xb5\x00@"
tbsS'v_C(trial_PE)[PU]_subj.4'
p662
g4
(g5
(I0
tS'b'
tRp663
(I1
(tg8
I00
S'\x18\x15\xaa\xd6.\xf3\xf7?'
tbsS'v_C(trial_PE)[PU]_subj.7'
p664
g4
(g5
(I0
tS'b'
tRp665
(I1
(tg8
I00
S'\x01\xe8\x1b\xcd.>\xf9?'
tbsS'v_C(trial_PE)[PU]_subj.6'
p666
g4
(g5
(I0
tS'b'
tRp667
(I1
(tg8
I00
S'.\xe0\x92\x89cl\xfd?'
tbsg144
g4
(g5
(I0
tS'b'
tRp668
(I1
(tg8
I00
S'\xf6u\xb7\xa1\xfd\xba\xfb?'
tbsS'v_C(trial_PE)[PU]_subj.0'
p669
g4
(g5
(I0
tS'b'
tRp670
(I1
(tg8
I00
S'\xcc\x04\xc7\r\xa2\xc9\xfb?'
tbsS'v_C(trial_PE)[PU]_subj.3'
p671
g4
(g5
(I0
tS'b'
tRp672
(I1
(tg8
I00
S'\r\xf0\n]\xe9P\xfe?'
tbsS'v_C(trial_PE)[PU]_subj.2'
p673
g4
(g5
(I0
tS'b'
tRp674
(I1
(tg8
I00
S'".\x81\x91[*\xfd?'
tbsS'a_subj.14'
p675
g4
(g5
(I0
tS'b'
tRp676
(I1
(tg8
I00
S'L!\n\xda\x16\x01\x02@'
tbsS'a_subj.15'
p677
g4
(g5
(I0
tS'b'
tRp678
(I1
(tg8
I00
S'\x8a8\xb16d\x16\x03@'
tbsS't_C(trial_PE)[PP]_subj.4'
p679
g4
(g5
(I0
tS'b'
tRp680
(I1
(tg8
I00
S'S\xe3\x9db\xda8\xdc?'
tbsS't_C(trial_PE)[PP]_subj.5'
p681
g4
(g5
(I0
tS'b'
tRp682
(I1
(tg8
I00
S'\xec\xa5\x96\xe1\x91E\xd7?'
tbsS't_C(trial_PE)[PP]_subj.2'
p683
g4
(g5
(I0
tS'b'
tRp684
(I1
(tg8
I00
S'co~IsZ\xdc?'
tbsS'a_subj.11'
p685
g4
(g5
(I0
tS'b'
tRp686
(I1
(tg8
I00
S'\x8b\xc5\xda)\xffc\x04@'
tbsS'a_subj.12'
p687
g4
(g5
(I0
tS'b'
tRp688
(I1
(tg8
I00
S'v\x90\xd0\xd3\x91\x12\x01@'
tbsg282
g4
(g5
(I0
tS'b'
tRp689
(I1
(tg8
I00
S'\xca\xabS\x94>\xbf\x07@'
tbsS'a_subj.18'
p690
g4
(g5
(I0
tS'b'
tRp691
(I1
(tg8
I00
S'\xa8\xf1^\xe4W9\xfc?'
tbsS'a_subj.19'
p692
g4
(g5
(I0
tS'b'
tRp693
(I1
(tg8
I00
S'\xbc\xce\x8aN\x94\xc8\x04@'
tbsS't_C(trial_PE)[PP]_subj.8'
p694
g4
(g5
(I0
tS'b'
tRp695
(I1
(tg8
I00
S'\xf7\xd1\x92{\tA\xde?'
tbsS't_C(trial_PE)[PP]_subj.9'
p696
g4
(g5
(I0
tS'b'
tRp697
(I1
(tg8
I00
S"6z\x15'j\xc0\xdb?"
tbsS't_C(trial_PE)[PP]'
p698
g4
(g5
(I0
tS'b'
tRp699
(I1
(tg8
I00
S'R\xaa\xf4\xa9:F\xd7?'
tbsS'v_C(trial_PE)[PU]_subj.28'
p700
g4
(g5
(I0
tS'b'
tRp701
(I1
(tg8
I00
S'`S\x96R\xf8\xcb\xfc?'
tbsS'v_C(trial_PE)[PU]_subj.29'
p702
g4
(g5
(I0
tS'b'
tRp703
(I1
(tg8
I00
S'iS\x94\xc7%\xd9\xfa?'
tbsS'v_C(trial_PE)[PU]_subj.24'
p704
g4
(g5
(I0
tS'b'
tRp705
(I1
(tg8
I00
S'\xc4\xe5q\n\xfd\xb0\xf5?'
tbsS'v_C(trial_PE)[PU]_subj.25'
p706
g4
(g5
(I0
tS'b'
tRp707
(I1
(tg8
I00
S'O{\xfe\xba\xe1\x0f\xf7?'
tbsS'v_C(trial_PE)[PU]_subj.26'
p708
g4
(g5
(I0
tS'b'
tRp709
(I1
(tg8
I00
S'\xf4\xeb-\xb1\xa2\x95\xfa?'
tbsS'v_C(trial_PE)[PU]_subj.27'
p710
g4
(g5
(I0
tS'b'
tRp711
(I1
(tg8
I00
S'\xc5\xf2\xe1\xd7\x137\xf9?'
tbsS'v_C(trial_PE)[PU]_subj.20'
p712
g4
(g5
(I0
tS'b'
tRp713
(I1
(tg8
I00
S'D&q\x87w\xc7\x03@'
tbsS'v_C(trial_PE)[PU]_subj.21'
p714
g4
(g5
(I0
tS'b'
tRp715
(I1
(tg8
I00
S'0L\x82\xb9\xd12\xf6?'
tbsg66
g4
(g5
(I0
tS'b'
tRp716
(I1
(tg8
I00
S'\xce1\xb54*C\xdd?'
tbsS'v_C(trial_PE)[PU]_subj.23'
p717
g4
(g5
(I0
tS'b'
tRp718
(I1
(tg8
I00
S'\x04\xa6t\x05\x02V\xff?'
tbsS'v_C(trial_PE)[UU]_subj.18'
p719
g4
(g5
(I0
tS'b'
tRp720
(I1
(tg8
I00
S'8\xc2\xc7\xd1\xec\x89\xf9?'
tbsS'v_C(trial_PE)[UU]_subj.19'
p721
g4
(g5
(I0
tS'b'
tRp722
(I1
(tg8
I00
S'g{\xd0b\x96B\xf8?'
tbsS'v_C(trial_PE)[UU]_subj.10'
p723
g4
(g5
(I0
tS'b'
tRp724
(I1
(tg8
I00
S'DO\xd6\xd6P\xec\xf9?'
tbsS'v_C(trial_PE)[UU]_subj.11'
p725
g4
(g5
(I0
tS'b'
tRp726
(I1
(tg8
I00
S't\x1f\\s\x05\x91\xf3?'
tbsS'v_C(trial_PE)[UU]_subj.12'
p727
g4
(g5
(I0
tS'b'
tRp728
(I1
(tg8
I00
S'T\xb9\xebA\xe8_\xfc?'
tbsS'v_C(trial_PE)[UU]_subj.13'
p729
g4
(g5
(I0
tS'b'
tRp730
(I1
(tg8
I00
S"\xc7\xff\xac\xbd\x1e'\xfa?"
tbsS'v_C(trial_PE)[UU]_subj.14'
p731
g4
(g5
(I0
tS'b'
tRp732
(I1
(tg8
I00
S'Z\xa3Q\n\x11Q\xfc?'
tbsS't_C(trial_PE)[PU]_subj.30'
p733
g4
(g5
(I0
tS'b'
tRp734
(I1
(tg8
I00
S'Y\x1ctd\xe3\xe5\xdd?'
tbsS'v_C(trial_PE)[UU]_subj.16'
p735
g4
(g5
(I0
tS'b'
tRp736
(I1
(tg8
I00
S'\xe3\xc5\x02\x17\xfd\x81\xf9?'
tbsS't_C(trial_PE)[PU]_subj.32'
p737
g4
(g5
(I0
tS'b'
tRp738
(I1
(tg8
I00
S'\xb8\xfa\x00\xac\xdb\xd4\xd6?'
tbsS't_C(trial_PE)[PU]_subj.7'
p739
g4
(g5
(I0
tS'b'
tRp740
(I1
(tg8
I00
S'5\x1d\x08\xa4\xf5q\xe3?'
tbsS't_C(trial_PE)[PU]_subj.6'
p741
g4
(g5
(I0
tS'b'
tRp742
(I1
(tg8
I00
S'\x16\xb3C\xdcc\x08\xe0?'
tbsS't_C(trial_PE)[PU]_subj.5'
p743
g4
(g5
(I0
tS'b'
tRp744
(I1
(tg8
I00
S'\x8c\x9e1J\xde\xe9\xdd?'
tbsS't_C(trial_PE)[PU]_subj.4'
p745
g4
(g5
(I0
tS'b'
tRp746
(I1
(tg8
I00
S'\x8eG\x10\x18n\x9e\xd9?'
tbsS'v_C(trial_PE)[UP]_subj.2'
p747
g4
(g5
(I0
tS'b'
tRp748
(I1
(tg8
I00
S'\xc8\\k+\x93;\xf0?'
tbsS't_C(trial_PE)[PU]_subj.2'
p749
g4
(g5
(I0
tS'b'
tRp750
(I1
(tg8
I00
S'z\xd6\xa8\xe2k\xef\xe4?'
tbsS't_C(trial_PE)[PU]_subj.1'
p751
g4
(g5
(I0
tS'b'
tRp752
(I1
(tg8
I00
S'\x1e\x17%`\xd8\x1c\xd9?'
tbsS't_C(trial_PE)[PU]_subj.0'
p753
g4
(g5
(I0
tS'b'
tRp754
(I1
(tg8
I00
S'\x0cZ\x0b\xf6|\xb2\xe6?'
tbsS't_C(trial_PE)[UP]_subj.6'
p755
g4
(g5
(I0
tS'b'
tRp756
(I1
(tg8
I00
S'\xf8/\x18|\xb1\xd9\xe1?'
tbsS't_C(trial_PE)[PU]_subj.9'
p757
g4
(g5
(I0
tS'b'
tRp758
(I1
(tg8
I00
S'b\x98\x9d\xcd\xa0w\xdd?'
tbsS't_C(trial_PE)[UU]_subj.27'
p759
g4
(g5
(I0
tS'b'
tRp760
(I1
(tg8
I00
S'\xcc\xdeJ\x07\xaf\r\xdd?'
tbsg216
g4
(g5
(I0
tS'b'
tRp761
(I1
(tg8
I00
S'\xbc\x88-e\x14p\xfa?'
tbsS't_C(trial_PE)[PP]_subj.0'
p762
g4
(g5
(I0
tS'b'
tRp763
(I1
(tg8
I00
S'\x87FF\xaa\xb6r\xe3?'
tbsS'v_C(trial_PE)[PP]_subj.31'
p764
g4
(g5
(I0
tS'b'
tRp765
(I1
(tg8
I00
S'\x8aO\xf5\x0e\xbfd\xf7?'
tbsg129
g4
(g5
(I0
tS'b'
tRp766
(I1
(tg8
I00
S'BQ1\x98\xec|\xd9?'
tbsg141
g4
(g5
(I0
tS'b'
tRp767
(I1
(tg8
I00
S'&l\x8e\xcd\xe4\xea\xda?'
tbsS'v_C(trial_PE)[PP]_subj.6'
p768
g4
(g5
(I0
tS'b'
tRp769
(I1
(tg8
I00
S'\xd4xA\xd0k3\xe8?'
tbsS'v_C(trial_PE)[PP]_subj.7'
p770
g4
(g5
(I0
tS'b'
tRp771
(I1
(tg8
I00
S'Hc\xd9\xe6\xa7\xf0\xec?'
tbsS'v_C(trial_PE)[PP]_subj.0'
p772
g4
(g5
(I0
tS'b'
tRp773
(I1
(tg8
I00
S'3\xac[\x04T-\xe6?'
tbsg276
g4
(g5
(I0
tS'b'
tRp774
(I1
(tg8
I00
S'n<\xc6h\xa7\x04\xf8?'
tbsS't_C(trial_PE)[UU]_subj.10'
p775
g4
(g5
(I0
tS'b'
tRp776
(I1
(tg8
I00
S'\xc9\xb4\xb2]@`\xe2?'
tbsS'v_C(trial_PE)[PP]_subj.3'
p777
g4
(g5
(I0
tS'b'
tRp778
(I1
(tg8
I00
S'Z\x9aw~|/\xf5?'
tbsS't_C(trial_PE)[PU]_subj.31'
p779
g4
(g5
(I0
tS'b'
tRp780
(I1
(tg8
I00
S'\x82o\x8c\x8f\x8a\xf0\xcf?'
tbsS'v_C(trial_PE)[PP]_subj.8'
p781
g4
(g5
(I0
tS'b'
tRp782
(I1
(tg8
I00
S'r\x0b\x91f"\x81\xfb?'
tbsS'v_C(trial_PE)[PP]_subj.9'
p783
g4
(g5
(I0
tS'b'
tRp784
(I1
(tg8
I00
S'DG\x90Y\xf1\t\xfb?'
tbsS't_C(trial_PE)[UU]_subj.18'
p785
g4
(g5
(I0
tS'b'
tRp786
(I1
(tg8
I00
S"\x87\x9a'x\x8c\xaf\xd7?"
tbsS't_C(trial_PE)[UU]_subj.19'
p787
g4
(g5
(I0
tS'b'
tRp788
(I1
(tg8
I00
S'es\xfb\xa3}\xf0\xe1?'
tbsg429
g4
(g5
(I0
tS'b'
tRp789
(I1
(tg8
I00
S'%:lu\n\xbd\xaa?'
tbsS'v_C(trial_PE)[PP]_subj.11'
p790
g4
(g5
(I0
tS'b'
tRp791
(I1
(tg8
I00
S'Z*\x04\xca\xc2\x1e\xf3?'
tbsS't_C(trial_PE)[UP]_subj.19'
p792
g4
(g5
(I0
tS'b'
tRp793
(I1
(tg8
I00
S'>S\x9b\xb2\xf1\xd7\xda?'
tbsS't_C(trial_PE)[PU]_subj.28'
p794
g4
(g5
(I0
tS'b'
tRp795
(I1
(tg8
I00
S'W\xf9\xf0\xa8\xe0\xa5\xd5?'
tbsS't_C(trial_PE)[PU]_subj.29'
p796
g4
(g5
(I0
tS'b'
tRp797
(I1
(tg8
I00
S'n\x88\x1a\x9dvf\xd1?'
tbsS't_C(trial_PE)[PU]_subj.26'
p798
g4
(g5
(I0
tS'b'
tRp799
(I1
(tg8
I00
S'\x8eK\xf2\x8d\xc0D\xd9?'
tbsS't_C(trial_PE)[PU]_subj.27'
p800
g4
(g5
(I0
tS'b'
tRp801
(I1
(tg8
I00
S'\x98\x0f\xe0\xa8\xcf\x1c\xd5?'
tbsS't_C(trial_PE)[PU]_subj.24'
p802
g4
(g5
(I0
tS'b'
tRp803
(I1
(tg8
I00
S'wr\xa9`K\xf1\xd5?'
tbsS't_C(trial_PE)[PU]_subj.25'
p804
g4
(g5
(I0
tS'b'
tRp805
(I1
(tg8
I00
S'\\}:\x86\x0c1\xce?'
tbsS't_C(trial_PE)[PU]_subj.22'
p806
g4
(g5
(I0
tS'b'
tRp807
(I1
(tg8
I00
S'\x84\xddc\xc3\t?\xdd?'
tbsS't_C(trial_PE)[PU]_subj.23'
p808
g4
(g5
(I0
tS'b'
tRp809
(I1
(tg8
I00
S'\x05\xe7\xc8L\xd6\x10\xd4?'
tbsS'v_C(trial_PE)[UU]_std'
p810
g4
(g5
(I0
tS'b'
tRp811
(I1
(tg8
I00
S'\x1a\xc6\x90\xd9\xd27\xd0?'
tbsS't_C(trial_PE)[PU]_subj.21'
p812
g4
(g5
(I0
tS'b'
tRp813
(I1
(tg8
I00
S'\xf94>_(D\xd2?'
tbsS't_C(trial_PE)[PP]_subj.29'
p814
g4
(g5
(I0
tS'b'
tRp815
(I1
(tg8
I00
S'\xf8"g6\x9eK\xd1?'
tbsS'a_subj.16'
p816
g4
(g5
(I0
tS'b'
tRp817
(I1
(tg8
I00
S'sMk\xbc\tl\x00@'
tbsS'v_C(trial_PE)[PP]_subj.18'
p818
g4
(g5
(I0
tS'b'
tRp819
(I1
(tg8
I00
S'#ir[\xeaL\xfe?'
tbsS'v_C(trial_PE)[PP]_subj.19'
p820
g4
(g5
(I0
tS'b'
tRp821
(I1
(tg8
I00
S'\x11\xe4\xb2O\xc5\xe6\xf2?'
tbsS'v_C(trial_PE)[PP]_subj.16'
p822
g4
(g5
(I0
tS'b'
tRp823
(I1
(tg8
I00
S'\x8a\xcc\xcc\xe7C\x08\xf3?'
tbsS'v_C(trial_PE)[PP]_subj.17'
p824
g4
(g5
(I0
tS'b'
tRp825
(I1
(tg8
I00
S'\xe6\xe0\x9b\xdeH\xd6\xf4?'
tbsS'v_C(trial_PE)[PP]_subj.14'
p826
g4
(g5
(I0
tS'b'
tRp827
(I1
(tg8
I00
S'Jv\xf6:\x91`\xef?'
tbsS'v_C(trial_PE)[UU]_subj.15'
p828
g4
(g5
(I0
tS'b'
tRp829
(I1
(tg8
I00
S'\xd2\xf9\x04u;\xed\xfa?'
tbsS'v_C(trial_PE)[PP]_subj.12'
p830
g4
(g5
(I0
tS'b'
tRp831
(I1
(tg8
I00
S'\xe0\xd3\xe7\xf1\xf0\xb1\xd4?'
tbsS'v_C(trial_PE)[PP]_subj.13'
p832
g4
(g5
(I0
tS'b'
tRp833
(I1
(tg8
I00
S'xJ"\x96\xd6)\x00@'
tbsS'v_C(trial_PE)[PP]_subj.10'
p834
g4
(g5
(I0
tS'b'
tRp835
(I1
(tg8
I00
S'\x8a\x0b\x03N\xeby\xf1?'
tbsS'v_C(trial_PE)[UP]_std'
p836
g4
(g5
(I0
tS'b'
tRp837
(I1
(tg8
I00
S'\x02\xa46{\xc3\xc8\xdb?'
tbsS't_C(trial_PE)[UU]_subj.15'
p838
g4
(g5
(I0
tS'b'
tRp839
(I1
(tg8
I00
S'"\x9c\x14\x93\xadr\xdd?'
tbsS'v_C(trial_PE)[UU]_subj.17'
p840
g4
(g5
(I0
tS'b'
tRp841
(I1
(tg8
I00
S':\x1e\xd9\xfa\x9f\x10\xf8?'
tbsS't_C(trial_PE)[UP]_subj.7'
p842
g4
(g5
(I0
tS'b'
tRp843
(I1
(tg8
I00
S'"\xee\x88\xb3\x9a\xe9\xe8?'
tbsS'v_C(trial_PE)[PP]_subj.15'
p844
g4
(g5
(I0
tS'b'
tRp845
(I1
(tg8
I00
S'\n\xea\xcb\x8a\n?\xe6?'
tbsS't_C(trial_PE)[UP]_subj.1'
p846
g4
(g5
(I0
tS'b'
tRp847
(I1
(tg8
I00
S'\x95l\xb5~\xc9p\xdc?'
tbsS't_C(trial_PE)[UP]_subj.0'
p848
g4
(g5
(I0
tS'b'
tRp849
(I1
(tg8
I00
S'\xcbUx]B\r\xe6?'
tbsS't_C(trial_PE)[UP]_subj.3'
p850
g4
(g5
(I0
tS'b'
tRp851
(I1
(tg8
I00
S',\xa5\xa95H\xb0\xe2?'
tbsS't_C(trial_PE)[UP]_subj.2'
p852
g4
(g5
(I0
tS'b'
tRp853
(I1
(tg8
I00
S"\xf5z'\x0b\xb9\x91\xe4?"
tbsS't_C(trial_PE)[UP]_subj.9'
p854
g4
(g5
(I0
tS'b'
tRp855
(I1
(tg8
I00
S'\x94P\xfa\xa0D4\xdc?'
tbsS't_C(trial_PE)[UP]_subj.8'
p856
g4
(g5
(I0
tS'b'
tRp857
(I1
(tg8
I00
S'\xfd*\xe2g\xd1\x9a\xdd?'
tbsS't_C(trial_PE)[PP]_subj.6'
p858
g4
(g5
(I0
tS'b'
tRp859
(I1
(tg8
I00
S'\xcf\xae\xdbm\x0cV\xdc?'
tbsS't_C(trial_PE)[PU]_subj.13'
p860
g4
(g5
(I0
tS'b'
tRp861
(I1
(tg8
I00
S'\xbe#U\x0cF\xae\xdc?'
tbsS't_C(trial_PE)[PU]_subj.12'
p862
g4
(g5
(I0
tS'b'
tRp863
(I1
(tg8
I00
S'&6[7\x13\xa0\xe2?'
tbsS't_C(trial_PE)[PU]_subj.11'
p864
g4
(g5
(I0
tS'b'
tRp865
(I1
(tg8
I00
S'Y\x07\xebIlH\xd9?'
tbsS'v_C(trial_PE)[UP]'
p866
g4
(g5
(I0
tS'b'
tRp867
(I1
(tg8
I00
S'\x0fW\xf4(_\x02\xfc?'
tbsS't_C(trial_PE)[PU]_subj.17'
p868
g4
(g5
(I0
tS'b'
tRp869
(I1
(tg8
I00
S'P\xecdr\xac)\xda?'
tbsS't_C(trial_PE)[PU]_subj.16'
p870
g4
(g5
(I0
tS'b'
tRp871
(I1
(tg8
I00
S'\xf2\xff\xd9\x0e5\xf0\xda?'
tbsS't_C(trial_PE)[PU]_subj.15'
p872
g4
(g5
(I0
tS'b'
tRp873
(I1
(tg8
I00
S'T\x82\xafe|\x1f\xe0?'
tbsS't_C(trial_PE)[PU]_subj.14'
p874
g4
(g5
(I0
tS'b'
tRp875
(I1
(tg8
I00
S'\xcd\xe3\xe2\xd0\xbfp\xe1?'
tbsS't_C(trial_PE)[PU]_subj.3'
p876
g4
(g5
(I0
tS'b'
tRp877
(I1
(tg8
I00
S'\x17\xe0\xe0OKT\xdd?'
tbsS't_C(trial_PE)[UU]_subj.22'
p878
g4
(g5
(I0
tS'b'
tRp879
(I1
(tg8
I00
S'\xd95=\xb2b\xf4\xd5?'
tbsS't_C(trial_PE)[UU]_subj.21'
p880
g4
(g5
(I0
tS'b'
tRp881
(I1
(tg8
I00
S'\xf0O\x1d$\x88\x98\xd0?'
tbsS't_C(trial_PE)[UU]_subj.20'
p882
g4
(g5
(I0
tS'b'
tRp883
(I1
(tg8
I00
S'\x1f\x94\xc5\x0b3\x82\xd7?'
tbsS'v_C(trial_PE)[UP]_subj.6'
p884
g4
(g5
(I0
tS'b'
tRp885
(I1
(tg8
I00
S'\xc2\x91Wc\x05\x94\xf9?'
tbsS't_C(trial_PE)[UU]_subj.26'
p886
g4
(g5
(I0
tS'b'
tRp887
(I1
(tg8
I00
S'Mg9\xfe\x15\x95\xd5?'
tbsg249
g4
(g5
(I0
tS'b'
tRp888
(I1
(tg8
I00
S'r\\Q\xe9o#\xe3?'
tbsS't_C(trial_PE)[UU]_subj.24'
p889
g4
(g5
(I0
tS'b'
tRp890
(I1
(tg8
I00
S'\x9b\x96\x19\xeeP!\xd6?'
tbsS'a_subj.6'
p891
g4
(g5
(I0
tS'b'
tRp892
(I1
(tg8
I00
S'@\xfd\xc7l\x9e\xbc\xfe?'
tbsg132
g4
(g5
(I0
tS'b'
tRp893
(I1
(tg8
I00
S'm\x87\xb5\x02\x96\x16\x11@'
tbsS'a_subj.4'
p894
g4
(g5
(I0
tS'b'
tRp895
(I1
(tg8
I00
S'\xbc\x82\x89\x9a\x017\x01@'
tbsg258
g4
(g5
(I0
tS'b'
tRp896
(I1
(tg8
I00
S'~\xbc\xb4\x9c\xc7\xcb\xff?'
tbsS'a_subj.2'
p897
g4
(g5
(I0
tS'b'
tRp898
(I1
(tg8
I00
S'A{\xee\x06\x9ca\x07@'
tbsS'v_C(trial_PE)[T.UU]:pupil_response_1'
p899
g4
(g5
(I0
tS'b'
tRp900
(I1
(tg8
I00
S'\xd4!\x91t\xf2\x00\xb9?'
tbsg318
g4
(g5
(I0
tS'b'
tRp901
(I1
(tg8
I00
S'\x88u\x15p\x1d\x10\x04@'
tbsS'a_subj.1'
p902
g4
(g5
(I0
tS'b'
tRp903
(I1
(tg8
I00
S'\xa7\x1a\xb9\xdf\xf4\x98\x01@'
tbsS't_C(trial_PE)[PP]_subj.7'
p904
g4
(g5
(I0
tS'b'
tRp905
(I1
(tg8
I00
S'\x7f\xebv\x10O{\xde?'
tbsS'a_subj.8'
p906
g4
(g5
(I0
tS'b'
tRp907
(I1
(tg8
I00
S'\x0e\xac\x14|"\x92\xff?'
tbsS'a_subj.9'
p908
g4
(g5
(I0
tS'b'
tRp909
(I1
(tg8
I00
S'\xc2\xe6\xce\xc1u\xe1\xfb?'
tbsS'v_C(trial_PE)[PP]_subj.23'
p910
g4
(g5
(I0
tS'b'
tRp911
(I1
(tg8
I00
S"lR-\x1c'\xe1\xf0?"
tbsS'v_C(trial_PE)[PP]_subj.22'
p912
g4
(g5
(I0
tS'b'
tRp913
(I1
(tg8
I00
S'\xcc\xdd\ri\xa4E\xfb?'
tbsS't_C(trial_PE)[PP]_std'
p914
g4
(g5
(I0
tS'b'
tRp915
(I1
(tg8
I00
S'\x8e]~,\x9b\xfc\xba?'
tbsS'v_C(trial_PE)[PP]_subj.20'
p916
g4
(g5
(I0
tS'b'
tRp917
(I1
(tg8
I00
S'\x9aMs\xf0\xc8\x10\xfe?'
tbsS'v_C(trial_PE)[PP]_subj.27'
p918
g4
(g5
(I0
tS'b'
tRp919
(I1
(tg8
I00
S'\x81\xd6!\x14\x8e\xf1\xe2?'
tbsg426
g4
(g5
(I0
tS'b'
tRp920
(I1
(tg8
I00
S'\xf4JVK[\x8c\xf5?'
tbsS'v_C(trial_PE)[PP]_subj.25'
p921
g4
(g5
(I0
tS'b'
tRp922
(I1
(tg8
I00
S'\xb4\xecz(\xf6\xd6\xef?'
tbsS'v_C(trial_PE)[PP]_subj.24'
p923
g4
(g5
(I0
tS'b'
tRp924
(I1
(tg8
I00
S'%\xe2\xd6\xd7-$\xc0\xbf'
tbsS'v_C(trial_PE)[PP]_subj.29'
p925
g4
(g5
(I0
tS'b'
tRp926
(I1
(tg8
I00
S'\xc6\x81\x12\xf4\xe9\xbe\xf6?'
tbsS'v_C(trial_PE)[PP]_subj.28'
p927
g4
(g5
(I0
tS'b'
tRp928
(I1
(tg8
I00
S'k\x11\x94\xcd&=\xf4?'
tbsS't_C(trial_PE)[UU]_subj.28'
p929
g4
(g5
(I0
tS'b'
tRp930
(I1
(tg8
I00
S',\x88\xc0\xe2|\x92\xd0?'
tbsS'a'
g4
(g5
(I0
tS'b'
tRp931
(I1
(tg8
I00
S'\xe4\xaa\xaf\xc3\x19\x81\x02@'
tbsg321
g4
(g5
(I0
tS'b'
tRp932
(I1
(tg8
I00
S'\xfa\xcc\x06X5\x88\xe4?'
tbsg87
g4
(g5
(I0
tS'b'
tRp933
(I1
(tg8
I00
S'\xfcv\xe1_\xecd\xe5?'
tbsg324
g4
(g5
(I0
tS'b'
tRp934
(I1
(tg8
I00
S'\x08\xb8R\xfb\x985\xfe?'
tbsg306
g4
(g5
(I0
tS'b'
tRp935
(I1
(tg8
I00
S'O\x84\xca\xef\xb92\x02@'
tbsS'sv'
p936
g4
(g5
(I0
tS'b'
tRp937
(I1
(tg8
I00
S'\xe3NE\xb9eX\xfb?'
tbsg93
g4
(g5
(I0
tS'b'
tRp938
(I1
(tg8
I00
S'Nt\xc6\x15\x92\x80\xe2?'
tbsS't_C(trial_PE)[UP]_std'
p939
g4
(g5
(I0
tS'b'
tRp940
(I1
(tg8
I00
S'\xedO\x18\x99Pc\xbf?'
tbsg138
g4
(g5
(I0
tS'b'
tRp941
(I1
(tg8
I00
S'\xa0\xa0\xbc\x84\x8f\x0c\xc1?'
tbsS't_C(trial_PE)[UU]_subj.30'
p942
g4
(g5
(I0
tS'b'
tRp943
(I1
(tg8
I00
S'\x8f\xd8\x96OLp\xde?'
tbsS't_C(trial_PE)[UU]_subj.31'
p944
g4
(g5
(I0
tS'b'
tRp945
(I1
(tg8
I00
S'\xd2\x9fo\xda\xe7(\xd4?'
tbsS't_C(trial_PE)[UU]_subj.32'
p946
g4
(g5
(I0
tS'b'
tRp947
(I1
(tg8
I00
S'\xddt\x83\xd3\xd4s\xda?'
tbsS'v_C(trial_PE)[UP]_subj.7'
p948
g4
(g5
(I0
tS'b'
tRp949
(I1
(tg8
I00
S'\xe2p\xa5q\xd5\x1b\xfb?'
tbssS'step_methods'
p950
(dp951
S'SliceStep_a_subj.17'
p952
(dp953
S'adaptive_scale_factor'
p954
F1
sS'proposal_distribution'
p955
S'Normal'
p956
sS'proposal_sd'
p957
cnumpy.core.multiarray
scalar
p958
(g8
S'\xc0\x8e\xad8@A\x00@'
tRp959
sS'accepted'
p960
F0
sS'check_before_accepting'
p961
I01
sS'rejected'
p962
F0
ssS'SliceStep_v_C(trial_PE)[UP]_subj.1'
p963
(dp964
g954
F1
sg955
g956
sg957
g958
(g8
S'\x15\xf8\x9fN3\x12\xfe?'
tRp965
sg960
F0
sg961
I01
sg962
F0
ssS'SliceStep_v_C(trial_PE)[PP]_subj.12'
p966
(dp967
g954
F1
sg955
g956
sg957
g958
(g8
S']\x07\x85\x0f\xcel\xf4?'
tRp968
sg960
F0
sg961
I01
sg962
F0
ssS'SliceStep_v_C(trial_PE)[UU]_subj.31'
p969
(dp970
g954
F1
sg955
g956
sg957
g958
(g8
S'\x84\xfe\xb8\x05\xbe\xb6\xfd?'
tRp971
sg960
F0
sg961
I01
sg962
F0
ssS'SliceStep_v_C(trial_PE)[UU]_subj.30'
p972
(dp973
g954
F1
sg955
g956
sg957
g958
(g8
S'\x80w\x11\xc6\xed2\xfa?'
tRp974
sg960
F0
sg961
I01
sg962
F0
ssS'SliceStep_a_subj.16'
p975
(dp976
g954
F1
sg955
g956
sg957
g958
(g8
S'<\xd5%\xf9\xc8\xdd\x00@'
tRp977
sg960
F0
sg961
I01
sg962
F0
ssS'SliceStep_t_C(trial_PE)[PU]_subj.14'
p978
(dp979
g954
F1
sg955
g956
sg957
g958
(g8
S'<m\x0c\xc4\xe2d\xe1?'
tRp980
sg960
F0
sg961
I01
sg962
F0
ssS'kNormalNormal_v_C(trial_PE)[PU]'
p981
(dp982
g954
F1
sg955
g956
sg957
g958
(g8
S'\x12\x94\xbc\xb1b\xb8\xfd?'
tRp983
sg960
F0
sg961
I01
sg962
F0
ssS'SliceStep_t_C(trial_PE)[UU]_subj.10'
p984
(dp985
g954
F1
sg955
g956
sg957
g958
(g8
S'3\x0b\xb4\xfb\x01\xf2\xe1?'
tRp986
sg960
F0
sg961
I01
sg962
F0
ssS'SliceStep_a_subj.18'
p987
(dp988
g954
F1
sg955
g956
sg957
g958
(g8
S'R!t\xb9\t\xfc\xfa?'
tRp989
sg960
F0
sg961
I01
sg962
F0
ssS'SliceStep_t_C(trial_PE)[UU]'
p990
(dp991
g954
F1
sg955
g956
sg957
g958
(g8
S'\xd5=\xf0]\xe3\x1a\xdc?'
tRp992
sg960
F0
sg961
I01
sg962
F0
ssS'SliceStep_a_subj.14'
p993
(dp994
g954
F1
sg955
g956
sg957
g958
(g8
S'\xeeA"fFd\x02@'
tRp995
sg960
F0
sg961
I01
sg962
F0
ssS'SliceStep_t_C(trial_PE)[PU]_subj.16'
p996
(dp997
g954
F1
sg955
g956
sg957
g958
(g8
S'\x1d\x99\x93\xc9KO\xdb?'
tRp998
sg960
F0
sg961
I01
sg962
F0
ssS'SliceStep_a_subj.9'
p999
(dp1000
g954
F1
sg955
g956
sg957
g958
(g8
S'\xef\xc3\x03\x9f\x0b\x11\xf9?'
tRp1001
sg960
F0
sg961
I01
sg962
F0
ssS'SliceStep_a_subj.8'
p1002
(dp1003
g954
F1
sg955
g956
sg957
g958
(g8
S'O\xb6\\)\x1fK\xfe?'
tRp1004
sg960
F0
sg961
I01
sg962
F0
ssS'SliceStep_a_subj.7'
p1005
(dp1006
g954
F1
sg955
g956
sg957
g958
(g8
S'\x9c\x1b\x02\x0c\x91Q\x05@'
tRp1007
sg960
F0
sg961
I01
sg962
F0
ssS'SliceStep_a_subj.6'
p1008
(dp1009
g954
F1
sg955
g956
sg957
g958
(g8
S'\xc0\xae\xe2\xf2\xbcg\x01@'
tRp1010
sg960
F0
sg961
I01
sg962
F0
ssS'SliceStep_a_subj.5'
p1011
(dp1012
g954
F1
sg955
g956
sg957
g958
(g8
S'e\r\xde\xad\x9e~\xfd?'
tRp1013
sg960
F0
sg961
I01
sg962
F0
ssS'SliceStep_a_subj.4'
p1014
(dp1015
g954
F1
sg955
g956
sg957
g958
(g8
S'\x8b\xf0(aA8\xfc?'
tRp1016
sg960
F0
sg961
I01
sg962
F0
ssS'SliceStep_a_subj.3'
p1017
(dp1018
g954
F1
sg955
g956
sg957
g958
(g8
S'\x95\xcb\xfd\xda\xcd\xe1\xfe?'
tRp1019
sg960
F0
sg961
I01
sg962
F0
ssS'SliceStep_a_subj.2'
p1020
(dp1021
g954
F1
sg955
g956
sg957
g958
(g8
S'x\xa1H\xe6\xac\x1c\x03@'
tRp1022
sg960
F0
sg961
I01
sg962
F0
ssS'SliceStep_a_subj.1'
p1023
(dp1024
g954
F1
sg955
g956
sg957
g958
(g8
S')\xa6\x9e\xbe\x9e\xee\xfc?'
tRp1025
sg960
F0
sg961
I01
sg962
F0
ssS'SliceStep_a_subj.0'
p1026
(dp1027
g954
F1
sg955
g956
sg957
g958
(g8
S'p,O\xc6\xaf\xb8\x01@'
tRp1028
sg960
F0
sg961
I01
sg962
F0
ssS'SliceStep_t_C(trial_PE)[PP]_subj.22'
p1029
(dp1030
g954
F1
sg955
g956
sg957
g958
(g8
S'\x10\x8f\x88p\xf0\xe2\xda?'
tRp1031
sg960
F0
sg961
I01
sg962
F0
ssS'SliceStep_t_C(trial_PE)[PP]_subj.23'
p1032
(dp1033
g954
F1
sg955
g956
sg957
g958
(g8
S'7\xc99(\x14G\xcc?'
tRp1034
sg960
F0
sg961
I01
sg962
F0
ssS'SliceStep_t_C(trial_PE)[PP]_subj.20'
p1035
(dp1036
g954
F1
sg955
g956
sg957
g958
(g8
S'\xf0\xcf\x88\xf2\xbe\xdf\xd5?'
tRp1037
sg960
F0
sg961
I01
sg962
F0
ssS'SliceStep_t_C(trial_PE)[PP]_subj.21'
p1038
(dp1039
g954
F1
sg955
g956
sg957
g958
(g8
S'\x0c2\xa9\x0b\x16\xc5\xd1?'
tRp1040
sg960
F0
sg961
I01
sg962
F0
ssS'SliceStep_t_C(trial_PE)[PP]_subj.26'
p1041
(dp1042
g954
F1
sg955
g956
sg957
g958
(g8
S'\xa0\xeb!o#1\xd3?'
tRp1043
sg960
F0
sg961
I01
sg962
F0
ssS'SliceStep_t_C(trial_PE)[PP]_subj.27'
p1044
(dp1045
g954
F1
sg955
g956
sg957
g958
(g8
S'O\xea\xe2\xfc\xbc\xe8\xd7?'
tRp1046
sg960
F0
sg961
I01
sg962
F0
ssS'SliceStep_t_C(trial_PE)[PP]_subj.24'
p1047
(dp1048
g954
F1
sg955
g956
sg957
g958
(g8
S' \xbb?\x9f\x8b\x88\xd4?'
tRp1049
sg960
F0
sg961
I01
sg962
F0
ssS'SliceStep_t_C(trial_PE)[PP]_subj.25'
p1050
(dp1051
g954
F1
sg955
g956
sg957
g958
(g8
S'V\x08\xbaxP\x80\xd9?'
tRp1052
sg960
F0
sg961
I01
sg962
F0
ssS'SliceStep_t_C(trial_PE)[UU]_subj.32'
p1053
(dp1054
g954
F1
sg955
g956
sg957
g958
(g8
S'O\x05\xa7O/S\xd9?'
tRp1055
sg960
F0
sg961
I01
sg962
F0
ssS'SliceStep_t_C(trial_PE)[PP]_subj.28'
p1056
(dp1057
g954
F1
sg955
g956
sg957
g958
(g8
S'\xc5\xdci\xa1\r\x87\xd2?'
tRp1058
sg960
F0
sg961
I01
sg962
F0
ssS'SliceStep_v_C(trial_PE)[UU]_subj.32'
p1059
(dp1060
g954
F1
sg955
g956
sg957
g958
(g8
S'l\x8f\x80\x11\xfa\xfd\xfc?'
tRp1061
sg960
F0
sg961
I01
sg962
F0
ssS'SliceStep_t_C(trial_PE)[UU]_subj.13'
p1062
(dp1063
g954
F1
sg955
g956
sg957
g958
(g8
S'\xd6\xbfN\xba\xa5\xd5\xdc?'
tRp1064
sg960
F0
sg961
I01
sg962
F0
ssS'SliceStep_v_C(trial_PE)[UP]_subj.32'
p1065
(dp1066
g954
F1
sg955
g956
sg957
g958
(g8
S'\x04.3\x96\x7f_\xfd?'
tRp1067
sg960
F0
sg961
I01
sg962
F0
ssS'SliceStep_v_C(trial_PE)[UP]_subj.30'
p1068
(dp1069
g954
F1
sg955
g956
sg957
g958
(g8
S'\x9cK\xe0\xc4\x81\x9d\xf8?'
tRp1070
sg960
F0
sg961
I01
sg962
F0
ssS'SliceStep_v_C(trial_PE)[UP]_subj.31'
p1071
(dp1072
g954
F1
sg955
g956
sg957
g958
(g8
S'\xc8q\x99\x12Uk\xfd?'
tRp1073
sg960
F0
sg961
I01
sg962
F0
ssS'SliceStep_t_C(trial_PE)[PU]_subj.0'
p1074
(dp1075
g954
F1
sg955
g956
sg957
g958
(g8
S'\x1a\xd0G$\x91\x18\xe6?'
tRp1076
sg960
F0
sg961
I01
sg962
F0
ssS'SliceStep_t_C(trial_PE)[UP]_subj.24'
p1077
(dp1078
g954
F1
sg955
g956
sg957
g958
(g8
S'1\xef<\xda7\xc1\xd5?'
tRp1079
sg960
F0
sg961
I01
sg962
F0
ssS'SliceStep_t_C(trial_PE)[UU]_subj.28'
p1080
(dp1081
g954
F1
sg955
g956
sg957
g958
(g8
S"s'\xa5\xd4\xaf\x84\xd2?"
tRp1082
sg960
F0
sg961
I01
sg962
F0
ssS'SliceStep_v_C(trial_PE)[UU]_subj.28'
p1083
(dp1084
g954
F1
sg955
g956
sg957
g958
(g8
S'\x92{eE\\\xef\xfc?'
tRp1085
sg960
F0
sg961
I01
sg962
F0
ssS'SliceStep_v_C(trial_PE)[UU]_subj.29'
p1086
(dp1087
g954
F1
sg955
g956
sg957
g958
(g8
S'\xdf\x90vp\x00\xb9\xfc?'
tRp1088
sg960
F0
sg961
I01
sg962
F0
ssS'SliceStep_v_C(trial_PE)[PP]_subj.20'
p1089
(dp1090
g954
F1
sg955
g956
sg957
g958
(g8
S'\x11\xac\xd8\x89\xb8U\xfd?'
tRp1091
sg960
F0
sg961
I01
sg962
F0
ssS'SliceStep_a_subj.19'
p1092
(dp1093
g954
F1
sg955
g956
sg957
g958
(g8
S'\x89D:3$J\x02@'
tRp1094
sg960
F0
sg961
I01
sg962
F0
ssS'SliceStep_v_C(trial_PE)[UU]_subj.22'
p1095
(dp1096
g954
F1
sg955
g956
sg957
g958
(g8
S'$\xf16\xb8\xd9\xfd\xfd?'
tRp1097
sg960
F0
sg961
I01
sg962
F0
ssS'SliceStep_v_C(trial_PE)[UU]_subj.23'
p1098
(dp1099
g954
F1
sg955
g956
sg957
g958
(g8
S'\xca9\xb0:C\xfd\xfc?'
tRp1100
sg960
F0
sg961
I01
sg962
F0
ssS'SliceStep_v_C(trial_PE)[UU]_subj.20'
p1101
(dp1102
g954
F1
sg955
g956
sg957
g958
(g8
S'(\x9b\xa1HM\x12\x00@'
tRp1103
sg960
F0
sg961
I01
sg962
F0
ssS'SliceStep_v_C(trial_PE)[UU]_subj.21'
p1104
(dp1105
g954
F1
sg955
g956
sg957
g958
(g8
S'\x1cn19\xfe\x8d\xfe?'
tRp1106
sg960
F0
sg961
I01
sg962
F0
ssS'SliceStep_v_C(trial_PE)[UU]_subj.26'
p1107
(dp1108
g954
F1
sg955
g956
sg957
g958
(g8
S'k\x07\xeb\xbc\x8b#\xfd?'
tRp1109
sg960
F0
sg961
I01
sg962
F0
ssS'SliceStep_v_C(trial_PE)[UU]_subj.27'
p1110
(dp1111
g954
F1
sg955
g956
sg957
g958
(g8
S'A\xd1\x89\x9dW\xf2\xfb?'
tRp1112
sg960
F0
sg961
I01
sg962
F0
ssS'SliceStep_v_C(trial_PE)[UU]_subj.24'
p1113
(dp1114
g954
F1
sg955
g956
sg957
g958
(g8
S'\xe0\xdf\xf0\xc4\xef<\xfb?'
tRp1115
sg960
F0
sg961
I01
sg962
F0
ssS'SliceStep_v_C(trial_PE)[UU]_subj.25'
p1116
(dp1117
g954
F1
sg955
g956
sg957
g958
(g8
S'\x00\x97\x7fri\x86\xfc?'
tRp1118
sg960
F0
sg961
I01
sg962
F0
ssS'SliceStep_t_C(trial_PE)[PU]_subj.32'
p1119
(dp1120
g954
F1
sg955
g956
sg957
g958
(g8
S'\xe6\x07\xffUY\x98\xd5?'
tRp1121
sg960
F0
sg961
I01
sg962
F0
ssS'SliceStep_v_C(trial_PE)[UP]_subj.18'
p1122
(dp1123
g954
F1
sg955
g956
sg957
g958
(g8
S'\xa4W\xd1\xb7\xfce\xff?'
tRp1124
sg960
F0
sg961
I01
sg962
F0
ssS'SliceStep_t_C(trial_PE)[PP]_subj.9'
p1125
(dp1126
g954
F1
sg955
g956
sg957
g958
(g8
S'B\x04*\x85~E\xdb?'
tRp1127
sg960
F0
sg961
I01
sg962
F0
ssS'SliceStep_t_C(trial_PE)[PU]_subj.31'
p1128
(dp1129
g954
F1
sg955
g956
sg957
g958
(g8
S'\x12\xa1\xabp\x00=\xd2?'
tRp1130
sg960
F0
sg961
I01
sg962
F0
ssS'SliceStep_v_C(trial_PE)[T.UU]:pupil_response_1'
p1131
(dp1132
g954
F1
sg955
g956
sg957
g958
(g8
S'\x18=\xd1\xe8\xa1\x0b\xb3='
tRp1133
sg960
F0
sg961
I01
sg962
F0
ssS'SliceStep_t_C(trial_PE)[UU]_subj.27'
p1134
(dp1135
g954
F1
sg955
g956
sg957
g958
(g8
S'\xcb2\x8a\x15\x97W\xe0?'
tRp1136
sg960
F0
sg961
I01
sg962
F0
ssS'SliceStep_v_C(trial_PE)[UP]_subj.19'
p1137
(dp1138
g954
F1
sg955
g956
sg957
g958
(g8
S'\xe1\xeb\xbc\xf9\x80a\xfb?'
tRp1139
sg960
F0
sg961
I01
sg962
F0
ssS'SliceStep_t_C(trial_PE)[PP]_subj.3'
p1140
(dp1141
g954
F1
sg955
g956
sg957
g958
(g8
S'Y\x1a5\x81Q\x00\xdd?'
tRp1142
sg960
F0
sg961
I01
sg962
F0
ssS'SliceStep_t_C(trial_PE)[PP]_subj.2'
p1143
(dp1144
g954
F1
sg955
g956
sg957
g958
(g8
S'9?\x84\xd1v\xc3\xe0?'
tRp1145
sg960
F0
sg961
I01
sg962
F0
ssS'SliceStep_t_C(trial_PE)[PP]_subj.1'
p1146
(dp1147
g954
F1
sg955
g956
sg957
g958
(g8
S'\xc6.\xf1\xf3\xa9A\xdd?'
tRp1148
sg960
F0
sg961
I01
sg962
F0
ssS'SliceStep_t_C(trial_PE)[PP]_subj.0'
p1149
(dp1150
g954
F1
sg955
g956
sg957
g958
(g8
S']\x05\\\x9d\x81\xbe\xe3?'
tRp1151
sg960
F0
sg961
I01
sg962
F0
ssS'SliceStep_t_C(trial_PE)[PP]_subj.7'
p1152
(dp1153
g954
F1
sg955
g956
sg957
g958
(g8
S'\x1e\x1e\xa3^\x82\xd9\xde?'
tRp1154
sg960
F0
sg961
I01
sg962
F0
ssS'SliceStep_t_C(trial_PE)[PP]_subj.6'
p1155
(dp1156
g954
F1
sg955
g956
sg957
g958
(g8
S" 'G\x19@S\xdb?"
tRp1157
sg960
F0
sg961
I01
sg962
F0
ssS'SliceStep_t_C(trial_PE)[PP]_subj.5'
p1158
(dp1159
g954
F1
sg955
g956
sg957
g958
(g8
S'\xb9\xbe\xd3\x1b\x17&\xd7?'
tRp1160
sg960
F0
sg961
I01
sg962
F0
ssS'SliceStep_t_C(trial_PE)[PP]_subj.4'
p1161
(dp1162
g954
F1
sg955
g956
sg957
g958
(g8
S'\x96\xd2_3\xd0\x17\xdc?'
tRp1163
sg960
F0
sg961
I01
sg962
F0
ssS'SliceStep_sv'
p1164
(dp1165
g954
F1
sg955
g956
sg957
g958
(g8
S'\xbbZ]#?\x9d\xf4='
tRp1166
sg960
F0
sg961
I01
sg962
F0
ssS'SliceStep_t_C(trial_PE)[UU]_subj.29'
p1167
(dp1168
g954
F1
sg955
g956
sg957
g958
(g8
S'P\xc3\xd8n\xc3\x87\xcc?'
tRp1169
sg960
F0
sg961
I01
sg962
F0
ssS'SliceStep_t_C(trial_PE)[UU]_subj.20'
p1170
(dp1171
g954
F1
sg955
g956
sg957
g958
(g8
S'\xe1\xccV4\x91o\xd7?'
tRp1172
sg960
F0
sg961
I01
sg962
F0
ssS'SliceStep_t_C(trial_PE)[UU]_subj.21'
p1173
(dp1174
g954
F1
sg955
g956
sg957
g958
(g8
S'\xf2/\x08\x98\xe5\xf4\xd0?'
tRp1175
sg960
F0
sg961
I01
sg962
F0
ssS'SliceStep_t_C(trial_PE)[PU]_subj.8'
p1176
(dp1177
g954
F1
sg955
g956
sg957
g958
(g8
S'\x8dj*Lb8\xe0?'
tRp1178
sg960
F0
sg961
I01
sg962
F0
ssS'SliceStep_t_C(trial_PE)[UU]_subj.23'
p1179
(dp1180
g954
F1
sg955
g956
sg957
g958
(g8
S'\xa5\x1c\xa6\xc4!\xbd\xcd?'
tRp1181
sg960
F0
sg961
I01
sg962
F0
ssS'SliceStep_t_C(trial_PE)[UU]_subj.24'
p1182
(dp1183
g954
F1
sg955
g956
sg957
g958
(g8
S'\xe6\xdd\x9d\x85z]\xd6?'
tRp1184
sg960
F0
sg961
I01
sg962
F0
ssS'SliceStep_t_C(trial_PE)[UU]_subj.25'
p1185
(dp1186
g954
F1
sg955
g956
sg957
g958
(g8
S'\xa3d \x7f4\x01\xd2?'
tRp1187
sg960
F0
sg961
I01
sg962
F0
ssS'SliceStep_t_C(trial_PE)[UU]_subj.26'
p1188
(dp1189
g954
F1
sg955
g956
sg957
g958
(g8
S'\xde\xa7Ah"&\xd7?'
tRp1190
sg960
F0
sg961
I01
sg962
F0
ssS'kNormalNormal_v_C(trial_PE)[UP]'
p1191
(dp1192
g954
F1
sg955
g956
sg957
g958
(g8
S'\x9cG\neko\xfd?'
tRp1193
sg960
F0
sg961
I01
sg962
F0
ssS'SliceStep_v_C(trial_PE)[PU]_subj.30'
p1194
(dp1195
g954
F1
sg955
g956
sg957
g958
(g8
S'a\xad\xda\x85b\xe0\xfa?'
tRp1196
sg960
F0
sg961
I01
sg962
F0
ssS'SliceStep_t_C(trial_PE)[UU]_subj.22'
p1197
(dp1198
g954
F1
sg955
g956
sg957
g958
(g8
S'\xb6\xc1U\x1a+\x97\xd4?'
tRp1199
sg960
F0
sg961
I01
sg962
F0
ssS'SliceStep_v_C(trial_PE)[PU]_subj.31'
p1200
(dp1201
g954
F1
sg955
g956
sg957
g958
(g8
S't\xb1w\x04\x9b\x02\xff?'
tRp1202
sg960
F0
sg961
I01
sg962
F0
ssS'SliceStep_v_C(trial_PE)[PP]_subj.18'
p1203
(dp1204
g954
F1
sg955
g956
sg957
g958
(g8
S'\x0b\n\x89\xb2\xde\x85\xfd?'
tRp1205
sg960
F0
sg961
I01
sg962
F0
ssS'SliceStep_v_C(trial_PE)[UU]_subj.5'
p1206
(dp1207
g954
F1
sg955
g956
sg957
g958
(g8
S'\x88b\xfe,\xab\xe2\xfe?'
tRp1208
sg960
F0
sg961
I01
sg962
F0
ssS'SliceStep_t_C(trial_PE)[PU]_std'
p1209
(dp1210
g954
F1
sg955
g956
sg957
g958
(g8
S'1\x12q\xb5l0\xbc?'
tRp1211
sg960
F0
sg961
I01
sg962
F0
ssS'SliceStep_v_C(trial_PE)[UP]_subj.9'
p1212
(dp1213
g954
F1
sg955
g956
sg957
g958
(g8
S'\xea\x9dlb{|\xfe?'
tRp1214
sg960
F0
sg961
I01
sg962
F0
ssS'SliceStep_a_subj.15'
p1215
(dp1216
g954
F1
sg955
g956
sg957
g958
(g8
S'\x8b\xaa\xf5\xb3\xf6\x9b\x01@'
tRp1217
sg960
F0
sg961
I01
sg962
F0
ssS'SliceStep_t_C(trial_PE)[PU]_subj.17'
p1218
(dp1219
g954
F1
sg955
g956
sg957
g958
(g8
S'~\x02\x9bP\x06|\xdb?'
tRp1220
sg960
F0
sg961
I01
sg962
F0
ssS'SliceStep_v_C(trial_PE)[UP]_subj.26'
p1221
(dp1222
g954
F1
sg955
g956
sg957
g958
(g8
S'\x9d\n\xd3\xba\xab\x1b\xfd?'
tRp1223
sg960
F0
sg961
I01
sg962
F0
ssS'SliceStep_a_subj.13'
p1224
(dp1225
g954
F1
sg955
g956
sg957
g958
(g8
S'\xa8P-\xd3d/\x02@'
tRp1226
sg960
F0
sg961
I01
sg962
F0
ssS'kNormalNormal_v_C(trial_PE)[UU]'
p1227
(dp1228
g954
F1
sg955
g956
sg957
g958
(g8
S'\t\x99~\xd3\x04\x95\xfd?'
tRp1229
sg960
F0
sg961
I01
sg962
F0
ssS'SliceStep_t_C(trial_PE)[PP]'
p1230
(dp1231
g954
F1
sg955
g956
sg957
g958
(g8
S'\x80\xb6\xabO\x84\xba\xd8?'
tRp1232
sg960
F0
sg961
I01
sg962
F0
ssS'SliceStep_v_C(trial_PE)[PP]_subj.9'
p1233
(dp1234
g954
F1
sg955
g956
sg957
g958
(g8
S'\xa5\xe7\x03\xbb\xc7\x91\xfb?'
tRp1235
sg960
F0
sg961
I01
sg962
F0
ssS'SliceStep_v_C(trial_PE)[PP]_subj.8'
p1236
(dp1237
g954
F1
sg955
g956
sg957
g958
(g8
S'\xd7*\xa6\xf2\xccq\xfb?'
tRp1238
sg960
F0
sg961
I01
sg962
F0
ssS'SliceStep_t_C(trial_PE)[UU]_std'
p1239
(dp1240
g954
F1
sg955
g956
sg957
g958
(g8
S'\xff\xe6\xd3\x82\x81#\xc0?'
tRp1241
sg960
F0
sg961
I01
sg962
F0
ssS'SliceStep_v_C(trial_PE)[PP]_subj.5'
p1242
(dp1243
g954
F1
sg955
g956
sg957
g958
(g8
S'\xb9\xbe@\xef-\xb4\xfa?'
tRp1244
sg960
F0
sg961
I01
sg962
F0
ssS'SliceStep_v_C(trial_PE)[PP]_subj.4'
p1245
(dp1246
g954
F1
sg955
g956
sg957
g958
(g8
S'\xeb\x92\x88\xd0sB\xfb?'
tRp1247
sg960
F0
sg961
I01
sg962
F0
ssS'SliceStep_v_C(trial_PE)[PP]_subj.7'
p1248
(dp1249
g954
F1
sg955
g956
sg957
g958
(g8
S'\xfd\x83&N#\x0c\xf6?'
tRp1250
sg960
F0
sg961
I01
sg962
F0
ssS'SliceStep_v_C(trial_PE)[PP]_subj.6'
p1251
(dp1252
g954
F1
sg955
g956
sg957
g958
(g8
S'i.\xba\xb0\x96\x9a\xf7?'
tRp1253
sg960
F0
sg961
I01
sg962
F0
ssS'SliceStep_v_C(trial_PE)[PP]_subj.1'
p1254
(dp1255
g954
F1
sg955
g956
sg957
g958
(g8
S'\xf2OU\xda#\xdc\xf9?'
tRp1256
sg960
F0
sg961
I01
sg962
F0
ssS'SliceStep_v_C(trial_PE)[PP]_subj.0'
p1257
(dp1258
g954
F1
sg955
g956
sg957
g958
(g8
S'\xe3\xa6\x1f\xbe\xcd5\xf6?'
tRp1259
sg960
F0
sg961
I01
sg962
F0
ssS'SliceStep_v_C(trial_PE)[PP]_subj.3'
p1260
(dp1261
g954
F1
sg955
g956
sg957
g958
(g8
S'I\xdfk,\xca\xed\xfb?'
tRp1262
sg960
F0
sg961
I01
sg962
F0
ssS'SliceStep_v_C(trial_PE)[PP]_subj.2'
p1263
(dp1264
g954
F1
sg955
g956
sg957
g958
(g8
S'\x15\xfe\x17[\xeb\xb5\xf5?'
tRp1265
sg960
F0
sg961
I01
sg962
F0
ssS'SliceStep_t_C(trial_PE)[PP]_subj.12'
p1266
(dp1267
g954
F1
sg955
g956
sg957
g958
(g8
S'm\xeew\xe7\xea\x13\xdc?'
tRp1268
sg960
F0
sg961
I01
sg962
F0
ssS'SliceStep_t_C(trial_PE)[UU]_subj.19'
p1269
(dp1270
g954
F1
sg955
g956
sg957
g958
(g8
S'SN\xb9\xa4M\xab\xe1?'
tRp1271
sg960
F0
sg961
I01
sg962
F0
ssS'SliceStep_t_C(trial_PE)[UU]_subj.18'
p1272
(dp1273
g954
F1
sg955
g956
sg957
g958
(g8
S'"\xb5"\x10m*\xd7?'
tRp1274
sg960
F0
sg961
I01
sg962
F0
ssS'SliceStep_t_C(trial_PE)[UU]_subj.30'
p1275
(dp1276
g954
F1
sg955
g956
sg957
g958
(g8
S'\xf5F\xeb\x11\xee\xf0\xdb?'
tRp1277
sg960
F0
sg961
I01
sg962
F0
ssS'SliceStep_t_C(trial_PE)[UU]_subj.15'
p1278
(dp1279
g954
F1
sg955
g956
sg957
g958
(g8
S'\xf6i\x7f\x96\xc15\xde?'
tRp1280
sg960
F0
sg961
I01
sg962
F0
ssS'SliceStep_t_C(trial_PE)[PP]_std'
p1281
(dp1282
g954
F1
sg955
g956
sg957
g958
(g8
S'\xeb\x06\xaf\xa6\x95H\xb9?'
tRp1283
sg960
F0
sg961
I01
sg962
F0
ssS'SliceStep_t_C(trial_PE)[UU]_subj.17'
p1284
(dp1285
g954
F1
sg955
g956
sg957
g958
(g8
S'\x11UOuS\x93\xda?'
tRp1286
sg960
F0
sg961
I01
sg962
F0
ssS'SliceStep_t_C(trial_PE)[UU]_subj.16'
p1287
(dp1288
g954
F1
sg955
g956
sg957
g958
(g8
S'\xa2\xe3\xff\x00\x1d\xff\xd7?'
tRp1289
sg960
F0
sg961
I01
sg962
F0
ssS'SliceStep_t_C(trial_PE)[UU]_subj.11'
p1290
(dp1291
g954
F1
sg955
g956
sg957
g958
(g8
S'\xe7\xcc\xe5\x8a\xeb\x9d\xe3?'
tRp1292
sg960
F0
sg961
I01
sg962
F0
ssS'SliceStep_t_C(trial_PE)[PP]_subj.19'
p1293
(dp1294
g954
F1
sg955
g956
sg957
g958
(g8
S'"\xfc\x80\xeb\xc6#\xdc?'
tRp1295
sg960
F0
sg961
I01
sg962
F0
ssS'SliceStep_v_C(trial_PE)[PU]_subj.14'
p1296
(dp1297
g954
F1
sg955
g956
sg957
g958
(g8
S'\x1aak\xd1\xf6l\xfe?'
tRp1298
sg960
F0
sg961
I01
sg962
F0
ssS'SliceStep_t_C(trial_PE)[UU]_subj.12'
p1299
(dp1300
g954
F1
sg955
g956
sg957
g958
(g8
S'\xc8\xa1\x12\x8e*\x1a\xe0?'
tRp1301
sg960
F0
sg961
I01
sg962
F0
ssS'SliceStep_t_C(trial_PE)[UP]_subj.23'
p1302
(dp1303
g954
F1
sg955
g956
sg957
g958
(g8
S'\xbc\xf2Z\x0c7]\xce?'
tRp1304
sg960
F0
sg961
I01
sg962
F0
ssS'SliceStep_t_C(trial_PE)[UP]_subj.22'
p1305
(dp1306
g954
F1
sg955
g956
sg957
g958
(g8
S'D\x98\x9b\xd8\xf4\xeb\xd7?'
tRp1307
sg960
F0
sg961
I01
sg962
F0
ssS'SliceStep_t_C(trial_PE)[UP]_subj.21'
p1308
(dp1309
g954
F1
sg955
g956
sg957
g958
(g8
S'\xe28\x15\xba\xc4\x91\xd5?'
tRp1310
sg960
F0
sg961
I01
sg962
F0
ssS'SliceStep_t_C(trial_PE)[UP]_subj.20'
p1311
(dp1312
g954
F1
sg955
g956
sg957
g958
(g8
S'\xaf\x0c\xf2,[n\xd8?'
tRp1313
sg960
F0
sg961
I01
sg962
F0
ssS'SliceStep_t_C(trial_PE)[UP]_subj.27'
p1314
(dp1315
g954
F1
sg955
g956
sg957
g958
(g8
S'K\xe2\xe0\x8dh#\xdc?'
tRp1316
sg960
F0
sg961
I01
sg962
F0
ssS'SliceStep_t_C(trial_PE)[UP]_subj.26'
p1317
(dp1318
g954
F1
sg955
g956
sg957
g958
(g8
S'y\xc7\xa8\x85\xdc\xce\xd5?'
tRp1319
sg960
F0
sg961
I01
sg962
F0
ssS'SliceStep_t_C(trial_PE)[UP]_subj.25'
p1320
(dp1321
g954
F1
sg955
g956
sg957
g958
(g8
S'\xb7(\xb8J\xa8j\xdb?'
tRp1322
sg960
F0
sg961
I01
sg962
F0
ssS'SliceStep_a_subj.27'
p1323
(dp1324
g954
F1
sg955
g956
sg957
g958
(g8
S'\x1fpe\\\xe9\x9a\x05@'
tRp1325
sg960
F0
sg961
I01
sg962
F0
ssS'SliceStep_t_C(trial_PE)[UP]_subj.29'
p1326
(dp1327
g954
F1
sg955
g956
sg957
g958
(g8
S'\xcec\x1a^L\xe3\xd1?'
tRp1328
sg960
F0
sg961
I01
sg962
F0
ssS'SliceStep_t_C(trial_PE)[UP]_subj.28'
p1329
(dp1330
g954
F1
sg955
g956
sg957
g958
(g8
S'\x8c\xa3\xbeN\x02\x1d\xd6?'
tRp1331
sg960
F0
sg961
I01
sg962
F0
ssS'SliceStep_v_C(trial_PE)[PU]_subj.6'
p1332
(dp1333
g954
F1
sg955
g956
sg957
g958
(g8
S'\xec\xb1\x80\x98\xf7\xaf\xfd?'
tRp1334
sg960
F0
sg961
I01
sg962
F0
ssS'SliceStep_t_C(trial_PE)[UP]_subj.0'
p1335
(dp1336
g954
F1
sg955
g956
sg957
g958
(g8
S'\xcf\xf2%\xc7vu\xe6?'
tRp1337
sg960
F0
sg961
I01
sg962
F0
ssS'SliceStep_t_C(trial_PE)[UP]_subj.1'
p1338
(dp1339
g954
F1
sg955
g956
sg957
g958
(g8
S'\x9a\xea6\xd7\xaaa\xdd?'
tRp1340
sg960
F0
sg961
I01
sg962
F0
ssS'SliceStep_t_C(trial_PE)[UP]_subj.2'
p1341
(dp1342
g954
F1
sg955
g956
sg957
g958
(g8
S'U\xd0$\x1a\xf4\x90\xe4?'
tRp1343
sg960
F0
sg961
I01
sg962
F0
ssS'SliceStep_t_C(trial_PE)[UP]_subj.3'
p1344
(dp1345
g954
F1
sg955
g956
sg957
g958
(g8
S'\xa1\x93\x00\x84\xf5i\xe4?'
tRp1346
sg960
F0
sg961
I01
sg962
F0
ssS'SliceStep_t_C(trial_PE)[UP]_subj.4'
p1347
(dp1348
g954
F1
sg955
g956
sg957
g958
(g8
S'\xcd7\x9bEA\x95\xda?'
tRp1349
sg960
F0
sg961
I01
sg962
F0
ssS'SliceStep_v_C(trial_PE)[UP]_subj.5'
p1350
(dp1351
g954
F1
sg955
g956
sg957
g958
(g8
S'O\x86\x8b\xa0\x7f\xfc\xfe?'
tRp1352
sg960
F0
sg961
I01
sg962
F0
ssS'SliceStep_t_C(trial_PE)[UP]_subj.6'
p1353
(dp1354
g954
F1
sg955
g956
sg957
g958
(g8
S'P\xfe\xee\xe1\x14!\xe2?'
tRp1355
sg960
F0
sg961
I01
sg962
F0
ssS'SliceStep_t_C(trial_PE)[UP]_subj.7'
p1356
(dp1357
g954
F1
sg955
g956
sg957
g958
(g8
S'\x99\n\x1eO\xdb\x01\xea?'
tRp1358
sg960
F0
sg961
I01
sg962
F0
ssS'SliceStep_t_C(trial_PE)[UP]_subj.8'
p1359
(dp1360
g954
F1
sg955
g956
sg957
g958
(g8
S'_l*M\xb9\xd9\xdc?'
tRp1361
sg960
F0
sg961
I01
sg962
F0
ssS'SliceStep_a_subj.22'
p1362
(dp1363
g954
F1
sg955
g956
sg957
g958
(g8
S'\x19\x05\xa8\xf3f\x88\x01@'
tRp1364
sg960
F0
sg961
I01
sg962
F0
ssS'SliceStep_a_subj.23'
p1365
(dp1366
g954
F1
sg955
g956
sg957
g958
(g8
S'\xd0\xa0\x95\x9e-c\x00@'
tRp1367
sg960
F0
sg961
I01
sg962
F0
ssS'SliceStep_v_C(trial_PE)[PU]_subj.27'
p1368
(dp1369
g954
F1
sg955
g956
sg957
g958
(g8
S'\x1c\xf1\x81A\x0f0\xfd?'
tRp1370
sg960
F0
sg961
I01
sg962
F0
ssS'SliceStep_t_C(trial_PE)[UP]_subj.12'
p1371
(dp1372
g954
F1
sg955
g956
sg957
g958
(g8
S'\x13\x83\x8b]\x00\xa7\xe1?'
tRp1373
sg960
F0
sg961
I01
sg962
F0
ssS'SliceStep_v_C(trial_PE)[PU]_subj.25'
p1374
(dp1375
g954
F1
sg955
g956
sg957
g958
(g8
S'\xfc\xe9"\x9fg\xf6\xfc?'
tRp1376
sg960
F0
sg961
I01
sg962
F0
ssS'SliceStep_v_C(trial_PE)[PU]_subj.24'
p1377
(dp1378
g954
F1
sg955
g956
sg957
g958
(g8
S'9\x11H\xd53\xb5\xfa?'
tRp1379
sg960
F0
sg961
I01
sg962
F0
ssS'SliceStep_v_C(trial_PE)[PU]_subj.23'
p1380
(dp1381
g954
F1
sg955
g956
sg957
g958
(g8
S'\xac\xe5\x96\x05N\x86\xfd?'
tRp1382
sg960
F0
sg961
I01
sg962
F0
ssS'SliceStep_v_C(trial_PE)[PU]_subj.22'
p1383
(dp1384
g954
F1
sg955
g956
sg957
g958
(g8
S'\xa6\x8b\xe5c\xd6\x98\xfe?'
tRp1385
sg960
F0
sg961
I01
sg962
F0
ssS'SliceStep_v_C(trial_PE)[PU]_subj.21'
p1386
(dp1387
g954
F1
sg955
g956
sg957
g958
(g8
S'GN\xf88\xa2.\xfd?'
tRp1388
sg960
F0
sg961
I01
sg962
F0
ssS'SliceStep_v_C(trial_PE)[PU]_subj.20'
p1389
(dp1390
g954
F1
sg955
g956
sg957
g958
(g8
S'A\xec\x11\xe1Dk\xff?'
tRp1391
sg960
F0
sg961
I01
sg962
F0
ssS'SliceStep_v_C(trial_PE)[PU]_subj.3'
p1392
(dp1393
g954
F1
sg955
g956
sg957
g958
(g8
S'I\xbdHp\x1f\x84\xfe?'
tRp1394
sg960
F0
sg961
I01
sg962
F0
ssS'SliceStep_t_C(trial_PE)[UP]_std'
p1395
(dp1396
g954
F1
sg955
g956
sg957
g958
(g8
S'\xe8\xfe\x81H\xda\xeb\xbd?'
tRp1397
sg960
F0
sg961
I01
sg962
F0
ssS'SliceStep_t_C(trial_PE)[UP]_subj.10'
p1398
(dp1399
g954
F1
sg955
g956
sg957
g958
(g8
S'?\x9f\xe2\x98\xdf>\xe2?'
tRp1400
sg960
F0
sg961
I01
sg962
F0
ssS'SliceStep_v_C(trial_PE)[PU]_subj.29'
p1401
(dp1402
g954
F1
sg955
g956
sg957
g958
(g8
S'">\x8d5\xa3\x90\xfc?'
tRp1403
sg960
F0
sg961
I01
sg962
F0
ssS'SliceStep_v_C(trial_PE)[PU]_subj.28'
p1404
(dp1405
g954
F1
sg955
g956
sg957
g958
(g8
S'\xc89M\x95a\x08\xfd?'
tRp1406
sg960
F0
sg961
I01
sg962
F0
ssS'SliceStep_t_C(trial_PE)[PU]_subj.24'
p1407
(dp1408
g954
F1
sg955
g956
sg957
g958
(g8
S'\x9cIi;\x0c\xd2\xd5?'
tRp1409
sg960
F0
sg961
I01
sg962
F0
ssS'SliceStep_t_C(trial_PE)[PP]_subj.10'
p1410
(dp1411
g954
F1
sg955
g956
sg957
g958
(g8
S'\xb6_\x92\xbcb\xba\xd8?'
tRp1412
sg960
F0
sg961
I01
sg962
F0
ssS'SliceStep_v_C(trial_PE)[UP]_subj.22'
p1413
(dp1414
g954
F1
sg955
g956
sg957
g958
(g8
S'g]\xa4]\x9e\xb8\xfd?'
tRp1415
sg960
F0
sg961
I01
sg962
F0
ssS'SliceStep_v_C(trial_PE)[PU]_subj.26'
p1416
(dp1417
g954
F1
sg955
g956
sg957
g958
(g8
S'\xe0\x8du\xb4\x13\xb1\xfd?'
tRp1418
sg960
F0
sg961
I01
sg962
F0
ssS'SliceStep_t_C(trial_PE)[UP]_subj.19'
p1419
(dp1420
g954
F1
sg955
g956
sg957
g958
(g8
S'\xa6\xa2\xca\xd4\xcf\xac\xdb?'
tRp1421
sg960
F0
sg961
I01
sg962
F0
ssS'SliceStep_t_C(trial_PE)[PP]_subj.17'
p1422
(dp1423
g954
F1
sg955
g956
sg957
g958
(g8
S' \xd5\xd94\xd8V\xd8?'
tRp1424
sg960
F0
sg961
I01
sg962
F0
ssS'SliceStep_t_C(trial_PE)[UP]_subj.17'
p1425
(dp1426
g954
F1
sg955
g956
sg957
g958
(g8
S'0\x1c\xb2V\xf4\x14\xd8?'
tRp1427
sg960
F0
sg961
I01
sg962
F0
ssS'SliceStep_t_C(trial_PE)[UP]_subj.30'
p1428
(dp1429
g954
F1
sg955
g956
sg957
g958
(g8
S'y}!\xa2\xfdi\xd7?'
tRp1430
sg960
F0
sg961
I01
sg962
F0
ssS'SliceStep_t_C(trial_PE)[UP]_subj.31'
p1431
(dp1432
g954
F1
sg955
g956
sg957
g958
(g8
S'\xf3\x9d\x83{\xf9\x90\xd3?'
tRp1433
sg960
F0
sg961
I01
sg962
F0
ssS'SliceStep_t_C(trial_PE)[UP]_subj.32'
p1434
(dp1435
g954
F1
sg955
g956
sg957
g958
(g8
S'\xf4\xb2M\xa0,\xa9\xd7?'
tRp1436
sg960
F0
sg961
I01
sg962
F0
ssS'SliceStep_t_C(trial_PE)[UP]_subj.14'
p1437
(dp1438
g954
F1
sg955
g956
sg957
g958
(g8
S'\x86\x18\xbb\x1a\x95\xc7\xe0?'
tRp1439
sg960
F0
sg961
I01
sg962
F0
ssS'SliceStep_t_C(trial_PE)[PP]_subj.29'
p1440
(dp1441
g954
F1
sg955
g956
sg957
g958
(g8
S'\xa0\x81\xef\xec<\xa2\xd1?'
tRp1442
sg960
F0
sg961
I01
sg962
F0
ssS'SliceStep_t_C(trial_PE)[UP]_subj.15'
p1443
(dp1444
g954
F1
sg955
g956
sg957
g958
(g8
S'\x91\xa4u\xb8\x94q\xda?'
tRp1445
sg960
F0
sg961
I01
sg962
F0
ssS'SliceStep_t_C(trial_PE)[UU]_subj.31'
p1446
(dp1447
g954
F1
sg955
g956
sg957
g958
(g8
S'\x99%\xe3x\xcd\xa5\xd2?'
tRp1448
sg960
F0
sg961
I01
sg962
F0
ssS'SliceStep_t_C(trial_PE)[PU]_subj.26'
p1449
(dp1450
g954
F1
sg955
g956
sg957
g958
(g8
S'\x8d\xbe\x1b\xa4\xa2\xbe\xd6?'
tRp1451
sg960
F0
sg961
I01
sg962
F0
ssS'SliceStep_v_C(trial_PE)[UP]_subj.2'
p1452
(dp1453
g954
F1
sg955
g956
sg957
g958
(g8
S'\xd3"\x18\xb5\xd8<\xfd?'
tRp1454
sg960
F0
sg961
I01
sg962
F0
ssS'SliceStep_v_C(trial_PE)[UP]_subj.3'
p1455
(dp1456
g954
F1
sg955
g956
sg957
g958
(g8
S'\x88\xa5Y\x0c\xea\x9e\xfe?'
tRp1457
sg960
F0
sg961
I01
sg962
F0
ssS'SliceStep_v_C(trial_PE)[UP]_subj.0'
p1458
(dp1459
g954
F1
sg955
g956
sg957
g958
(g8
S'\x99jY4c\x8f\xfd?'
tRp1460
sg960
F0
sg961
I01
sg962
F0
ssS'SliceStep_t_C(trial_PE)[PU]_subj.9'
p1461
(dp1462
g954
F1
sg955
g956
sg957
g958
(g8
S'\x90\xa1W\xc6J\x0c\xdf?'
tRp1463
sg960
F0
sg961
I01
sg962
F0
ssS'SliceStep_v_C(trial_PE)[UP]_subj.6'
p1464
(dp1465
g954
F1
sg955
g956
sg957
g958
(g8
S'\x04\xe5\xc3\x1f\x18\x9b\xfd?'
tRp1466
sg960
F0
sg961
I01
sg962
F0
ssS'SliceStep_a_subj.12'
p1467
(dp1468
g954
F1
sg955
g956
sg957
g958
(g8
S'\xdc\x90\xae\x83\x07\xab\x01@'
tRp1469
sg960
F0
sg961
I01
sg962
F0
ssS'SliceStep_v_C(trial_PE)[UP]_subj.4'
p1470
(dp1471
g954
F1
sg955
g956
sg957
g958
(g8
S'\xb3\xa1\xde,0\x02\xff?'
tRp1472
sg960
F0
sg961
I01
sg962
F0
ssS'SliceStep_a_subj.10'
p1473
(dp1474
g954
F1
sg955
g956
sg957
g958
(g8
S'\xa0\xcd\x1f5Xf\x00@'
tRp1475
sg960
F0
sg961
I01
sg962
F0
ssS'SliceStep_t_C(trial_PE)[PU]_subj.2'
p1476
(dp1477
g954
F1
sg955
g956
sg957
g958
(g8
S'\x94C\xd6\xf8\xb9\xbf\xe3?'
tRp1478
sg960
F0
sg961
I01
sg962
F0
ssS'SliceStep_t_C(trial_PE)[PU]_subj.3'
p1479
(dp1480
g954
F1
sg955
g956
sg957
g958
(g8
S'\xbc\x052\xce\xa6\xf1\xdf?'
tRp1481
sg960
F0
sg961
I01
sg962
F0
ssS'SliceStep_v_C(trial_PE)[UP]_subj.8'
p1482
(dp1483
g954
F1
sg955
g956
sg957
g958
(g8
S'\xa9FQ\xff\x9ds\xfe?'
tRp1484
sg960
F0
sg961
I01
sg962
F0
ssS'SliceStep_t_C(trial_PE)[PU]_subj.1'
p1485
(dp1486
g954
F1
sg955
g956
sg957
g958
(g8
S'\x018\xc2.\xbc}\xdb?'
tRp1487
sg960
F0
sg961
I01
sg962
F0
ssS'SliceStep_t_C(trial_PE)[PU]_subj.6'
p1488
(dp1489
g954
F1
sg955
g956
sg957
g958
(g8
S'x`\xa7\xb4\x04w\xe0?'
tRp1490
sg960
F0
sg961
I01
sg962
F0
ssS'SliceStep_t_C(trial_PE)[PU]_subj.7'
p1491
(dp1492
g954
F1
sg955
g956
sg957
g958
(g8
S'\x93\x94\x8cY\x88\x9e\xe2?'
tRp1493
sg960
F0
sg961
I01
sg962
F0
ssS'SliceStep_t_C(trial_PE)[PU]_subj.4'
p1494
(dp1495
g954
F1
sg955
g956
sg957
g958
(g8
S'\xf1\x7fMY\x8fR\xdb?'
tRp1496
sg960
F0
sg961
I01
sg962
F0
ssS'SliceStep_t_C(trial_PE)[PU]_subj.5'
p1497
(dp1498
g954
F1
sg955
g956
sg957
g958
(g8
S'\xdc\xdf8\xe6\xa7v\xdd?'
tRp1499
sg960
F0
sg961
I01
sg962
F0
ssS'SliceStep_v_C(trial_PE)[UU]_subj.3'
p1500
(dp1501
g954
F1
sg955
g956
sg957
g958
(g8
S'\x0e\x16\xca\x0c\x14q\xfe?'
tRp1502
sg960
F0
sg961
I01
sg962
F0
ssS'SliceStep_v_C(trial_PE)[UU]_subj.2'
p1503
(dp1504
g954
F1
sg955
g956
sg957
g958
(g8
S'\x17\x07\x1dB@\x9b\xfc?'
tRp1505
sg960
F0
sg961
I01
sg962
F0
ssS'SliceStep_v_C(trial_PE)[UU]_subj.1'
p1506
(dp1507
g954
F1
sg955
g956
sg957
g958
(g8
S'\xb8Q\x9d\x13\x08\xe0\xfe?'
tRp1508
sg960
F0
sg961
I01
sg962
F0
ssS'SliceStep_v_C(trial_PE)[UU]_subj.0'
p1509
(dp1510
g954
F1
sg955
g956
sg957
g958
(g8
S'\xda\xe4K\x16\xe5e\xfe?'
tRp1511
sg960
F0
sg961
I01
sg962
F0
ssS'SliceStep_v_C(trial_PE)[UU]_subj.7'
p1512
(dp1513
g954
F1
sg955
g956
sg957
g958
(g8
S'C\x94\x0f\xb8\xb9\x9a\xfd?'
tRp1514
sg960
F0
sg961
I01
sg962
F0
ssS'SliceStep_v_C(trial_PE)[UU]_subj.6'
p1515
(dp1516
g954
F1
sg955
g956
sg957
g958
(g8
S'\x0eLN"\xfd\xde\xfe?'
tRp1517
sg960
F0
sg961
I01
sg962
F0
ssS'SliceStep_v_C(trial_PE)[PU]_subj.32'
p1518
(dp1519
g954
F1
sg955
g956
sg957
g958
(g8
S'\xbb\xcc\xb4\xb4%\x9f\xfc?'
tRp1520
sg960
F0
sg961
I01
sg962
F0
ssS'SliceStep_v_C(trial_PE)[UU]_subj.4'
p1521
(dp1522
g954
F1
sg955
g956
sg957
g958
(g8
S'\xd4\x81\xda\x8d\x11k\xfe?'
tRp1523
sg960
F0
sg961
I01
sg962
F0
ssS'SliceStep_v_C(trial_PE)[UU]_subj.9'
p1524
(dp1525
g954
F1
sg955
g956
sg957
g958
(g8
S'v\xa8s\xe2Z\xbf\xff?'
tRp1526
sg960
F0
sg961
I01
sg962
F0
ssS'SliceStep_v_C(trial_PE)[UU]_subj.8'
p1527
(dp1528
g954
F1
sg955
g956
sg957
g958
(g8
S'J\xa5\xed\x14"\xd7\xfd?'
tRp1529
sg960
F0
sg961
I01
sg962
F0
ssS'SliceStep_v_C(trial_PE)[UU]_std'
p1530
(dp1531
g954
F1
sg955
g956
sg957
g958
(g8
S'N\xa8E\x8fq\xa6\xb3?'
tRp1532
sg960
F0
sg961
I01
sg962
F0
ssS'SliceStep_t_C(trial_PE)[UP]_subj.5'
p1533
(dp1534
g954
F1
sg955
g956
sg957
g958
(g8
S'I\x1a\xf1-\xb4\xd6\xdd?'
tRp1535
sg960
F0
sg961
I01
sg962
F0
ssS'SliceStep_v_C(trial_PE)[PP]_subj.32'
p1536
(dp1537
g954
F1
sg955
g956
sg957
g958
(g8
S'\t{\xdc)\x86\xd3\xf6?'
tRp1538
sg960
F0
sg961
I01
sg962
F0
ssS'SliceStep_v_C(trial_PE)[PP]_subj.31'
p1539
(dp1540
g954
F1
sg955
g956
sg957
g958
(g8
S'\xc2\xa7"\xe6\x04\xe6\xf8?'
tRp1541
sg960
F0
sg961
I01
sg962
F0
ssS'SliceStep_v_C(trial_PE)[PP]_subj.30'
p1542
(dp1543
g954
F1
sg955
g956
sg957
g958
(g8
S'\x17\xd7\xa6\xcb_\xf5\xe9?'
tRp1544
sg960
F0
sg961
I01
sg962
F0
ssS'SliceStep_v_C(trial_PE)[T.UP]:pupil_response_1'
p1545
(dp1546
g954
F1
sg955
g956
sg957
g958
(g8
S'z1\xe2\xe7\x0e\xaf\xbd>'
tRp1547
sg960
F0
sg961
I01
sg962
F0
ssS'SliceStep_v_pupil_response_1'
p1548
(dp1549
g954
F1
sg955
g956
sg957
g958
(g8
S'\x00/\xe6d\x96He>'
tRp1550
sg960
F0
sg961
I01
sg962
F0
ssS'SliceStep_t_C(trial_PE)[PP]_subj.30'
p1551
(dp1552
g954
F1
sg955
g956
sg957
g958
(g8
S'\xf1g\x82\xbc=\xa8\xc5?'
tRp1553
sg960
F0
sg961
I01
sg962
F0
ssS'SliceStep_a_std'
p1554
(dp1555
g954
F1
sg955
g956
sg957
g958
(g8
S'\x83#\xbe\xfe\xdbK\xd1?'
tRp1556
sg960
F0
sg961
I01
sg962
F0
ssS'SliceStep_t_C(trial_PE)[UU]_subj.9'
p1557
(dp1558
g954
F1
sg955
g956
sg957
g958
(g8
S'\x8el\xf2\x84\xd2\xcc\xde?'
tRp1559
sg960
F0
sg961
I01
sg962
F0
ssS'SliceStep_t_C(trial_PE)[UU]_subj.8'
p1560
(dp1561
g954
F1
sg955
g956
sg957
g958
(g8
S'&\x82\xa1\xe2\x08_\xde?'
tRp1562
sg960
F0
sg961
I01
sg962
F0
ssS'kNormalNormal_v_C(trial_PE)[PP]'
p1563
(dp1564
g954
F1
sg955
g956
sg957
g958
(g8
S'\xa0\xad[4\xe4\xfa\xf7?'
tRp1565
sg960
F0
sg961
I01
sg962
F0
ssS'SliceStep_a_subj.32'
p1566
(dp1567
g954
F1
sg955
g956
sg957
g958
(g8
S'\xbf\xfb\x00o\xab\x00\xff?'
tRp1568
sg960
F0
sg961
I01
sg962
F0
ssS'SliceStep_v_C(trial_PE)[PP]_subj.14'
p1569
(dp1570
g954
F1
sg955
g956
sg957
g958
(g8
S"H\x06\xecNr'\xf7?"
tRp1571
sg960
F0
sg961
I01
sg962
F0
ssS'SliceStep_t_C(trial_PE)[UU]_subj.1'
p1572
(dp1573
g954
F1
sg955
g956
sg957
g958
(g8
S'\x86,\xd3w+\xd0\xde?'
tRp1574
sg960
F0
sg961
I01
sg962
F0
ssS'SliceStep_t_C(trial_PE)[UU]_subj.0'
p1575
(dp1576
g954
F1
sg955
g956
sg957
g958
(g8
S'\x10\xed\xaaCW\xfc\xe5?'
tRp1577
sg960
F0
sg961
I01
sg962
F0
ssS'SliceStep_t_C(trial_PE)[UU]_subj.3'
p1578
(dp1579
g954
F1
sg955
g956
sg957
g958
(g8
S'c=v\x9d\xc1.\xe6?'
tRp1580
sg960
F0
sg961
I01
sg962
F0
ssS'SliceStep_t_C(trial_PE)[UU]_subj.2'
p1581
(dp1582
g954
F1
sg955
g956
sg957
g958
(g8
S'\xf2\xb9AvJy\xe2?'
tRp1583
sg960
F0
sg961
I01
sg962
F0
ssS'SliceStep_t_C(trial_PE)[UU]_subj.5'
p1584
(dp1585
g954
F1
sg955
g956
sg957
g958
(g8
S'\x10\xcd$\xceT2\xdc?'
tRp1586
sg960
F0
sg961
I01
sg962
F0
ssS'SliceStep_t_C(trial_PE)[UU]_subj.4'
p1587
(dp1588
g954
F1
sg955
g956
sg957
g958
(g8
S'\xf4%\xe9x\xd7\xdf\xda?'
tRp1589
sg960
F0
sg961
I01
sg962
F0
ssS'SliceStep_t_C(trial_PE)[UU]_subj.7'
p1590
(dp1591
g954
F1
sg955
g956
sg957
g958
(g8
S'\x89\x1fb3i\xb2\xe4?'
tRp1592
sg960
F0
sg961
I01
sg962
F0
ssS'SliceStep_t_C(trial_PE)[UU]_subj.6'
p1593
(dp1594
g954
F1
sg955
g956
sg957
g958
(g8
S'l\x8d\x86\xd2\xed\\\xdf?'
tRp1595
sg960
F0
sg961
I01
sg962
F0
ssS'SliceStep_v_C(trial_PE)[T.PU]:pupil_response_1'
p1596
(dp1597
g954
F1
sg955
g956
sg957
g958
(g8
S'\xc0L\xba\x12\x82\x1e\xa6='
tRp1598
sg960
F0
sg961
I01
sg962
F0
ssS'SliceStep_v_C(trial_PE)[PP]_subj.24'
p1599
(dp1600
g954
F1
sg955
g956
sg957
g958
(g8
S'$Jiw\xd2\xf5\xf0?'
tRp1601
sg960
F0
sg961
I01
sg962
F0
ssS'SliceStep_v_C(trial_PE)[PP]_subj.25'
p1602
(dp1603
g954
F1
sg955
g956
sg957
g958
(g8
S'\xc3\xdc)\xd6ob\xf8?'
tRp1604
sg960
F0
sg961
I01
sg962
F0
ssS'SliceStep_v_C(trial_PE)[PP]_subj.26'
p1605
(dp1606
g954
F1
sg955
g956
sg957
g958
(g8
S'(\xe2\xe5O(\xf6\xf8?'
tRp1607
sg960
F0
sg961
I01
sg962
F0
ssS'SliceStep_v_C(trial_PE)[PP]_subj.27'
p1608
(dp1609
g954
F1
sg955
g956
sg957
g958
(g8
S'}\xa0\xf5\x11S\x1e\xf6?'
tRp1610
sg960
F0
sg961
I01
sg962
F0
ssS'SliceStep_v_C(trial_PE)[PU]_subj.4'
p1611
(dp1612
g954
F1
sg955
g956
sg957
g958
(g8
S'YCXAg<\xfe?'
tRp1613
sg960
F0
sg961
I01
sg962
F0
ssS'SliceStep_v_C(trial_PE)[PP]_subj.21'
p1614
(dp1615
g954
F1
sg955
g956
sg957
g958
(g8
S'\xb3\x0b\xd5\xf9\x8bN\xf7?'
tRp1616
sg960
F0
sg961
I01
sg962
F0
ssS'SliceStep_v_C(trial_PE)[PP]_subj.22'
p1617
(dp1618
g954
F1
sg955
g956
sg957
g958
(g8
S'|n\xb4\x07\x12\xe0\xf9?'
tRp1619
sg960
F0
sg961
I01
sg962
F0
ssS'SliceStep_v_C(trial_PE)[PP]_subj.23'
p1620
(dp1621
g954
F1
sg955
g956
sg957
g958
(g8
S'\x7f\x16oaW\xf7\xf6?'
tRp1622
sg960
F0
sg961
I01
sg962
F0
ssS'SliceStep_v_C(trial_PE)[PP]_subj.28'
p1623
(dp1624
g954
F1
sg955
g956
sg957
g958
(g8
S'\xde3\x02\xe2W\xec\xf7?'
tRp1625
sg960
F0
sg961
I01
sg962
F0
ssS'SliceStep_v_C(trial_PE)[PP]_subj.29'
p1626
(dp1627
g954
F1
sg955
g956
sg957
g958
(g8
S'%tD%\x88\xf5\xf6?'
tRp1628
sg960
F0
sg961
I01
sg962
F0
ssS'SliceStep_t_C(trial_PE)[UP]_subj.18'
p1629
(dp1630
g954
F1
sg955
g956
sg957
g958
(g8
S'\x11\xf9=\\\xb2\x1b\xd8?'
tRp1631
sg960
F0
sg961
I01
sg962
F0
ssS'SliceStep_t_C(trial_PE)[PP]_subj.18'
p1632
(dp1633
g954
F1
sg955
g956
sg957
g958
(g8
S'$\xae\xd5c\xcd\x9b\xd6?'
tRp1634
sg960
F0
sg961
I01
sg962
F0
ssS'SliceStep_t_C(trial_PE)[PU]_subj.22'
p1635
(dp1636
g954
F1
sg955
g956
sg957
g958
(g8
S'\xe5)\x9d\x880\xa3\xdc?'
tRp1637
sg960
F0
sg961
I01
sg962
F0
ssS'SliceStep_t_C(trial_PE)[PP]_subj.13'
p1638
(dp1639
g954
F1
sg955
g956
sg957
g958
(g8
S'/%\xf8\xd8\xc1Q\xdc?'
tRp1640
sg960
F0
sg961
I01
sg962
F0
ssS'SliceStep_t_C(trial_PE)[UP]_subj.13'
p1641
(dp1642
g954
F1
sg955
g956
sg957
g958
(g8
S'\x8a\x82\xb4\xd0`\x11\xd9?'
tRp1643
sg960
F0
sg961
I01
sg962
F0
ssS'SliceStep_t_C(trial_PE)[PP]_subj.11'
p1644
(dp1645
g954
F1
sg955
g956
sg957
g958
(g8
S'\xb3\x7fl\t\x8b\x84\xdd?'
tRp1646
sg960
F0
sg961
I01
sg962
F0
ssS'SliceStep_t_C(trial_PE)[UP]_subj.11'
p1647
(dp1648
g954
F1
sg955
g956
sg957
g958
(g8
S'\xaa\x8a\xac]\xeal\xdf?'
tRp1649
sg960
F0
sg961
I01
sg962
F0
ssS'SliceStep_t_C(trial_PE)[UP]_subj.16'
p1650
(dp1651
g954
F1
sg955
g956
sg957
g958
(g8
S')X`\xaf\x02P\xd9?'
tRp1652
sg960
F0
sg961
I01
sg962
F0
ssS'SliceStep_t_C(trial_PE)[PP]_subj.16'
p1653
(dp1654
g954
F1
sg955
g956
sg957
g958
(g8
S'fv\x13EY\x14\xd7?'
tRp1655
sg960
F0
sg961
I01
sg962
F0
ssS'SliceStep_t_C(trial_PE)[PP]_subj.15'
p1656
(dp1657
g954
F1
sg955
g956
sg957
g958
(g8
S'\x05\xb2`C\xf9\xff\xd9?'
tRp1658
sg960
F0
sg961
I01
sg962
F0
ssS'SliceStep_t_C(trial_PE)[PP]_subj.14'
p1659
(dp1660
g954
F1
sg955
g956
sg957
g958
(g8
S'\xeb\xbd[\x046D\xde?'
tRp1661
sg960
F0
sg961
I01
sg962
F0
ssS'SliceStep_v_C(trial_PE)[UU]_subj.13'
p1662
(dp1663
g954
F1
sg955
g956
sg957
g958
(g8
S'0\n/V\xb6\x86\xfe?'
tRp1664
sg960
F0
sg961
I01
sg962
F0
ssS'SliceStep_v_C(trial_PE)[UU]_subj.12'
p1665
(dp1666
g954
F1
sg955
g956
sg957
g958
(g8
S'\x92\xf9\x0e\xf9\x08!\xfd?'
tRp1667
sg960
F0
sg961
I01
sg962
F0
ssS'SliceStep_v_C(trial_PE)[UU]_subj.11'
p1668
(dp1669
g954
F1
sg955
g956
sg957
g958
(g8
S'l\xd5\t)\x11\xb4\xfd?'
tRp1670
sg960
F0
sg961
I01
sg962
F0
ssS'SliceStep_v_C(trial_PE)[UU]_subj.10'
p1671
(dp1672
g954
F1
sg955
g956
sg957
g958
(g8
S'"\x90\x84\x0bJx\xfd?'
tRp1673
sg960
F0
sg961
I01
sg962
F0
ssS'SliceStep_v_C(trial_PE)[UU]_subj.17'
p1674
(dp1675
g954
F1
sg955
g956
sg957
g958
(g8
S'XkU\xa3\xd6.\xfd?'
tRp1676
sg960
F0
sg961
I01
sg962
F0
ssS'SliceStep_v_C(trial_PE)[UU]_subj.16'
p1677
(dp1678
g954
F1
sg955
g956
sg957
g958
(g8
S'\xfc\xce\xa45\x0f\x84\xfc?'
tRp1679
sg960
F0
sg961
I01
sg962
F0
ssS'SliceStep_v_C(trial_PE)[UU]_subj.15'
p1680
(dp1681
g954
F1
sg955
g956
sg957
g958
(g8
S'\xc9H\xd4-\x98\xb4\xfe?'
tRp1682
sg960
F0
sg961
I01
sg962
F0
ssS'SliceStep_v_C(trial_PE)[UU]_subj.14'
p1683
(dp1684
g954
F1
sg955
g956
sg957
g958
(g8
S';\x8cM\x95\x19S\xfd?'
tRp1685
sg960
F0
sg961
I01
sg962
F0
ssS'SliceStep_a_subj.31'
p1686
(dp1687
g954
F1
sg955
g956
sg957
g958
(g8
S'b\x88\x00\x030\xdb\x00@'
tRp1688
sg960
F0
sg961
I01
sg962
F0
ssS'SliceStep_a_subj.30'
p1689
(dp1690
g954
F1
sg955
g956
sg957
g958
(g8
S'\x1db\xb5\xd9\x9az\x05@'
tRp1691
sg960
F0
sg961
I01
sg962
F0
ssS'SliceStep_v_C(trial_PE)[UU]_subj.19'
p1692
(dp1693
g954
F1
sg955
g956
sg957
g958
(g8
S'\xc15\x99\x80\x0cH\xfc?'
tRp1694
sg960
F0
sg961
I01
sg962
F0
ssS'SliceStep_v_C(trial_PE)[UU]_subj.18'
p1695
(dp1696
g954
F1
sg955
g956
sg957
g958
(g8
S'N\x04\x00\x07R\x97\xfe?'
tRp1697
sg960
F0
sg961
I01
sg962
F0
ssS'SliceStep_a_subj.20'
p1698
(dp1699
g954
F1
sg955
g956
sg957
g958
(g8
S'%l\xf0\xa7\xf9\xf4\xfb?'
tRp1700
sg960
F0
sg961
I01
sg962
F0
ssS'SliceStep_t_C(trial_PE)[PU]_subj.20'
p1701
(dp1702
g954
F1
sg955
g956
sg957
g958
(g8
S'F\x1d\xbf\xe9\x04\xa3\xd7?'
tRp1703
sg960
F0
sg961
I01
sg962
F0
ssS'SliceStep_v_C(trial_PE)[PU]_subj.18'
p1704
(dp1705
g954
F1
sg955
g956
sg957
g958
(g8
S'O\x97\x9e\xce\xbb;\xff?'
tRp1706
sg960
F0
sg961
I01
sg962
F0
ssS'SliceStep_v_C(trial_PE)[PU]_subj.17'
p1707
(dp1708
g954
F1
sg955
g956
sg957
g958
(g8
S'\x15\xf8\x11X\xb4\xa0\xfc?'
tRp1709
sg960
F0
sg961
I01
sg962
F0
ssS'SliceStep_v_C(trial_PE)[PU]_subj.16'
p1710
(dp1711
g954
F1
sg955
g956
sg957
g958
(g8
S'\xee\xb4\x9c\x90\x81\x94\xfc?'
tRp1712
sg960
F0
sg961
I01
sg962
F0
ssS'SliceStep_t_C(trial_PE)[UU]_subj.14'
p1713
(dp1714
g954
F1
sg955
g956
sg957
g958
(g8
S'\x87\x01\x06\xa8\x97\x85\xe0?'
tRp1715
sg960
F0
sg961
I01
sg962
F0
ssS'SliceStep_t_C(trial_PE)[UP]_subj.9'
p1716
(dp1717
g954
F1
sg955
g956
sg957
g958
(g8
S'\xd2&d\x988?\xdc?'
tRp1718
sg960
F0
sg961
I01
sg962
F0
ssS'SliceStep_v_C(trial_PE)[PU]_subj.15'
p1719
(dp1720
g954
F1
sg955
g956
sg957
g958
(g8
S'F\t$\xfb\xc0\x06\xff?'
tRp1721
sg960
F0
sg961
I01
sg962
F0
ssS'SliceStep_v_C(trial_PE)[PU]_subj.12'
p1722
(dp1723
g954
F1
sg955
g956
sg957
g958
(g8
S'\xaf\xc3~>;\xdb\xfc?'
tRp1724
sg960
F0
sg961
I01
sg962
F0
ssS'SliceStep_v_C(trial_PE)[PU]_subj.13'
p1725
(dp1726
g954
F1
sg955
g956
sg957
g958
(g8
S'\xcb\xa2l\x1e\xcd=\xfe?'
tRp1727
sg960
F0
sg961
I01
sg962
F0
ssS'SliceStep_v_C(trial_PE)[PU]_subj.10'
p1728
(dp1729
g954
F1
sg955
g956
sg957
g958
(g8
S'M\x98\xa5)\xb3\x17\xfe?'
tRp1730
sg960
F0
sg961
I01
sg962
F0
ssS'SliceStep_v_C(trial_PE)[PU]_subj.11'
p1731
(dp1732
g954
F1
sg955
g956
sg957
g958
(g8
S'\rG@\xf8\xdfI\xfd?'
tRp1733
sg960
F0
sg961
I01
sg962
F0
ssS'SliceStep_t_C(trial_PE)[PU]_subj.18'
p1734
(dp1735
g954
F1
sg955
g956
sg957
g958
(g8
S'\xb9\xb7\x14\xce\xc4\xbe\xd7?'
tRp1736
sg960
F0
sg961
I01
sg962
F0
ssS'SliceStep_t_C(trial_PE)[PU]_subj.19'
p1737
(dp1738
g954
F1
sg955
g956
sg957
g958
(g8
S'M\x94\x0cW\x94@\xdd?'
tRp1739
sg960
F0
sg961
I01
sg962
F0
ssS'SliceStep_v_C(trial_PE)[UP]_subj.24'
p1740
(dp1741
g954
F1
sg955
g956
sg957
g958
(g8
S'SR\x8e\xc59A\xfb?'
tRp1742
sg960
F0
sg961
I01
sg962
F0
ssS'SliceStep_t_C(trial_PE)[PU]_subj.10'
p1743
(dp1744
g954
F1
sg955
g956
sg957
g958
(g8
S'\x0c:\xfc\x19=\x0e\xe3?'
tRp1745
sg960
F0
sg961
I01
sg962
F0
ssS'SliceStep_v_C(trial_PE)[PP]_subj.10'
p1746
(dp1747
g954
F1
sg955
g956
sg957
g958
(g8
S'\x7f\x1d\xbb\xd3\xc2\xae\xf6?'
tRp1748
sg960
F0
sg961
I01
sg962
F0
ssS'SliceStep_t_C(trial_PE)[PU]_subj.12'
p1749
(dp1750
g954
F1
sg955
g956
sg957
g958
(g8
S'\xf8\x05p\x97\xd8p\xe1?'
tRp1751
sg960
F0
sg961
I01
sg962
F0
ssS'SliceStep_t_C(trial_PE)[PU]_subj.13'
p1752
(dp1753
g954
F1
sg955
g956
sg957
g958
(g8
S'\\`\xe2\xf1\x9a\xaf\xdd?'
tRp1754
sg960
F0
sg961
I01
sg962
F0
ssS'SliceStep_v_C(trial_PE)[PP]_subj.15'
p1755
(dp1756
g954
F1
sg955
g956
sg957
g958
(g8
S'l\x84\xd6\r\x8d3\xfb?'
tRp1757
sg960
F0
sg961
I01
sg962
F0
ssS'SliceStep_t_C(trial_PE)[PU]_subj.15'
p1758
(dp1759
g954
F1
sg955
g956
sg957
g958
(g8
S'\r6\xc1\x8e}\x9e\xdf?'
tRp1760
sg960
F0
sg961
I01
sg962
F0
ssS'SliceStep_v_C(trial_PE)[PP]_subj.17'
p1761
(dp1762
g954
F1
sg955
g956
sg957
g958
(g8
S'\xbd9\xccF;F\xf6?'
tRp1763
sg960
F0
sg961
I01
sg962
F0
ssS'SliceStep_v_C(trial_PE)[PP]_subj.16'
p1764
(dp1765
g954
F1
sg955
g956
sg957
g958
(g8
S'e\xd5I\xda\x0e\x14\xf8?'
tRp1766
sg960
F0
sg961
I01
sg962
F0
ssS'SliceStep_v_C(trial_PE)[UP]_subj.10'
p1767
(dp1768
g954
F1
sg955
g956
sg957
g958
(g8
S'Y%\x82\xe1\xb3\x13\xfd?'
tRp1769
sg960
F0
sg961
I01
sg962
F0
ssS'SliceStep_v_C(trial_PE)[UP]_subj.11'
p1770
(dp1771
g954
F1
sg955
g956
sg957
g958
(g8
S'\xae\xdcn\xfe]\x0b\xfe?'
tRp1772
sg960
F0
sg961
I01
sg962
F0
ssS'SliceStep_v_C(trial_PE)[UP]_subj.12'
p1773
(dp1774
g954
F1
sg955
g956
sg957
g958
(g8
S'\x8b\xcf^\x02\xdc\x98\xfd?'
tRp1775
sg960
F0
sg961
I01
sg962
F0
ssS'SliceStep_v_C(trial_PE)[UP]_subj.13'
p1776
(dp1777
g954
F1
sg955
g956
sg957
g958
(g8
S'\xd7\xd2\xf5\xcd\x8eC\xfe?'
tRp1778
sg960
F0
sg961
I01
sg962
F0
ssS'SliceStep_v_C(trial_PE)[UP]_subj.14'
p1779
(dp1780
g954
F1
sg955
g956
sg957
g958
(g8
S'\x97\xe4\xcc\x83\xe1\x8c\xfd?'
tRp1781
sg960
F0
sg961
I01
sg962
F0
ssS'SliceStep_v_C(trial_PE)[UP]_subj.15'
p1782
(dp1783
g954
F1
sg955
g956
sg957
g958
(g8
S'R>@\x1f\xc9 \xff?'
tRp1784
sg960
F0
sg961
I01
sg962
F0
ssS'SliceStep_v_C(trial_PE)[UP]_subj.16'
p1785
(dp1786
g954
F1
sg955
g956
sg957
g958
(g8
S'/\xdb\x95\x13\x14\x04\xfd?'
tRp1787
sg960
F0
sg961
I01
sg962
F0
ssS'SliceStep_v_C(trial_PE)[UP]_subj.17'
p1788
(dp1789
g954
F1
sg955
g956
sg957
g958
(g8
S'\x0b:\xbd\xbf\xfd\xef\xfb?'
tRp1790
sg960
F0
sg961
I01
sg962
F0
ssS'SliceStep_v_C(trial_PE)[PU]_std'
p1791
(dp1792
g954
F1
sg955
g956
sg957
g958
(g8
S'\xeelZn\x19%\xb3?'
tRp1793
sg960
F0
sg961
I01
sg962
F0
ssS'SliceStep_v_C(trial_PE)[PU]_subj.19'
p1794
(dp1795
g954
F1
sg955
g956
sg957
g958
(g8
S',\x85U\x82\xf10\xfc?'
tRp1796
sg960
F0
sg961
I01
sg962
F0
ssS'SliceStep_a_subj.11'
p1797
(dp1798
g954
F1
sg955
g956
sg957
g958
(g8
S'\xa2\xe1\xcba\xe2}\x01@'
tRp1799
sg960
F0
sg961
I01
sg962
F0
ssS'SliceStep_v_C(trial_PE)[PU]_subj.7'
p1800
(dp1801
g954
F1
sg955
g956
sg957
g958
(g8
S'\xa6R/qkj\xfd?'
tRp1802
sg960
F0
sg961
I01
sg962
F0
ssS'SliceStep_t_C(trial_PE)[PU]'
p1803
(dp1804
g954
F1
sg955
g956
sg957
g958
(g8
S'-\xc3/\xe1\xd8\x9a\xdb?'
tRp1805
sg960
F0
sg961
I01
sg962
F0
ssS'SliceStep_v_C(trial_PE)[PP]_subj.19'
p1806
(dp1807
g954
F1
sg955
g956
sg957
g958
(g8
S'\x89\x84\xc3\x01-\x90\xf4?'
tRp1808
sg960
F0
sg961
I01
sg962
F0
ssS'SliceStep_v_C(trial_PE)[PU]_subj.8'
p1809
(dp1810
g954
F1
sg955
g956
sg957
g958
(g8
S'L\xef4\x8f9\xf7\xfe?'
tRp1811
sg960
F0
sg961
I01
sg962
F0
ssS'SliceStep_v_C(trial_PE)[PU]_subj.9'
p1812
(dp1813
g954
F1
sg955
g956
sg957
g958
(g8
S'[\xa4\xc2\xc6U\r\xff?'
tRp1814
sg960
F0
sg961
I01
sg962
F0
ssS'SliceStep_a_subj.28'
p1815
(dp1816
g954
F1
sg955
g956
sg957
g958
(g8
S")\xbc'%T\xbb\x02@"
tRp1817
sg960
F0
sg961
I01
sg962
F0
ssS'SliceStep_a_subj.29'
p1818
(dp1819
g954
F1
sg955
g956
sg957
g958
(g8
S'd\xc9BD\x14\xc1\xfc?'
tRp1820
sg960
F0
sg961
I01
sg962
F0
ssS'SliceStep_a_subj.26'
p1821
(dp1822
g954
F1
sg955
g956
sg957
g958
(g8
S'^oT\x92\xe6]\x01@'
tRp1823
sg960
F0
sg961
I01
sg962
F0
ssS'SliceStep_v_C(trial_PE)[PU]_subj.5'
p1824
(dp1825
g954
F1
sg955
g956
sg957
g958
(g8
S'_`\x9c\x16\xdb:\xff?'
tRp1826
sg960
F0
sg961
I01
sg962
F0
ssS'SliceStep_a_subj.24'
p1827
(dp1828
g954
F1
sg955
g956
sg957
g958
(g8
S'\x19\xb9<!\x80]\x01@'
tRp1829
sg960
F0
sg961
I01
sg962
F0
ssS'SliceStep_a_subj.25'
p1830
(dp1831
g954
F1
sg955
g956
sg957
g958
(g8
S'\x86,\xbe&\x8f\x82\x01@'
tRp1832
sg960
F0
sg961
I01
sg962
F0
ssS'SliceStep_v_C(trial_PE)[PU]_subj.0'
p1833
(dp1834
g954
F1
sg955
g956
sg957
g958
(g8
S'\xda\x1dp\x93H)\xfe?'
tRp1835
sg960
F0
sg961
I01
sg962
F0
ssS'SliceStep_v_C(trial_PE)[PU]_subj.1'
p1836
(dp1837
g954
F1
sg955
g956
sg957
g958
(g8
S'\xbaS\x92l\xdco\xff?'
tRp1838
sg960
F0
sg961
I01
sg962
F0
ssS'SliceStep_v_C(trial_PE)[PU]_subj.2'
p1839
(dp1840
g954
F1
sg955
g956
sg957
g958
(g8
S'\x05\xbbHq\xba\x1f\xfe?'
tRp1841
sg960
F0
sg961
I01
sg962
F0
ssS'SliceStep_a_subj.21'
p1842
(dp1843
g954
F1
sg955
g956
sg957
g958
(g8
S'/>dj\x85X\x02@'
tRp1844
sg960
F0
sg961
I01
sg962
F0
ssS'SliceStep_v_C(trial_PE)[UP]_subj.7'
p1845
(dp1846
g954
F1
sg955
g956
sg957
g958
(g8
S'\xf7}\xa0\t\xec\x12\xfd?'
tRp1847
sg960
F0
sg961
I01
sg962
F0
ssS'SliceStep_t_C(trial_PE)[UP]'
p1848
(dp1849
g954
F1
sg955
g956
sg957
g958
(g8
S'\xec\x83W\xdc\xd1[\xdc?'
tRp1850
sg960
F0
sg961
I01
sg962
F0
ssS'SliceStep_a'
p1851
(dp1852
g954
F1
sg955
g956
sg957
g958
(g8
S'\\\xcfv\xac\x1c\xf0\x00@'
tRp1853
sg960
F0
sg961
I01
sg962
F0
ssS'SliceStep_t_C(trial_PE)[PU]_subj.29'
p1854
(dp1855
g954
F1
sg955
g956
sg957
g958
(g8
S'PM^_\x8f\xef\xd0?'
tRp1856
sg960
F0
sg961
I01
sg962
F0
ssS'SliceStep_t_C(trial_PE)[PU]_subj.28'
p1857
(dp1858
g954
F1
sg955
g956
sg957
g958
(g8
S'\xec\xd5\xc1\x83W\xdc\xd6?'
tRp1859
sg960
F0
sg961
I01
sg962
F0
ssS'SliceStep_t_C(trial_PE)[PU]_subj.25'
p1860
(dp1861
g954
F1
sg955
g956
sg957
g958
(g8
S',\xb1\xc9\xfe\xd1\xa3\xcb?'
tRp1862
sg960
F0
sg961
I01
sg962
F0
ssS'SliceStep_t_C(trial_PE)[PP]_subj.31'
p1863
(dp1864
g954
F1
sg955
g956
sg957
g958
(g8
S'q\xc5\x18X\xefP\xcb?'
tRp1865
sg960
F0
sg961
I01
sg962
F0
ssS'SliceStep_t_C(trial_PE)[PU]_subj.27'
p1866
(dp1867
g954
F1
sg955
g956
sg957
g958
(g8
S'M\xb25\xa5\xfeZ\xd6?'
tRp1868
sg960
F0
sg961
I01
sg962
F0
ssS'SliceStep_v_C(trial_PE)[PP]_std'
p1869
(dp1870
g954
F1
sg955
g956
sg957
g958
(g8
S'T\x04\xec-r\x8b\xca?'
tRp1871
sg960
F0
sg961
I01
sg962
F0
ssS'SliceStep_t_C(trial_PE)[PU]_subj.21'
p1872
(dp1873
g954
F1
sg955
g956
sg957
g958
(g8
S'\x82\xbd\xaeI&@\xd2?'
tRp1874
sg960
F0
sg961
I01
sg962
F0
ssS'SliceStep_t_C(trial_PE)[PU]_subj.30'
p1875
(dp1876
g954
F1
sg955
g956
sg957
g958
(g8
S'\xc31\x91Y\xaa4\xdb?'
tRp1877
sg960
F0
sg961
I01
sg962
F0
ssS'SliceStep_t_C(trial_PE)[PU]_subj.23'
p1878
(dp1879
g954
F1
sg955
g956
sg957
g958
(g8
S'\xd4\nqt\x7f3\xd2?'
tRp1880
sg960
F0
sg961
I01
sg962
F0
ssS'SliceStep_v_C(trial_PE)[UP]_subj.28'
p1881
(dp1882
g954
F1
sg955
g956
sg957
g958
(g8
S'\x9b\x05I9\xae\xfd\xfc?'
tRp1883
sg960
F0
sg961
I01
sg962
F0
ssS'SliceStep_v_C(trial_PE)[UP]_subj.25'
p1884
(dp1885
g954
F1
sg955
g956
sg957
g958
(g8
S'\xc9\x06\xb3>\x98*\xfd?'
tRp1886
sg960
F0
sg961
I01
sg962
F0
ssS'SliceStep_v_C(trial_PE)[PP]_subj.11'
p1887
(dp1888
g954
F1
sg955
g956
sg957
g958
(g8
S'\xc3\x1d\x97\xd2\xca\xe6\xf9?'
tRp1889
sg960
F0
sg961
I01
sg962
F0
ssS'SliceStep_v_C(trial_PE)[UP]_subj.27'
p1890
(dp1891
g954
F1
sg955
g956
sg957
g958
(g8
S'-\xa6\xbb\x87\x0e\x1d\xfd?'
tRp1892
sg960
F0
sg961
I01
sg962
F0
ssS'SliceStep_t_C(trial_PE)[PP]_subj.8'
p1893
(dp1894
g954
F1
sg955
g956
sg957
g958
(g8
S'>\xd3\xa8w\xa2k\xde?'
tRp1895
sg960
F0
sg961
I01
sg962
F0
ssS'SliceStep_v_C(trial_PE)[UP]_subj.21'
p1896
(dp1897
g954
F1
sg955
g956
sg957
g958
(g8
S'\x84\xc6\x0e\tj\xad\xfc?'
tRp1898
sg960
F0
sg961
I01
sg962
F0
ssS'SliceStep_v_C(trial_PE)[UP]_subj.20'
p1899
(dp1900
g954
F1
sg955
g956
sg957
g958
(g8
S'\x1dVX\xfb\x9fL\xff?'
tRp1901
sg960
F0
sg961
I01
sg962
F0
ssS'SliceStep_v_C(trial_PE)[UP]_subj.23'
p1902
(dp1903
g954
F1
sg955
g956
sg957
g958
(g8
S'\xc2\x1b\x95\xe5\x8dN\xfd?'
tRp1904
sg960
F0
sg961
I01
sg962
F0
ssS'SliceStep_t_C(trial_PE)[PU]_subj.11'
p1905
(dp1906
g954
F1
sg955
g956
sg957
g958
(g8
S'\x99\xe71U\xeaH\xda?'
tRp1907
sg960
F0
sg961
I01
sg962
F0
ssS'SliceStep_v_C(trial_PE)[UP]_subj.29'
p1908
(dp1909
g954
F1
sg955
g956
sg957
g958
(g8
S'\x99\xe6\x08\x17\xb6\xd1\xfc?'
tRp1910
sg960
F0
sg961
I01
sg962
F0
ssS'SliceStep_v_C(trial_PE)[PP]_subj.13'
p1911
(dp1912
g954
F1
sg955
g956
sg957
g958
(g8
S'.\x16\x1e>\xcc\xaa\xf9?'
tRp1913
sg960
F0
sg961
I01
sg962
F0
ssS'SliceStep_v_C(trial_PE)[UP]_std'
p1914
(dp1915
g954
F1
sg955
g956
sg957
g958
(g8
S'$ \xd5JX\xf5\xb4?'
tRp1916
sg960
F0
sg961
I01
sg962
F0
ssS'SliceStep_t_C(trial_PE)[PP]_subj.32'
p1917
(dp1918
g954
F1
sg955
g956
sg957
g958
(g8
S'M\x13\xe8C\xf3!\xd7?'
tRp1919
sg960
F0
sg961
I01
sg962
F0
sssS'sampler'
p1920
(dp1921
S'status'
p1922
S'ready'
p1923
sS'_iter'
p1924
g958
(g7
(S'i8'
I0
I1
tRp1925
(I3
S'<'
NNNI-1
I-1
I0
tbS'\xa0\x86\x01\x00\x00\x00\x00\x00'
tRp1926
sS'_tune_interval'
p1927
I1000
sS'_tuned_count'
p1928
I0
sS'_tune_throughout'
p1929
I01
sS'_burn_till_tuned'
p1930
I00
sS'_current_iter'
p1931
I1
sS'_burn'
p1932
I1000
sS'_thin'
p1933
I1
sssg810
(dp1934
I0
g4
(g5
(I0
tS'b'
tRp1935
(I1
(I0
tg8
I00
S''
tbssg641
(dp1936
I0
g4
(g5
(I0
tS'b'
tRp1937
(I1
(I0
tg8
I00
S''
tbssg645
(dp1938
I0
g4
(g5
(I0
tS'b'
tRp1939
(I1
(I0
tg8
I00
S''
tbssg647
(dp1940
I0
g4
(g5
(I0
tS'b'
tRp1941
(I1
(I0
tg8
I00
S''
tbssg649
(dp1942
I0
g4
(g5
(I0
tS'b'
tRp1943
(I1
(I0
tg8
I00
S''
tbssg651
(dp1944
I0
g4
(g5
(I0
tS'b'
tRp1945
(I1
(I0
tg8
I00
S''
tbssg655
(dp1946
I0
g4
(g5
(I0
tS'b'
tRp1947
(I1
(I0
tg8
I00
S''
tbssg657
(dp1948
I0
g4
(g5
(I0
tS'b'
tRp1949
(I1
(I0
tg8
I00
S''
tbssg495
(dp1950
I0
g4
(g5
(I0
tS'b'
tRp1951
(I1
(I0
tg8
I00
S''
tbssg660
(dp1952
I0
g4
(g5
(I0
tS'b'
tRp1953
(I1
(I0
tg8
I00
S''
tbssg662
(dp1954
I0
g4
(g5
(I0
tS'b'
tRp1955
(I1
(I0
tg8
I00
S''
tbssg664
(dp1956
I0
g4
(g5
(I0
tS'b'
tRp1957
(I1
(I0
tg8
I00
S''
tbssg666
(dp1958
I0
g4
(g5
(I0
tS'b'
tRp1959
(I1
(I0
tg8
I00
S''
tbssg491
(dp1960
I0
g4
(g5
(I0
tS'b'
tRp1961
(I1
(I0
tg8
I00
S''
tbssg669
(dp1962
I0
g4
(g5
(I0
tS'b'
tRp1963
(I1
(I0
tg8
I00
S''
tbssg671
(dp1964
I0
g4
(g5
(I0
tS'b'
tRp1965
(I1
(I0
tg8
I00
S''
tbssg673
(dp1966
I0
g4
(g5
(I0
tS'b'
tRp1967
(I1
(I0
tg8
I00
S''
tbssg858
(dp1968
I0
g4
(g5
(I0
tS'b'
tRp1969
(I1
(I0
tg8
I00
S''
tbssg677
(dp1970
I0
g4
(g5
(I0
tS'b'
tRp1971
(I1
(I0
tg8
I00
S''
tbssg816
(dp1972
I0
g4
(g5
(I0
tS'b'
tRp1973
(I1
(I0
tg8
I00
S''
tbssg681
(dp1974
I0
g4
(g5
(I0
tS'b'
tRp1975
(I1
(I0
tg8
I00
S''
tbssg683
(dp1976
I0
g4
(g5
(I0
tS'b'
tRp1977
(I1
(I0
tg8
I00
S''
tbssg512
(dp1978
I0
g4
(g5
(I0
tS'b'
tRp1979
(I1
(I0
tg8
I00
S''
tbssg687
(dp1980
I0
g4
(g5
(I0
tS'b'
tRp1981
(I1
(I0
tg8
I00
S''
tbssg566
(dp1982
I0
g4
(g5
(I0
tS'b'
tRp1983
(I1
(I0
tg8
I00
S''
tbssg690
(dp1984
I0
g4
(g5
(I0
tS'b'
tRp1985
(I1
(I0
tg8
I00
S''
tbssg692
(dp1986
I0
g4
(g5
(I0
tS'b'
tRp1987
(I1
(I0
tg8
I00
S''
tbssg694
(dp1988
I0
g4
(g5
(I0
tS'b'
tRp1989
(I1
(I0
tg8
I00
S''
tbssg696
(dp1990
I0
g4
(g5
(I0
tS'b'
tRp1991
(I1
(I0
tg8
I00
S''
tbssg698
(dp1992
I0
g4
(g5
(I0
tS'b'
tRp1993
(I1
(I0
tg8
I00
S''
tbssg700
(dp1994
I0
g4
(g5
(I0
tS'b'
tRp1995
(I1
(I0
tg8
I00
S''
tbssg702
(dp1996
I0
g4
(g5
(I0
tS'b'
tRp1997
(I1
(I0
tg8
I00
S''
tbssg571
(dp1998
I0
g4
(g5
(I0
tS'b'
tRp1999
(I1
(I0
tg8
I00
S''
tbssg704
(dp2000
I0
g4
(g5
(I0
tS'b'
tRp2001
(I1
(I0
tg8
I00
S''
tbssg706
(dp2002
I0
g4
(g5
(I0
tS'b'
tRp2003
(I1
(I0
tg8
I00
S''
tbssg708
(dp2004
I0
g4
(g5
(I0
tS'b'
tRp2005
(I1
(I0
tg8
I00
S''
tbssg710
(dp2006
I0
g4
(g5
(I0
tS'b'
tRp2007
(I1
(I0
tg8
I00
S''
tbssg712
(dp2008
I0
g4
(g5
(I0
tS'b'
tRp2009
(I1
(I0
tg8
I00
S''
tbssg714
(dp2010
I0
g4
(g5
(I0
tS'b'
tRp2011
(I1
(I0
tg8
I00
S''
tbssg568
(dp2012
I0
g4
(g5
(I0
tS'b'
tRp2013
(I1
(I0
tg8
I00
S''
tbssg717
(dp2014
I0
g4
(g5
(I0
tS'b'
tRp2015
(I1
(I0
tg8
I00
S''
tbssg719
(dp2016
I0
g4
(g5
(I0
tS'b'
tRp2017
(I1
(I0
tg8
I00
S''
tbssg721
(dp2018
I0
g4
(g5
(I0
tS'b'
tRp2019
(I1
(I0
tg8
I00
S''
tbssg723
(dp2020
I0
g4
(g5
(I0
tS'b'
tRp2021
(I1
(I0
tg8
I00
S''
tbssg725
(dp2022
I0
g4
(g5
(I0
tS'b'
tRp2023
(I1
(I0
tg8
I00
S''
tbssg727
(dp2024
I0
g4
(g5
(I0
tS'b'
tRp2025
(I1
(I0
tg8
I00
S''
tbssg729
(dp2026
I0
g4
(g5
(I0
tS'b'
tRp2027
(I1
(I0
tg8
I00
S''
tbssg779
(dp2028
I0
g4
(g5
(I0
tS'b'
tRp2029
(I1
(I0
tg8
I00
S''
tbssg828
(dp2030
I0
g4
(g5
(I0
tS'b'
tRp2031
(I1
(I0
tg8
I00
S''
tbssg735
(dp2032
I0
g4
(g5
(I0
tS'b'
tRp2033
(I1
(I0
tg8
I00
S''
tbssg737
(dp2034
I0
g4
(g5
(I0
tS'b'
tRp2035
(I1
(I0
tg8
I00
S''
tbssg739
(dp2036
I0
g4
(g5
(I0
tS'b'
tRp2037
(I1
(I0
tg8
I00
S''
tbssg741
(dp2038
I0
g4
(g5
(I0
tS'b'
tRp2039
(I1
(I0
tg8
I00
S''
tbssg743
(dp2040
I0
g4
(g5
(I0
tS'b'
tRp2041
(I1
(I0
tg8
I00
S''
tbssg745
(dp2042
I0
g4
(g5
(I0
tS'b'
tRp2043
(I1
(I0
tg8
I00
S''
tbssg747
(dp2044
I0
g4
(g5
(I0
tS'b'
tRp2045
(I1
(I0
tg8
I00
S''
tbssg836
(dp2046
I0
g4
(g5
(I0
tS'b'
tRp2047
(I1
(I0
tg8
I00
S''
tbssg751
(dp2048
I0
g4
(g5
(I0
tS'b'
tRp2049
(I1
(I0
tg8
I00
S''
tbssg753
(dp2050
I0
g4
(g5
(I0
tS'b'
tRp2051
(I1
(I0
tg8
I00
S''
tbssg481
(dp2052
I0
g4
(g5
(I0
tS'b'
tRp2053
(I1
(I0
tg8
I00
S''
tbssg733
(dp2054
I0
g4
(g5
(I0
tS'b'
tRp2055
(I1
(I0
tg8
I00
S''
tbssg675
(dp2056
I0
g4
(g5
(I0
tS'b'
tRp2057
(I1
(I0
tg8
I00
S''
tbssg653
(dp2058
I0
g4
(g5
(I0
tS'b'
tRp2059
(I1
(I0
tg8
I00
S''
tbssg762
(dp2060
I0
g4
(g5
(I0
tS'b'
tRp2061
(I1
(I0
tg8
I00
S''
tbssg764
(dp2062
I0
g4
(g5
(I0
tS'b'
tRp2063
(I1
(I0
tg8
I00
S''
tbssg509
(dp2064
I0
g4
(g5
(I0
tS'b'
tRp2065
(I1
(I0
tg8
I00
S''
tbssg514
(dp2066
I0
g4
(g5
(I0
tS'b'
tRp2067
(I1
(I0
tg8
I00
S''
tbssg768
(dp2068
I0
g4
(g5
(I0
tS'b'
tRp2069
(I1
(I0
tg8
I00
S''
tbssg770
(dp2070
I0
g4
(g5
(I0
tS'b'
tRp2071
(I1
(I0
tg8
I00
S''
tbssg772
(dp2072
I0
g4
(g5
(I0
tS'b'
tRp2073
(I1
(I0
tg8
I00
S''
tbssg589
(dp2074
I0
g4
(g5
(I0
tS'b'
tRp2075
(I1
(I0
tg8
I00
S''
tbssg775
(dp2076
I0
g4
(g5
(I0
tS'b'
tRp2077
(I1
(I0
tg8
I00
S''
tbssg629
(dp2078
I0
g4
(g5
(I0
tS'b'
tRp2079
(I1
(I0
tg8
I00
S''
tbssg602
(dp2080
I0
g4
(g5
(I0
tS'b'
tRp2081
(I1
(I0
tg8
I00
S''
tbssg731
(dp2082
I0
g4
(g5
(I0
tS'b'
tRp2083
(I1
(I0
tg8
I00
S''
tbssg781
(dp2084
I0
g4
(g5
(I0
tS'b'
tRp2085
(I1
(I0
tg8
I00
S''
tbssg783
(dp2086
I0
g4
(g5
(I0
tS'b'
tRp2087
(I1
(I0
tg8
I00
S''
tbssg785
(dp2088
I0
g4
(g5
(I0
tS'b'
tRp2089
(I1
(I0
tg8
I00
S''
tbssg787
(dp2090
I0
g4
(g5
(I0
tS'b'
tRp2091
(I1
(I0
tg8
I00
S''
tbssg880
(dp2092
I0
g4
(g5
(I0
tS'b'
tRp2093
(I1
(I0
tg8
I00
S''
tbssg792
(dp2094
I0
g4
(g5
(I0
tS'b'
tRp2095
(I1
(I0
tg8
I00
S''
tbssg794
(dp2096
I0
g4
(g5
(I0
tS'b'
tRp2097
(I1
(I0
tg8
I00
S''
tbssg796
(dp2098
I0
g4
(g5
(I0
tS'b'
tRp2099
(I1
(I0
tg8
I00
S''
tbssg798
(dp2100
I0
g4
(g5
(I0
tS'b'
tRp2101
(I1
(I0
tg8
I00
S''
tbssg800
(dp2102
I0
g4
(g5
(I0
tS'b'
tRp2103
(I1
(I0
tg8
I00
S''
tbssg802
(dp2104
I0
g4
(g5
(I0
tS'b'
tRp2105
(I1
(I0
tg8
I00
S''
tbssg804
(dp2106
I0
g4
(g5
(I0
tS'b'
tRp2107
(I1
(I0
tg8
I00
S''
tbssg806
(dp2108
I0
g4
(g5
(I0
tS'b'
tRp2109
(I1
(I0
tg8
I00
S''
tbssg808
(dp2110
I0
g4
(g5
(I0
tS'b'
tRp2111
(I1
(I0
tg8
I00
S''
tbssg639
(dp2112
I0
g4
(g5
(I0
tS'b'
tRp2113
(I1
(I0
tg8
I00
S''
tbssg812
(dp2114
I0
g4
(g5
(I0
tS'b'
tRp2115
(I1
(I0
tg8
I00
S''
tbssg488
(dp2116
I0
g4
(g5
(I0
tS'b'
tRp2117
(I1
(I0
tg8
I00
S''
tbssg536
(dp2118
I0
g4
(g5
(I0
tS'b'
tRp2119
(I1
(I0
tg8
I00
S''
tbssg814
(dp2120
I0
g4
(g5
(I0
tS'b'
tRp2121
(I1
(I0
tg8
I00
S''
tbssg876
(dp2122
I0
g4
(g5
(I0
tS'b'
tRp2123
(I1
(I0
tg8
I00
S''
tbssg818
(dp2124
I0
g4
(g5
(I0
tS'b'
tRp2125
(I1
(I0
tg8
I00
S''
tbssg820
(dp2126
I0
g4
(g5
(I0
tS'b'
tRp2127
(I1
(I0
tg8
I00
S''
tbssg822
(dp2128
I0
g4
(g5
(I0
tS'b'
tRp2129
(I1
(I0
tg8
I00
S''
tbssg824
(dp2130
I0
g4
(g5
(I0
tS'b'
tRp2131
(I1
(I0
tg8
I00
S''
tbssg826
(dp2132
I0
g4
(g5
(I0
tS'b'
tRp2133
(I1
(I0
tg8
I00
S''
tbssg844
(dp2134
I0
g4
(g5
(I0
tS'b'
tRp2135
(I1
(I0
tg8
I00
S''
tbssg830
(dp2136
I0
g4
(g5
(I0
tS'b'
tRp2137
(I1
(I0
tg8
I00
S''
tbssg499
(dp2138
I0
g4
(g5
(I0
tS'b'
tRp2139
(I1
(I0
tg8
I00
S''
tbssg834
(dp2140
I0
g4
(g5
(I0
tS'b'
tRp2141
(I1
(I0
tg8
I00
S''
tbssg790
(dp2142
I0
g4
(g5
(I0
tS'b'
tRp2143
(I1
(I0
tg8
I00
S''
tbssg838
(dp2144
I0
g4
(g5
(I0
tS'b'
tRp2145
(I1
(I0
tg8
I00
S''
tbssg643
(dp2146
I0
g4
(g5
(I0
tS'b'
tRp2147
(I1
(I0
tg8
I00
S''
tbssg842
(dp2148
I0
g4
(g5
(I0
tS'b'
tRp2149
(I1
(I0
tg8
I00
S''
tbssg755
(dp2150
I0
g4
(g5
(I0
tS'b'
tRp2151
(I1
(I0
tg8
I00
S''
tbssg600
(dp2152
I0
g4
(g5
(I0
tS'b'
tRp2153
(I1
(I0
tg8
I00
S''
tbssg848
(dp2154
I0
g4
(g5
(I0
tS'b'
tRp2155
(I1
(I0
tg8
I00
S''
tbssg850
(dp2156
I0
g4
(g5
(I0
tS'b'
tRp2157
(I1
(I0
tg8
I00
S''
tbssg852
(dp2158
I0
g4
(g5
(I0
tS'b'
tRp2159
(I1
(I0
tg8
I00
S''
tbssg554
(dp2160
I0
g4
(g5
(I0
tS'b'
tRp2161
(I1
(I0
tg8
I00
S''
tbssg854
(dp2162
I0
g4
(g5
(I0
tS'b'
tRp2163
(I1
(I0
tg8
I00
S''
tbssg856
(dp2164
I0
g4
(g5
(I0
tS'b'
tRp2165
(I1
(I0
tg8
I00
S''
tbssg832
(dp2166
I0
g4
(g5
(I0
tS'b'
tRp2167
(I1
(I0
tg8
I00
S''
tbssg860
(dp2168
I0
g4
(g5
(I0
tS'b'
tRp2169
(I1
(I0
tg8
I00
S''
tbssg862
(dp2170
I0
g4
(g5
(I0
tS'b'
tRp2171
(I1
(I0
tg8
I00
S''
tbssg864
(dp2172
I0
g4
(g5
(I0
tS'b'
tRp2173
(I1
(I0
tg8
I00
S''
tbssg866
(dp2174
I0
g4
(g5
(I0
tS'b'
tRp2175
(I1
(I0
tg8
I00
S''
tbssg868
(dp2176
I0
g4
(g5
(I0
tS'b'
tRp2177
(I1
(I0
tg8
I00
S''
tbssg870
(dp2178
I0
g4
(g5
(I0
tS'b'
tRp2179
(I1
(I0
tg8
I00
S''
tbssg872
(dp2180
I0
g4
(g5
(I0
tS'b'
tRp2181
(I1
(I0
tg8
I00
S''
tbssg874
(dp2182
I0
g4
(g5
(I0
tS'b'
tRp2183
(I1
(I0
tg8
I00
S''
tbssg520
(dp2184
I0
g4
(g5
(I0
tS'b'
tRp2185
(I1
(I0
tg8
I00
S''
tbssg878
(dp2186
I0
g4
(g5
(I0
tS'b'
tRp2187
(I1
(I0
tg8
I00
S''
tbssg615
(dp2188
I0
g4
(g5
(I0
tS'b'
tRp2189
(I1
(I0
tg8
I00
S''
tbssg882
(dp2190
I0
g4
(g5
(I0
tS'b'
tRp2191
(I1
(I0
tg8
I00
S''
tbssg759
(dp2192
I0
g4
(g5
(I0
tS'b'
tRp2193
(I1
(I0
tg8
I00
S''
tbssg886
(dp2194
I0
g4
(g5
(I0
tS'b'
tRp2195
(I1
(I0
tg8
I00
S''
tbssg556
(dp2196
I0
g4
(g5
(I0
tS'b'
tRp2197
(I1
(I0
tg8
I00
S''
tbssg889
(dp2198
I0
g4
(g5
(I0
tS'b'
tRp2199
(I1
(I0
tg8
I00
S''
tbssg891
(dp2200
I0
g4
(g5
(I0
tS'b'
tRp2201
(I1
(I0
tg8
I00
S''
tbssg637
(dp2202
I0
g4
(g5
(I0
tS'b'
tRp2203
(I1
(I0
tg8
I00
S''
tbssg894
(dp2204
I0
g4
(g5
(I0
tS'b'
tRp2205
(I1
(I0
tg8
I00
S''
tbssg884
(dp2206
I0
g4
(g5
(I0
tS'b'
tRp2207
(I1
(I0
tg8
I00
S''
tbssg897
(dp2208
I0
g4
(g5
(I0
tS'b'
tRp2209
(I1
(I0
tg8
I00
S''
tbssg582
(dp2210
I0
g4
(g5
(I0
tS'b'
tRp2211
(I1
(I0
tg8
I00
S''
tbssg577
(dp2212
I0
g4
(g5
(I0
tS'b'
tRp2213
(I1
(I0
tg8
I00
S''
tbssg902
(dp2214
I0
g4
(g5
(I0
tS'b'
tRp2215
(I1
(I0
tg8
I00
S''
tbssg840
(dp2216
I0
g4
(g5
(I0
tS'b'
tRp2217
(I1
(I0
tg8
I00
S''
tbssg904
(dp2218
I0
g4
(g5
(I0
tS'b'
tRp2219
(I1
(I0
tg8
I00
S''
tbssg906
(dp2220
I0
g4
(g5
(I0
tS'b'
tRp2221
(I1
(I0
tg8
I00
S''
tbssg908
(dp2222
I0
g4
(g5
(I0
tS'b'
tRp2223
(I1
(I0
tg8
I00
S''
tbssg910
(dp2224
I0
g4
(g5
(I0
tS'b'
tRp2225
(I1
(I0
tg8
I00
S''
tbssg912
(dp2226
I0
g4
(g5
(I0
tS'b'
tRp2227
(I1
(I0
tg8
I00
S''
tbssg914
(dp2228
I0
g4
(g5
(I0
tS'b'
tRp2229
(I1
(I0
tg8
I00
S''
tbssg916
(dp2230
I0
g4
(g5
(I0
tS'b'
tRp2231
(I1
(I0
tg8
I00
S''
tbssg918
(dp2232
I0
g4
(g5
(I0
tS'b'
tRp2233
(I1
(I0
tg8
I00
S''
tbssg757
(dp2234
I0
g4
(g5
(I0
tS'b'
tRp2235
(I1
(I0
tg8
I00
S''
tbssg749
(dp2236
I0
g4
(g5
(I0
tS'b'
tRp2237
(I1
(I0
tg8
I00
S''
tbssg923
(dp2238
I0
g4
(g5
(I0
tS'b'
tRp2239
(I1
(I0
tg8
I00
S''
tbssg846
(dp2240
I0
g4
(g5
(I0
tS'b'
tRp2241
(I1
(I0
tg8
I00
S''
tbssg925
(dp2242
I0
g4
(g5
(I0
tS'b'
tRp2243
(I1
(I0
tg8
I00
S''
tbssg927
(dp2244
I0
g4
(g5
(I0
tS'b'
tRp2245
(I1
(I0
tg8
I00
S''
tbssg929
(dp2246
I0
g4
(g5
(I0
tS'b'
tRp2247
(I1
(I0
tg8
I00
S''
tbssg540
(dp2248
I0
g4
(g5
(I0
tS'b'
tRp2249
(I1
(I0
tg8
I00
S''
tbssS'a'
(dp2250
I0
g4
(g5
(I0
tS'b'
tRp2251
(I1
(I0
tg8
I00
S''
tbssg685
(dp2252
I0
g4
(g5
(I0
tS'b'
tRp2253
(I1
(I0
tg8
I00
S''
tbssg679
(dp2254
I0
g4
(g5
(I0
tS'b'
tRp2255
(I1
(I0
tg8
I00
S''
tbssg936
(dp2256
I0
g4
(g5
(I0
tS'b'
tRp2257
(I1
(I0
tg8
I00
S''
tbssg532
(dp2258
I0
g4
(g5
(I0
tS'b'
tRp2259
(I1
(I0
tg8
I00
S''
tbssg777
(dp2260
I0
g4
(g5
(I0
tS'b'
tRp2261
(I1
(I0
tg8
I00
S''
tbssg939
(dp2262
I0
g4
(g5
(I0
tS'b'
tRp2263
(I1
(I0
tg8
I00
S''
tbssg921
(dp2264
I0
g4
(g5
(I0
tS'b'
tRp2265
(I1
(I0
tg8
I00
S''
tbssg899
(dp2266
I0
g4
(g5
(I0
tS'b'
tRp2267
(I1
(I0
tg8
I00
S''
tbssg942
(dp2268
I0
g4
(g5
(I0
tS'b'
tRp2269
(I1
(I0
tg8
I00
S''
tbssg944
(dp2270
I0
g4
(g5
(I0
tS'b'
tRp2271
(I1
(I0
tg8
I00
S''
tbssg946
(dp2272
I0
g4
(g5
(I0
tS'b'
tRp2273
(I1
(I0
tg8
I00
S''
tbssg948
(dp2274
I0
g4
(g5
(I0
tS'b'
tRp2275
(I1
(I0
tg8
I00
S''
tbss.