(dp1
S't_C(trial_PE)[UP]_subj.19'
p2
(dp3
I0
cnumpy.core.multiarray
_reconstruct
p4
(cnumpy
ndarray
p5
(I0
tS'b'
tRp6
(I1
(I0
tcnumpy
dtype
p7
(S'f8'
I0
I1
tRp8
(I3
S'<'
NNNI-1
I-1
I0
tbI00
S''
tbssS't_C(trial_PE)[UP]_subj.18'
p9
(dp10
I0
g4
(g5
(I0
tS'b'
tRp11
(I1
(I0
tg8
I00
S''
tbssS't_C(trial_PE)[UP]_subj.15'
p12
(dp13
I0
g4
(g5
(I0
tS'b'
tRp14
(I1
(I0
tg8
I00
S''
tbssS't_C(trial_PE)[UP]_subj.14'
p15
(dp16
I0
g4
(g5
(I0
tS'b'
tRp17
(I1
(I0
tg8
I00
S''
tbssS't_C(trial_PE)[UP]_subj.17'
p18
(dp19
I0
g4
(g5
(I0
tS'b'
tRp20
(I1
(I0
tg8
I00
S''
tbssS't_C(trial_PE)[UP]_subj.16'
p21
(dp22
I0
g4
(g5
(I0
tS'b'
tRp23
(I1
(I0
tg8
I00
S''
tbssS't_C(trial_PE)[UP]_subj.11'
p24
(dp25
I0
g4
(g5
(I0
tS'b'
tRp26
(I1
(I0
tg8
I00
S''
tbssS't_C(trial_PE)[UP]_subj.10'
p27
(dp28
I0
g4
(g5
(I0
tS'b'
tRp29
(I1
(I0
tg8
I00
S''
tbssS't_C(trial_PE)[UP]_subj.13'
p30
(dp31
I0
g4
(g5
(I0
tS'b'
tRp32
(I1
(I0
tg8
I00
S''
tbssS't_C(trial_PE)[UP]_subj.12'
p33
(dp34
I0
g4
(g5
(I0
tS'b'
tRp35
(I1
(I0
tg8
I00
S''
tbssS't_C(trial_PE)[PP]_subj.32'
p36
(dp37
I0
g4
(g5
(I0
tS'b'
tRp38
(I1
(I0
tg8
I00
S''
tbssS't_C(trial_PE)[PP]_subj.30'
p39
(dp40
I0
g4
(g5
(I0
tS'b'
tRp41
(I1
(I0
tg8
I00
S''
tbssS't_C(trial_PE)[PP]_subj.31'
p42
(dp43
I0
g4
(g5
(I0
tS'b'
tRp44
(I1
(I0
tg8
I00
S''
tbssS'v_C(trial_PE)[PU]'
p45
(dp46
I0
g4
(g5
(I0
tS'b'
tRp47
(I1
(I0
tg8
I00
S''
tbssS'v_C(trial_PE)[UU]_subj.21'
p48
(dp49
I0
g4
(g5
(I0
tS'b'
tRp50
(I1
(I0
tg8
I00
S''
tbssS'v_C(trial_PE)[UU]_subj.20'
p51
(dp52
I0
g4
(g5
(I0
tS'b'
tRp53
(I1
(I0
tg8
I00
S''
tbssS'v_C(trial_PE)[UP]_subj.28'
p54
(dp55
I0
g4
(g5
(I0
tS'b'
tRp56
(I1
(I0
tg8
I00
S''
tbssS'v_C(trial_PE)[UU]_subj.22'
p57
(dp58
I0
g4
(g5
(I0
tS'b'
tRp59
(I1
(I0
tg8
I00
S''
tbssS'v_C(trial_PE)[UU]_subj.25'
p60
(dp61
I0
g4
(g5
(I0
tS'b'
tRp62
(I1
(I0
tg8
I00
S''
tbssS'v_C(trial_PE)[UU]_subj.24'
p63
(dp64
I0
g4
(g5
(I0
tS'b'
tRp65
(I1
(I0
tg8
I00
S''
tbssS'v_C(trial_PE)[UU]_subj.27'
p66
(dp67
I0
g4
(g5
(I0
tS'b'
tRp68
(I1
(I0
tg8
I00
S''
tbssS'v_C(trial_PE)[UU]_subj.26'
p69
(dp70
I0
g4
(g5
(I0
tS'b'
tRp71
(I1
(I0
tg8
I00
S''
tbssS'v_C(trial_PE)[UU]_subj.29'
p72
(dp73
I0
g4
(g5
(I0
tS'b'
tRp74
(I1
(I0
tg8
I00
S''
tbssS'v_C(trial_PE)[UU]_subj.28'
p75
(dp76
I0
g4
(g5
(I0
tS'b'
tRp77
(I1
(I0
tg8
I00
S''
tbssS'v_C(trial_PE)[UP]_subj.20'
p78
(dp79
I0
g4
(g5
(I0
tS'b'
tRp80
(I1
(I0
tg8
I00
S''
tbssS'v_C(trial_PE)[UP]_subj.21'
p81
(dp82
I0
g4
(g5
(I0
tS'b'
tRp83
(I1
(I0
tg8
I00
S''
tbssS'v_C(trial_PE)[UP]_subj.26'
p84
(dp85
I0
g4
(g5
(I0
tS'b'
tRp86
(I1
(I0
tg8
I00
S''
tbssS'v_C(trial_PE)[UP]_subj.27'
p87
(dp88
I0
g4
(g5
(I0
tS'b'
tRp89
(I1
(I0
tg8
I00
S''
tbssS'v_C(trial_PE)[UP]_subj.24'
p90
(dp91
I0
g4
(g5
(I0
tS'b'
tRp92
(I1
(I0
tg8
I00
S''
tbssS'v_C(trial_PE)[UP]_subj.25'
p93
(dp94
I0
g4
(g5
(I0
tS'b'
tRp95
(I1
(I0
tg8
I00
S''
tbssS't_C(trial_PE)[PU]_std'
p96
(dp97
I0
g4
(g5
(I0
tS'b'
tRp98
(I1
(I0
tg8
I00
S''
tbssS'a_subj.32'
p99
(dp100
I0
g4
(g5
(I0
tS'b'
tRp101
(I1
(I0
tg8
I00
S''
tbssS'a_subj.30'
p102
(dp103
I0
g4
(g5
(I0
tS'b'
tRp104
(I1
(I0
tg8
I00
S''
tbssS'a_subj.31'
p105
(dp106
I0
g4
(g5
(I0
tS'b'
tRp107
(I1
(I0
tg8
I00
S''
tbssS't_C(trial_PE)[UP]_subj.32'
p108
(dp109
I0
g4
(g5
(I0
tS'b'
tRp110
(I1
(I0
tg8
I00
S''
tbssS'v_C(trial_PE)[PU]_subj.32'
p111
(dp112
I0
g4
(g5
(I0
tS'b'
tRp113
(I1
(I0
tg8
I00
S''
tbssS'v_C(trial_PE)[PU]_subj.31'
p114
(dp115
I0
g4
(g5
(I0
tS'b'
tRp116
(I1
(I0
tg8
I00
S''
tbssS'v_C(trial_PE)[PU]_subj.30'
p117
(dp118
I0
g4
(g5
(I0
tS'b'
tRp119
(I1
(I0
tg8
I00
S''
tbssS'v_C(trial_PE)[UU]'
p120
(dp121
I0
g4
(g5
(I0
tS'b'
tRp122
(I1
(I0
tg8
I00
S''
tbssS'v_C(trial_PE)[T.PU]:pupil_response_1'
p123
(dp124
I0
g4
(g5
(I0
tS'b'
tRp125
(I1
(I0
tg8
I00
S''
tbssS't_C(trial_PE)[PP]_subj.6'
p126
(dp127
I0
g4
(g5
(I0
tS'b'
tRp128
(I1
(I0
tg8
I00
S''
tbssS't_C(trial_PE)[PP]_subj.7'
p129
(dp130
I0
g4
(g5
(I0
tS'b'
tRp131
(I1
(I0
tg8
I00
S''
tbssS't_C(trial_PE)[PP]_subj.4'
p132
(dp133
I0
g4
(g5
(I0
tS'b'
tRp134
(I1
(I0
tg8
I00
S''
tbssS't_C(trial_PE)[PP]_subj.5'
p135
(dp136
I0
g4
(g5
(I0
tS'b'
tRp137
(I1
(I0
tg8
I00
S''
tbssS't_reg.18'
p138
(dp139
I0
g4
(g5
(I0
tS'b'
tRp140
(I1
(I0
I599
I1
tg8
I00
S''
tbssS't_C(trial_PE)[PP]_subj.3'
p141
(dp142
I0
g4
(g5
(I0
tS'b'
tRp143
(I1
(I0
tg8
I00
S''
tbssS't_C(trial_PE)[PP]_subj.0'
p144
(dp145
I0
g4
(g5
(I0
tS'b'
tRp146
(I1
(I0
tg8
I00
S''
tbssS't_C(trial_PE)[PP]_subj.1'
p147
(dp148
I0
g4
(g5
(I0
tS'b'
tRp149
(I1
(I0
tg8
I00
S''
tbssS't_reg.14'
p150
(dp151
I0
g4
(g5
(I0
tS'b'
tRp152
(I1
(I0
I589
I1
tg8
I00
S''
tbssS't_reg.15'
p153
(dp154
I0
g4
(g5
(I0
tS'b'
tRp155
(I1
(I0
I320
I1
tg8
I00
S''
tbssS't_reg.16'
p156
(dp157
I0
g4
(g5
(I0
tS'b'
tRp158
(I1
(I0
I465
I1
tg8
I00
S''
tbssS't_reg.17'
p159
(dp160
I0
g4
(g5
(I0
tS'b'
tRp161
(I1
(I0
I597
I1
tg8
I00
S''
tbssS't_reg.10'
p162
(dp163
I0
g4
(g5
(I0
tS'b'
tRp164
(I1
(I0
I297
I1
tg8
I00
S''
tbssS't_reg.11'
p165
(dp166
I0
g4
(g5
(I0
tS'b'
tRp167
(I1
(I0
I299
I1
tg8
I00
S''
tbssS't_reg.12'
p168
(dp169
I0
g4
(g5
(I0
tS'b'
tRp170
(I1
(I0
I320
I1
tg8
I00
S''
tbssS't_reg.13'
p171
(dp172
I0
g4
(g5
(I0
tS'b'
tRp173
(I1
(I0
I319
I1
tg8
I00
S''
tbssS'v_reg.29'
p174
(dp175
I0
g4
(g5
(I0
tS'b'
tRp176
(I1
(I0
I598
I1
tg8
I00
S''
tbssS'v_reg.28'
p177
(dp178
I0
g4
(g5
(I0
tS'b'
tRp179
(I1
(I0
I594
I1
tg8
I00
S''
tbssS'v_reg.27'
p180
(dp181
I0
g4
(g5
(I0
tS'b'
tRp182
(I1
(I0
I470
I1
tg8
I00
S''
tbssS'v_reg.26'
p183
(dp184
I0
g4
(g5
(I0
tS'b'
tRp185
(I1
(I0
I573
I1
tg8
I00
S''
tbssS'v_reg.25'
p186
(dp187
I0
g4
(g5
(I0
tS'b'
tRp188
(I1
(I0
I397
I1
tg8
I00
S''
tbssS'v_reg.24'
p189
(dp190
I0
g4
(g5
(I0
tS'b'
tRp191
(I1
(I0
I574
I1
tg8
I00
S''
tbssS'v_reg.23'
p192
(dp193
I0
g4
(g5
(I0
tS'b'
tRp194
(I1
(I0
I599
I1
tg8
I00
S''
tbssS'v_reg.22'
p195
(dp196
I0
g4
(g5
(I0
tS'b'
tRp197
(I1
(I0
I394
I1
tg8
I00
S''
tbssS'v_reg.21'
p198
(dp199
I0
g4
(g5
(I0
tS'b'
tRp200
(I1
(I0
I374
I1
tg8
I00
S''
tbssS'v_reg.20'
p201
(dp202
I0
g4
(g5
(I0
tS'b'
tRp203
(I1
(I0
I361
I1
tg8
I00
S''
tbssS't_C(trial_PE)[UU]_subj.16'
p204
(dp205
I0
g4
(g5
(I0
tS'b'
tRp206
(I1
(I0
tg8
I00
S''
tbssS't_C(trial_PE)[UU]_subj.17'
p207
(dp208
I0
g4
(g5
(I0
tS'b'
tRp209
(I1
(I0
tg8
I00
S''
tbssS't_C(trial_PE)[UU]_subj.14'
p210
(dp211
I0
g4
(g5
(I0
tS'b'
tRp212
(I1
(I0
tg8
I00
S''
tbssS't_C(trial_PE)[UU]_subj.15'
p213
(dp214
I0
g4
(g5
(I0
tS'b'
tRp215
(I1
(I0
tg8
I00
S''
tbssS't_C(trial_PE)[UU]_subj.12'
p216
(dp217
I0
g4
(g5
(I0
tS'b'
tRp218
(I1
(I0
tg8
I00
S''
tbssS't_C(trial_PE)[UU]_subj.13'
p219
(dp220
I0
g4
(g5
(I0
tS'b'
tRp221
(I1
(I0
tg8
I00
S''
tbssS't_C(trial_PE)[UU]_subj.10'
p222
(dp223
I0
g4
(g5
(I0
tS'b'
tRp224
(I1
(I0
tg8
I00
S''
tbssS't_C(trial_PE)[UU]_subj.11'
p225
(dp226
I0
g4
(g5
(I0
tS'b'
tRp227
(I1
(I0
tg8
I00
S''
tbssS't_C(trial_PE)[UU]_subj.18'
p228
(dp229
I0
g4
(g5
(I0
tS'b'
tRp230
(I1
(I0
tg8
I00
S''
tbssS't_C(trial_PE)[UU]_subj.19'
p231
(dp232
I0
g4
(g5
(I0
tS'b'
tRp233
(I1
(I0
tg8
I00
S''
tbssS'v_C(trial_PE)[PP]_subj.18'
p234
(dp235
I0
g4
(g5
(I0
tS'b'
tRp236
(I1
(I0
tg8
I00
S''
tbssS'v_C(trial_PE)[PP]_subj.19'
p237
(dp238
I0
g4
(g5
(I0
tS'b'
tRp239
(I1
(I0
tg8
I00
S''
tbssS'v_C(trial_PE)[PP]_subj.16'
p240
(dp241
I0
g4
(g5
(I0
tS'b'
tRp242
(I1
(I0
tg8
I00
S''
tbssS'v_C(trial_PE)[PP]_subj.17'
p243
(dp244
I0
g4
(g5
(I0
tS'b'
tRp245
(I1
(I0
tg8
I00
S''
tbssS'v_C(trial_PE)[PP]_subj.14'
p246
(dp247
I0
g4
(g5
(I0
tS'b'
tRp248
(I1
(I0
tg8
I00
S''
tbssS'v_C(trial_PE)[PP]_subj.15'
p249
(dp250
I0
g4
(g5
(I0
tS'b'
tRp251
(I1
(I0
tg8
I00
S''
tbssS'v_C(trial_PE)[PP]_subj.12'
p252
(dp253
I0
g4
(g5
(I0
tS'b'
tRp254
(I1
(I0
tg8
I00
S''
tbssS'v_C(trial_PE)[PP]_subj.13'
p255
(dp256
I0
g4
(g5
(I0
tS'b'
tRp257
(I1
(I0
tg8
I00
S''
tbssS'v_C(trial_PE)[PP]_subj.10'
p258
(dp259
I0
g4
(g5
(I0
tS'b'
tRp260
(I1
(I0
tg8
I00
S''
tbssS'v_C(trial_PE)[PP]_subj.11'
p261
(dp262
I0
g4
(g5
(I0
tS'b'
tRp263
(I1
(I0
tg8
I00
S''
tbssS't_C(trial_PE)[PU]_subj.13'
p264
(dp265
I0
g4
(g5
(I0
tS'b'
tRp266
(I1
(I0
tg8
I00
S''
tbssS't_C(trial_PE)[PU]_subj.12'
p267
(dp268
I0
g4
(g5
(I0
tS'b'
tRp269
(I1
(I0
tg8
I00
S''
tbssS't_C(trial_PE)[PU]_subj.11'
p270
(dp271
I0
g4
(g5
(I0
tS'b'
tRp272
(I1
(I0
tg8
I00
S''
tbssS't_C(trial_PE)[PU]_subj.10'
p273
(dp274
I0
g4
(g5
(I0
tS'b'
tRp275
(I1
(I0
tg8
I00
S''
tbssS't_C(trial_PE)[PU]_subj.17'
p276
(dp277
I0
g4
(g5
(I0
tS'b'
tRp278
(I1
(I0
tg8
I00
S''
tbssS't_C(trial_PE)[PU]_subj.16'
p279
(dp280
I0
g4
(g5
(I0
tS'b'
tRp281
(I1
(I0
tg8
I00
S''
tbssS't_C(trial_PE)[PU]_subj.15'
p282
(dp283
I0
g4
(g5
(I0
tS'b'
tRp284
(I1
(I0
tg8
I00
S''
tbssS't_C(trial_PE)[PU]_subj.14'
p285
(dp286
I0
g4
(g5
(I0
tS'b'
tRp287
(I1
(I0
tg8
I00
S''
tbssS't_C(trial_PE)[PU]_subj.19'
p288
(dp289
I0
g4
(g5
(I0
tS'b'
tRp290
(I1
(I0
tg8
I00
S''
tbssS't_C(trial_PE)[PU]_subj.18'
p291
(dp292
I0
g4
(g5
(I0
tS'b'
tRp293
(I1
(I0
tg8
I00
S''
tbssS't_C(trial_PE)[PP]_std'
p294
(dp295
I0
g4
(g5
(I0
tS'b'
tRp296
(I1
(I0
tg8
I00
S''
tbssS'a'
(dp297
I0
g4
(g5
(I0
tS'b'
tRp298
(I1
(I0
tg8
I00
S''
tbssS'sv'
p299
(dp300
I0
g4
(g5
(I0
tS'b'
tRp301
(I1
(I0
tg8
I00
S''
tbssS't_C(trial_PE)[UP]_std'
p302
(dp303
I0
g4
(g5
(I0
tS'b'
tRp304
(I1
(I0
tg8
I00
S''
tbssS't_reg.8'
p305
(dp306
I0
g4
(g5
(I0
tS'b'
tRp307
(I1
(I0
I300
I1
tg8
I00
S''
tbssS't_reg.9'
p308
(dp309
I0
g4
(g5
(I0
tS'b'
tRp310
(I1
(I0
I299
I1
tg8
I00
S''
tbssS't_reg.2'
p311
(dp312
I0
g4
(g5
(I0
tS'b'
tRp313
(I1
(I0
I285
I1
tg8
I00
S''
tbssS't_reg.3'
p314
(dp315
I0
g4
(g5
(I0
tS'b'
tRp316
(I1
(I0
I199
I1
tg8
I00
S''
tbssS't_reg.0'
p317
(dp318
I0
g4
(g5
(I0
tS'b'
tRp319
(I1
(I0
I298
I1
tg8
I00
S''
tbssS't_reg.1'
p320
(dp321
I0
g4
(g5
(I0
tS'b'
tRp322
(I1
(I0
I299
I1
tg8
I00
S''
tbssS't_reg.6'
p323
(dp324
I0
g4
(g5
(I0
tS'b'
tRp325
(I1
(I0
I299
I1
tg8
I00
S''
tbssS't_reg.7'
p326
(dp327
I0
g4
(g5
(I0
tS'b'
tRp328
(I1
(I0
I264
I1
tg8
I00
S''
tbssS't_reg.4'
p329
(dp330
I0
g4
(g5
(I0
tS'b'
tRp331
(I1
(I0
I300
I1
tg8
I00
S''
tbssS't_reg.5'
p332
(dp333
I0
g4
(g5
(I0
tS'b'
tRp334
(I1
(I0
I300
I1
tg8
I00
S''
tbssS'v_C(trial_PE)[UP]_subj.9'
p335
(dp336
I0
g4
(g5
(I0
tS'b'
tRp337
(I1
(I0
tg8
I00
S''
tbssS'v_C(trial_PE)[UP]_subj.8'
p338
(dp339
I0
g4
(g5
(I0
tS'b'
tRp340
(I1
(I0
tg8
I00
S''
tbssS't_C(trial_PE)[UU]_subj.8'
p341
(dp342
I0
g4
(g5
(I0
tS'b'
tRp343
(I1
(I0
tg8
I00
S''
tbssS't_C(trial_PE)[UU]_subj.9'
p344
(dp345
I0
g4
(g5
(I0
tS'b'
tRp346
(I1
(I0
tg8
I00
S''
tbssS't_C(trial_PE)[UU]_subj.4'
p347
(dp348
I0
g4
(g5
(I0
tS'b'
tRp349
(I1
(I0
tg8
I00
S''
tbssS't_C(trial_PE)[UU]_subj.5'
p350
(dp351
I0
g4
(g5
(I0
tS'b'
tRp352
(I1
(I0
tg8
I00
S''
tbssS'v_C(trial_PE)[UP]_subj.1'
p353
(dp354
I0
g4
(g5
(I0
tS'b'
tRp355
(I1
(I0
tg8
I00
S''
tbssS't_C(trial_PE)[UU]_subj.7'
p356
(dp357
I0
g4
(g5
(I0
tS'b'
tRp358
(I1
(I0
tg8
I00
S''
tbssS't_C(trial_PE)[UU]_subj.0'
p359
(dp360
I0
g4
(g5
(I0
tS'b'
tRp361
(I1
(I0
tg8
I00
S''
tbssS't_C(trial_PE)[UU]_subj.1'
p362
(dp363
I0
g4
(g5
(I0
tS'b'
tRp364
(I1
(I0
tg8
I00
S''
tbssS't_C(trial_PE)[UU]_subj.2'
p365
(dp366
I0
g4
(g5
(I0
tS'b'
tRp367
(I1
(I0
tg8
I00
S''
tbssS't_C(trial_PE)[UU]_subj.3'
p368
(dp369
I0
g4
(g5
(I0
tS'b'
tRp370
(I1
(I0
tg8
I00
S''
tbssS'v_C(trial_PE)[UU]_subj.23'
p371
(dp372
I0
g4
(g5
(I0
tS'b'
tRp373
(I1
(I0
tg8
I00
S''
tbssS'v_C(trial_PE)[UP]_subj.29'
p374
(dp375
I0
g4
(g5
(I0
tS'b'
tRp376
(I1
(I0
tg8
I00
S''
tbssS'v_C(trial_PE)[UP]_subj.22'
p377
(dp378
I0
g4
(g5
(I0
tS'b'
tRp379
(I1
(I0
tg8
I00
S''
tbssS'v_C(trial_PE)[UP]_subj.23'
p380
(dp381
I0
g4
(g5
(I0
tS'b'
tRp382
(I1
(I0
tg8
I00
S''
tbssS'v_C(trial_PE)[PU]_std'
p383
(dp384
I0
g4
(g5
(I0
tS'b'
tRp385
(I1
(I0
tg8
I00
S''
tbssS'a_std'
p386
(dp387
I0
g4
(g5
(I0
tS'b'
tRp388
(I1
(I0
tg8
I00
S''
tbssS'v_reg.8'
p389
(dp390
I0
g4
(g5
(I0
tS'b'
tRp391
(I1
(I0
I300
I1
tg8
I00
S''
tbssS'v_reg.9'
p392
(dp393
I0
g4
(g5
(I0
tS'b'
tRp394
(I1
(I0
I299
I1
tg8
I00
S''
tbssS'v_reg.0'
p395
(dp396
I0
g4
(g5
(I0
tS'b'
tRp397
(I1
(I0
I298
I1
tg8
I00
S''
tbssS'v_reg.1'
p398
(dp399
I0
g4
(g5
(I0
tS'b'
tRp400
(I1
(I0
I299
I1
tg8
I00
S''
tbssS'v_reg.2'
p401
(dp402
I0
g4
(g5
(I0
tS'b'
tRp403
(I1
(I0
I285
I1
tg8
I00
S''
tbssS'v_reg.3'
p404
(dp405
I0
g4
(g5
(I0
tS'b'
tRp406
(I1
(I0
I199
I1
tg8
I00
S''
tbssS'v_reg.4'
p407
(dp408
I0
g4
(g5
(I0
tS'b'
tRp409
(I1
(I0
I300
I1
tg8
I00
S''
tbssS'v_reg.5'
p410
(dp411
I0
g4
(g5
(I0
tS'b'
tRp412
(I1
(I0
I300
I1
tg8
I00
S''
tbssS'v_reg.6'
p413
(dp414
I0
g4
(g5
(I0
tS'b'
tRp415
(I1
(I0
I299
I1
tg8
I00
S''
tbssS'v_reg.7'
p416
(dp417
I0
g4
(g5
(I0
tS'b'
tRp418
(I1
(I0
I264
I1
tg8
I00
S''
tbssS'v_C(trial_PE)[UU]_subj.32'
p419
(dp420
I0
g4
(g5
(I0
tS'b'
tRp421
(I1
(I0
tg8
I00
S''
tbssS'v_C(trial_PE)[UU]_subj.30'
p422
(dp423
I0
g4
(g5
(I0
tS'b'
tRp424
(I1
(I0
tg8
I00
S''
tbssS'v_C(trial_PE)[UU]_subj.31'
p425
(dp426
I0
g4
(g5
(I0
tS'b'
tRp427
(I1
(I0
tg8
I00
S''
tbssS'v_C(trial_PE)[UP]_subj.19'
p428
(dp429
I0
g4
(g5
(I0
tS'b'
tRp430
(I1
(I0
tg8
I00
S''
tbssS'v_C(trial_PE)[UP]_subj.18'
p431
(dp432
I0
g4
(g5
(I0
tS'b'
tRp433
(I1
(I0
tg8
I00
S''
tbssS'v_C(trial_PE)[UP]_subj.17'
p434
(dp435
I0
g4
(g5
(I0
tS'b'
tRp436
(I1
(I0
tg8
I00
S''
tbssS'v_C(trial_PE)[UP]_subj.16'
p437
(dp438
I0
g4
(g5
(I0
tS'b'
tRp439
(I1
(I0
tg8
I00
S''
tbssS'v_C(trial_PE)[UP]_subj.15'
p440
(dp441
I0
g4
(g5
(I0
tS'b'
tRp442
(I1
(I0
tg8
I00
S''
tbssS'v_C(trial_PE)[UP]_subj.14'
p443
(dp444
I0
g4
(g5
(I0
tS'b'
tRp445
(I1
(I0
tg8
I00
S''
tbssS'v_C(trial_PE)[UP]_subj.13'
p446
(dp447
I0
g4
(g5
(I0
tS'b'
tRp448
(I1
(I0
tg8
I00
S''
tbssS'v_C(trial_PE)[UP]_subj.12'
p449
(dp450
I0
g4
(g5
(I0
tS'b'
tRp451
(I1
(I0
tg8
I00
S''
tbssS'v_C(trial_PE)[UP]_subj.11'
p452
(dp453
I0
g4
(g5
(I0
tS'b'
tRp454
(I1
(I0
tg8
I00
S''
tbssS'v_C(trial_PE)[UP]_subj.10'
p455
(dp456
I0
g4
(g5
(I0
tS'b'
tRp457
(I1
(I0
tg8
I00
S''
tbssS't_C(trial_PE)[UU]'
p458
(dp459
I0
g4
(g5
(I0
tS'b'
tRp460
(I1
(I0
tg8
I00
S''
tbssS'v_C(trial_PE)[PU]_subj.28'
p461
(dp462
I0
g4
(g5
(I0
tS'b'
tRp463
(I1
(I0
tg8
I00
S''
tbssS'v_C(trial_PE)[PU]_subj.29'
p464
(dp465
I0
g4
(g5
(I0
tS'b'
tRp466
(I1
(I0
tg8
I00
S''
tbssS'v_C(trial_PE)[PU]_subj.24'
p467
(dp468
I0
g4
(g5
(I0
tS'b'
tRp469
(I1
(I0
tg8
I00
S''
tbssS'v_C(trial_PE)[PU]_subj.25'
p470
(dp471
I0
g4
(g5
(I0
tS'b'
tRp472
(I1
(I0
tg8
I00
S''
tbssS'v_C(trial_PE)[PU]_subj.26'
p473
(dp474
I0
g4
(g5
(I0
tS'b'
tRp475
(I1
(I0
tg8
I00
S''
tbssS'v_C(trial_PE)[PU]_subj.27'
p476
(dp477
I0
g4
(g5
(I0
tS'b'
tRp478
(I1
(I0
tg8
I00
S''
tbssS'v_C(trial_PE)[PU]_subj.20'
p479
(dp480
I0
g4
(g5
(I0
tS'b'
tRp481
(I1
(I0
tg8
I00
S''
tbssS'v_C(trial_PE)[PU]_subj.21'
p482
(dp483
I0
g4
(g5
(I0
tS'b'
tRp484
(I1
(I0
tg8
I00
S''
tbssS'v_C(trial_PE)[PU]_subj.22'
p485
(dp486
I0
g4
(g5
(I0
tS'b'
tRp487
(I1
(I0
tg8
I00
S''
tbssS'v_C(trial_PE)[PU]_subj.23'
p488
(dp489
I0
g4
(g5
(I0
tS'b'
tRp490
(I1
(I0
tg8
I00
S''
tbssS'v_C(trial_PE)[UP]_std'
p491
(dp492
I0
g4
(g5
(I0
tS'b'
tRp493
(I1
(I0
tg8
I00
S''
tbssS'v_reg.12'
p494
(dp495
I0
g4
(g5
(I0
tS'b'
tRp496
(I1
(I0
I320
I1
tg8
I00
S''
tbssS'v_reg.13'
p497
(dp498
I0
g4
(g5
(I0
tS'b'
tRp499
(I1
(I0
I319
I1
tg8
I00
S''
tbssS'v_reg.10'
p500
(dp501
I0
g4
(g5
(I0
tS'b'
tRp502
(I1
(I0
I297
I1
tg8
I00
S''
tbssS'v_reg.11'
p503
(dp504
I0
g4
(g5
(I0
tS'b'
tRp505
(I1
(I0
I299
I1
tg8
I00
S''
tbssS'v_reg.16'
p506
(dp507
I0
g4
(g5
(I0
tS'b'
tRp508
(I1
(I0
I465
I1
tg8
I00
S''
tbssS'v_reg.17'
p509
(dp510
I0
g4
(g5
(I0
tS'b'
tRp511
(I1
(I0
I597
I1
tg8
I00
S''
tbssS'v_reg.14'
p512
(dp513
I0
g4
(g5
(I0
tS'b'
tRp514
(I1
(I0
I589
I1
tg8
I00
S''
tbssS'v_reg.15'
p515
(dp516
I0
g4
(g5
(I0
tS'b'
tRp517
(I1
(I0
I320
I1
tg8
I00
S''
tbssS'v_reg.18'
p518
(dp519
I0
g4
(g5
(I0
tS'b'
tRp520
(I1
(I0
I599
I1
tg8
I00
S''
tbssS'v_reg.19'
p521
(dp522
I0
g4
(g5
(I0
tS'b'
tRp523
(I1
(I0
I590
I1
tg8
I00
S''
tbssS'_state_'
p524
(dp525
S'stochastics'
p526
(dp527
S'v_C(trial_PE)[UU]_subj.2'
p528
g4
(g5
(I0
tS'b'
tRp529
(I1
(tg8
I00
S'@\x1d}W@ \xe7?'
tbsS'v_C(trial_PE)[UU]_subj.3'
p530
g4
(g5
(I0
tS'b'
tRp531
(I1
(tg8
I00
S'\xff}\xcb\xdaa\n\xe8?'
tbsS'v_C(trial_PE)[UU]_subj.0'
p532
g4
(g5
(I0
tS'b'
tRp533
(I1
(tg8
I00
S'\xd8\xa7"\xc3\x14i\xe8?'
tbsS'v_C(trial_PE)[UU]_subj.1'
p534
g4
(g5
(I0
tS'b'
tRp535
(I1
(tg8
I00
S'\x0e=O\xb9\x91\xb0\xf0?'
tbsS'v_C(trial_PE)[UU]_subj.6'
p536
g4
(g5
(I0
tS'b'
tRp537
(I1
(tg8
I00
S'\x804\xf0\xbf\x88\x1c\xee?'
tbsS'v_C(trial_PE)[UU]_subj.7'
p538
g4
(g5
(I0
tS'b'
tRp539
(I1
(tg8
I00
S'\xd6\x96\x90`\xa6\xad\xe9?'
tbsS'v_C(trial_PE)[UU]_subj.4'
p540
g4
(g5
(I0
tS'b'
tRp541
(I1
(tg8
I00
S'[< \xc0\xde\xbc\xec?'
tbsS'v_C(trial_PE)[UU]_subj.5'
p542
g4
(g5
(I0
tS'b'
tRp543
(I1
(tg8
I00
S'\xedH\xc5b\x9f\x9b\xec?'
tbsS't_C(trial_PE)[PP]_subj.25'
p544
g4
(g5
(I0
tS'b'
tRp545
(I1
(tg8
I00
S'\xeb}\x91\xdc\x07\x06\xd9?'
tbsS't_C(trial_PE)[PP]_subj.24'
p546
g4
(g5
(I0
tS'b'
tRp547
(I1
(tg8
I00
S'\xd5\xbfo]\t}\xd4?'
tbsS'v_C(trial_PE)[UU]_subj.8'
p548
g4
(g5
(I0
tS'b'
tRp549
(I1
(tg8
I00
S'\xbc\xc3)\x90\xa1\xa7\xed?'
tbsS'v_C(trial_PE)[UU]_subj.9'
p550
g4
(g5
(I0
tS'b'
tRp551
(I1
(tg8
I00
S'\xc4l\xb2\x9b\x80e\xf0?'
tbsS't_C(trial_PE)[PP]_subj.21'
p552
g4
(g5
(I0
tS'b'
tRp553
(I1
(tg8
I00
S'z\x8f\xf4\xd2F\xc5\xd0?'
tbsS't_C(trial_PE)[PP]_subj.20'
p554
g4
(g5
(I0
tS'b'
tRp555
(I1
(tg8
I00
S'\xb9\xcfU8\xfc;\xd6?'
tbsS't_C(trial_PE)[PP]_subj.23'
p556
g4
(g5
(I0
tS'b'
tRp557
(I1
(tg8
I00
S'\xbd\x13\xfch\xa0\xc8\xcd?'
tbsS't_C(trial_PE)[PP]_subj.22'
p558
g4
(g5
(I0
tS'b'
tRp559
(I1
(tg8
I00
S'\xc3;\xc0\xf9\xca\x02\xd9?'
tbsS'v_C(trial_PE)[PU]_subj.15'
p560
g4
(g5
(I0
tS'b'
tRp561
(I1
(tg8
I00
S'\xcb\xf3\x81f.b\xeb?'
tbsS'v_C(trial_PE)[PU]_subj.14'
p562
g4
(g5
(I0
tS'b'
tRp563
(I1
(tg8
I00
S'!\xc5r&(C\xf0?'
tbsS'v_C(trial_PE)[PU]_subj.17'
p564
g4
(g5
(I0
tS'b'
tRp565
(I1
(tg8
I00
S'I\x0f(\xa8\x96\xea\xe5?'
tbsS'v_C(trial_PE)[PU]_subj.16'
p566
g4
(g5
(I0
tS'b'
tRp567
(I1
(tg8
I00
S'u2\x0f\xa9\x15\x0b\xe4?'
tbsg341
g4
(g5
(I0
tS'b'
tRp568
(I1
(tg8
I00
S'\x1e\xdf\xab\xb1\xe5\x95\xdb?'
tbsS'v_C(trial_PE)[PU]_subj.10'
p569
g4
(g5
(I0
tS'b'
tRp570
(I1
(tg8
I00
S'd\xc2i\xc0\xa7\xa3\xec?'
tbsS'v_C(trial_PE)[PU]_subj.13'
p571
g4
(g5
(I0
tS'b'
tRp572
(I1
(tg8
I00
S'\xceP\xe4\xed\x92\x83\xef?'
tbsS'a_subj.24'
p573
g4
(g5
(I0
tS'b'
tRp574
(I1
(tg8
I00
S'K\x1d\x97q\xcd\xb5\x00@'
tbsg347
g4
(g5
(I0
tS'b'
tRp575
(I1
(tg8
I00
S"h[\xe7\xc1'\xc2\xda?"
tbsS'v_pupil_response_1'
p576
g4
(g5
(I0
tS'b'
tRp577
(I1
(tg8
I00
S'\x80L9G\x99\xcc^?'
tbsg353
g4
(g5
(I0
tS'b'
tRp578
(I1
(tg8
I00
S'\x16\x99\xb4^Hs\xe4?'
tbsg356
g4
(g5
(I0
tS'b'
tRp579
(I1
(tg8
I00
S'8\x1b\xd8n\x94*\xe0?'
tbsS'v_C(trial_PE)[PU]_subj.19'
p580
g4
(g5
(I0
tS'b'
tRp581
(I1
(tg8
I00
S'\xaa\r*\x9a9\xf9\xe5?'
tbsS'v_C(trial_PE)[PU]_subj.18'
p582
g4
(g5
(I0
tS'b'
tRp583
(I1
(tg8
I00
S'a\xb9\xa0\xc2\xfa\x13\xf3?'
tbsg365
g4
(g5
(I0
tS'b'
tRp584
(I1
(tg8
I00
S'\xfa\xe9D\xf1{\xcf\xe1?'
tbsg368
g4
(g5
(I0
tS'b'
tRp585
(I1
(tg8
I00
S'\xcfD\xc7\xb0=}\xe3?'
tbsg24
g4
(g5
(I0
tS'b'
tRp586
(I1
(tg8
I00
S'\xf4kAZ\\=\xdd?'
tbsg350
g4
(g5
(I0
tS'b'
tRp587
(I1
(tg8
I00
S'\x8c\xab\xa9\x88\xc0U\xde?'
tbsS'v_C(trial_PE)[UP]_subj.31'
p588
g4
(g5
(I0
tS'b'
tRp589
(I1
(tg8
I00
S'4a\xa3/\xea2\xf1?'
tbsS'v_C(trial_PE)[UP]_subj.30'
p590
g4
(g5
(I0
tS'b'
tRp591
(I1
(tg8
I00
S'z\x8c\xa7_\x02\x98\xd3?'
tbsg288
g4
(g5
(I0
tS'b'
tRp592
(I1
(tg8
I00
S':8\xc8_\xb9\x7f\xdd?'
tbsS'v_C(trial_PE)[UP]_subj.32'
p593
g4
(g5
(I0
tS'b'
tRp594
(I1
(tg8
I00
S'2\x9f\xfe}\xc5\x9f\xe9?'
tbsS'a_subj.12'
p595
g4
(g5
(I0
tS'b'
tRp596
(I1
(tg8
I00
S'\xd6\xbc\xf1i\xe7\xf3\x00@'
tbsg270
g4
(g5
(I0
tS'b'
tRp597
(I1
(tg8
I00
S'\x8f\xbfSj\xc3\xbb\xd8?'
tbsS'v_C(trial_PE)[UP]'
p598
g4
(g5
(I0
tS'b'
tRp599
(I1
(tg8
I00
S'\x9a2\x94\xa0\xedc\xe9?'
tbsS'v_C(trial_PE)[UP]_subj.5'
p600
g4
(g5
(I0
tS'b'
tRp601
(I1
(tg8
I00
S's\x8e\xd8\xd7UT\xec?'
tbsS'a_subj.22'
p602
g4
(g5
(I0
tS'b'
tRp603
(I1
(tg8
I00
S'Bf\x97\xc8\xebT\x01@'
tbsg362
g4
(g5
(I0
tS'b'
tRp604
(I1
(tg8
I00
S'\x04\xbc\x86\x95K\x01\xdd?'
tbsS't_C(trial_PE)[PP]_subj.27'
p605
g4
(g5
(I0
tS'b'
tRp606
(I1
(tg8
I00
S'\x00K\xee\x95>`\xd4?'
tbsS'v_C(trial_PE)[PP]_std'
p607
g4
(g5
(I0
tS'b'
tRp608
(I1
(tg8
I00
S'\xc2\x82\x98U\x00\r\xd1?'
tbsg204
g4
(g5
(I0
tS'b'
tRp609
(I1
(tg8
I00
S'-\x85\xba\x86\xd4\xc8\xd7?'
tbsS't_C(trial_PE)[PP]_subj.26'
p610
g4
(g5
(I0
tS'b'
tRp611
(I1
(tg8
I00
S'\x84\xb2\xcdP3\xc5\xd2?'
tbsS'v_C(trial_PE)[UP]_subj.2'
p612
g4
(g5
(I0
tS'b'
tRp613
(I1
(tg8
I00
S'\xae?)\x94\x85\x81\xe7?'
tbsS'v_C(trial_PE)[PP]_subj.5'
p614
g4
(g5
(I0
tS'b'
tRp615
(I1
(tg8
I00
S'\x159\x8c\xa8\xad\x83\xf1?'
tbsg36
g4
(g5
(I0
tS'b'
tRp616
(I1
(tg8
I00
S'$\xaf&D\x1b\xbf\xd6?'
tbsg54
g4
(g5
(I0
tS'b'
tRp617
(I1
(tg8
I00
S'|\x0cl\xa1\xe9\xe0\xee?'
tbsg39
g4
(g5
(I0
tS'b'
tRp618
(I1
(tg8
I00
S'\xb3\x8d\xff\r\xbe\xdc\xc4?'
tbsg42
g4
(g5
(I0
tS'b'
tRp619
(I1
(tg8
I00
S'L\x8e4(W\x99\xcb?'
tbsg374
g4
(g5
(I0
tS'b'
tRp620
(I1
(tg8
I00
S'\x85\xc6Ba\x1f\xff\xe8?'
tbsS'a_subj.29'
p621
g4
(g5
(I0
tS'b'
tRp622
(I1
(tg8
I00
S'*V\xa6p\t-\xfb?'
tbsS'a_subj.28'
p623
g4
(g5
(I0
tS'b'
tRp624
(I1
(tg8
I00
S')\xece\xf86|\x01@'
tbsS'a_subj.25'
p625
g4
(g5
(I0
tS'b'
tRp626
(I1
(tg8
I00
S'DCG\xefw\x95\x00@'
tbsS'v_C(trial_PE)[PP]_subj.0'
p627
g4
(g5
(I0
tS'b'
tRp628
(I1
(tg8
I00
S'\x8e\x08\xe1%\x86\x06\xde?'
tbsS'a_subj.27'
p629
g4
(g5
(I0
tS'b'
tRp630
(I1
(tg8
I00
S'5\nd\xb0\x9b\xd9\x05@'
tbsS'a_subj.26'
p631
g4
(g5
(I0
tS'b'
tRp632
(I1
(tg8
I00
S'\xa7\xc0\x1d^sc\x00@'
tbsS'a_subj.21'
p633
g4
(g5
(I0
tS'b'
tRp634
(I1
(tg8
I00
S'\x9ah\xdf)9\xd7\x00@'
tbsS'a_subj.20'
p635
g4
(g5
(I0
tS'b'
tRp636
(I1
(tg8
I00
S'@\xa3\x94i[;\xf9?'
tbsS'a_subj.23'
p637
g4
(g5
(I0
tS'b'
tRp638
(I1
(tg8
I00
S'm$\xc5\x04(\xd3\xfd?'
tbsS'v_C(trial_PE)[PP]_subj.1'
p639
g4
(g5
(I0
tS'b'
tRp640
(I1
(tg8
I00
S'\x19\xc6\x0b\x9b\xc5j\xec?'
tbsg48
g4
(g5
(I0
tS'b'
tRp641
(I1
(tg8
I00
S'v:s\x04_G\xf0?'
tbsg51
g4
(g5
(I0
tS'b'
tRp642
(I1
(tg8
I00
S'\xc7\xe7\x9e\xbf\xb1\xac\xf2?'
tbsg371
g4
(g5
(I0
tS'b'
tRp643
(I1
(tg8
I00
S'\xcd\xd3\xbc:\xa6\xe8\xf0?'
tbsg291
g4
(g5
(I0
tS'b'
tRp644
(I1
(tg8
I00
S'\x84\xc6\xe9Rc\x93\xd7?'
tbsg60
g4
(g5
(I0
tS'b'
tRp645
(I1
(tg8
I00
S'\xd9\x88q2t\xef\xdd?'
tbsg63
g4
(g5
(I0
tS'b'
tRp646
(I1
(tg8
I00
S'V,\xc0\x1c\xce\x13\xe8?'
tbsg66
g4
(g5
(I0
tS'b'
tRp647
(I1
(tg8
I00
S'\xed-+B\xb2\xe8\xe4?'
tbsg69
g4
(g5
(I0
tS'b'
tRp648
(I1
(tg8
I00
S'i\xd5\x8a}\xe1\x9d\xec?'
tbsg72
g4
(g5
(I0
tS'b'
tRp649
(I1
(tg8
I00
S'\xc0\xa6\x98QP\xb7\xe7?'
tbsg75
g4
(g5
(I0
tS'b'
tRp650
(I1
(tg8
I00
S'\x91>X\xfd2-\xed?'
tbsg78
g4
(g5
(I0
tS'b'
tRp651
(I1
(tg8
I00
S'\x9f\x9b+\xb68\xa3\xef?'
tbsg225
g4
(g5
(I0
tS'b'
tRp652
(I1
(tg8
I00
S'\xdd\xffr~/\xe5\xe0?'
tbsg84
g4
(g5
(I0
tS'b'
tRp653
(I1
(tg8
I00
S'\xd5|\xfd\xa1\xaf\x8b\xf1?'
tbsg87
g4
(g5
(I0
tS'b'
tRp654
(I1
(tg8
I00
S'\xd8)) TM\xeb?'
tbsg90
g4
(g5
(I0
tS'b'
tRp655
(I1
(tg8
I00
S'\xeb\rD\x93L\x85\xdf?'
tbsg93
g4
(g5
(I0
tS'b'
tRp656
(I1
(tg8
I00
S'\xec\xaf\x0f\x9d\xb0\x97\xe2?'
tbsg377
g4
(g5
(I0
tS'b'
tRp657
(I1
(tg8
I00
S'\x8cR\x19Q\x1b\x00\xed?'
tbsg335
g4
(g5
(I0
tS'b'
tRp658
(I1
(tg8
I00
S'\x0e\xf7\x05\x86\xc6\xde\xde?'
tbsg338
g4
(g5
(I0
tS'b'
tRp659
(I1
(tg8
I00
S'\x1b>\xdc;\xf7\x8d\xe4?'
tbsS'v_C(trial_PE)[PP]'
p660
g4
(g5
(I0
tS'b'
tRp661
(I1
(tg8
I00
S'\x17\xa2l\x05\xb6O\xe8?'
tbsg491
g4
(g5
(I0
tS'b'
tRp662
(I1
(tg8
I00
S'\x94\xda\xe7b\x7f\xaf\xd2?'
tbsg380
g4
(g5
(I0
tS'b'
tRp663
(I1
(tg8
I00
S'\xf5\xd3\xfb\xcdT#\xee?'
tbsS'v_C(trial_PE)[PU]_subj.11'
p664
g4
(g5
(I0
tS'b'
tRp665
(I1
(tg8
I00
S'x\xdcs\xec\xae\x89\xe6?'
tbsS'v_C(trial_PE)[PP]_subj.30'
p666
g4
(g5
(I0
tS'b'
tRp667
(I1
(tg8
I00
S'f\xc4\xcd\xd9\xbc\xfe\xca?'
tbsg383
g4
(g5
(I0
tS'b'
tRp668
(I1
(tg8
I00
S'\x1fs\x07\x05\x02\x00\xc3?'
tbsg96
g4
(g5
(I0
tS'b'
tRp669
(I1
(tg8
I00
S'\x04Kt\x10\xd8F\xb6?'
tbsg386
g4
(g5
(I0
tS'b'
tRp670
(I1
(tg8
I00
S'\x7f\x1f\x96\xbe\xaeY\xd1?'
tbsg81
g4
(g5
(I0
tS'b'
tRp671
(I1
(tg8
I00
S'\x92Wu\xe6\xf4\r\xde?'
tbsS'v_C(trial_PE)[PP]_subj.32'
p672
g4
(g5
(I0
tS'b'
tRp673
(I1
(tg8
I00
S'\xcer\xe0\xdf8\x02\xec?'
tbsS'v_C(trial_PE)[PU]_subj.12'
p674
g4
(g5
(I0
tS'b'
tRp675
(I1
(tg8
I00
S'H\xc8\x95N\xb7\x14\xed?'
tbsg147
g4
(g5
(I0
tS'b'
tRp676
(I1
(tg8
I00
S'\xb2\xddC}\\\x1a\xdd?'
tbsg108
g4
(g5
(I0
tS'b'
tRp677
(I1
(tg8
I00
S'd\x89_\x9cn\x06\xd5?'
tbsS't_C(trial_PE)[UP]_subj.31'
p678
g4
(g5
(I0
tS'b'
tRp679
(I1
(tg8
I00
S'\xc0.\xe9d\n\xfe\xd4?'
tbsS't_C(trial_PE)[UP]_subj.30'
p680
g4
(g5
(I0
tS'b'
tRp681
(I1
(tg8
I00
S'\xc5\xef\x8bO\xfd\x7f\xd5?'
tbsg12
g4
(g5
(I0
tS'b'
tRp682
(I1
(tg8
I00
S'\xe1\xd5\xcf\xc1}\x06\xd8?'
tbsg15
g4
(g5
(I0
tS'b'
tRp683
(I1
(tg8
I00
S'\x8f\x06F}\xf5\xf2\xdf?'
tbsS'a_subj.10'
p684
g4
(g5
(I0
tS'b'
tRp685
(I1
(tg8
I00
S'\xc2w\x81S\x05\x10\xff?'
tbsg231
g4
(g5
(I0
tS'b'
tRp686
(I1
(tg8
I00
S'\xec\xe0M\x15\x04e\xde?'
tbsg99
g4
(g5
(I0
tS'b'
tRp687
(I1
(tg8
I00
S'&\xfdo\xe6\xe1\xfd\xfc?'
tbsS't_C(trial_PE)[UU]_subj.6'
p688
g4
(g5
(I0
tS'b'
tRp689
(I1
(tg8
I00
S')\xa8\xa5\xfa;\xea\xdc?'
tbsg102
g4
(g5
(I0
tS'b'
tRp690
(I1
(tg8
I00
S'\x00{\x15i\x98k\x04@'
tbsg105
g4
(g5
(I0
tS'b'
tRp691
(I1
(tg8
I00
S'\xa1\x13\xaeS3\xe0\xfe?'
tbsg419
g4
(g5
(I0
tS'b'
tRp692
(I1
(tg8
I00
S'\xa6\xb5!\xa9\xb4v\xec?'
tbsg422
g4
(g5
(I0
tS'b'
tRp693
(I1
(tg8
I00
S'w?l\xb0\xde \xe7?'
tbsg425
g4
(g5
(I0
tS'b'
tRp694
(I1
(tg8
I00
S'\x1e\xbeVo\xd1\x8d\xf0?'
tbsS'v_C(trial_PE)[PP]_subj.2'
p695
g4
(g5
(I0
tS'b'
tRp696
(I1
(tg8
I00
S'\x90\xae\x1bk\xf3\xcc\xe4?'
tbsg428
g4
(g5
(I0
tS'b'
tRp697
(I1
(tg8
I00
S'D\x0c\x003RN\xdb?'
tbsg431
g4
(g5
(I0
tS'b'
tRp698
(I1
(tg8
I00
S'je\xdf\xe8[\x12\xf7?'
tbsg434
g4
(g5
(I0
tS'b'
tRp699
(I1
(tg8
I00
S'\x04\xe24~4~\xe4?'
tbsg359
g4
(g5
(I0
tS'b'
tRp700
(I1
(tg8
I00
S'\xff\xf7\x19\xcc\xae6\xe3?'
tbsg440
g4
(g5
(I0
tS'b'
tRp701
(I1
(tg8
I00
S'\x19\xba\x97>\x1e\x17\xf5?'
tbsg443
g4
(g5
(I0
tS'b'
tRp702
(I1
(tg8
I00
S'\x021\x89c\xceC\xf3?'
tbsg446
g4
(g5
(I0
tS'b'
tRp703
(I1
(tg8
I00
S'\xe4\xa9R9Y:\xea?'
tbsg449
g4
(g5
(I0
tS'b'
tRp704
(I1
(tg8
I00
S'\xac\x04\xac\xf3\xd6\xcb\xe9?'
tbsg452
g4
(g5
(I0
tS'b'
tRp705
(I1
(tg8
I00
S'\xec\xb0of\xd0>\xea?'
tbsg455
g4
(g5
(I0
tS'b'
tRp706
(I1
(tg8
I00
S'p\xf0\x8c:%\x03\xae?'
tbsg30
g4
(g5
(I0
tS'b'
tRp707
(I1
(tg8
I00
S'\xb8E\x0c\\\xa7Y\xd6?'
tbsg210
g4
(g5
(I0
tS'b'
tRp708
(I1
(tg8
I00
S'ss\x82\xb1z_\xde?'
tbsS'a_subj.3'
p709
g4
(g5
(I0
tS'b'
tRp710
(I1
(tg8
I00
S'\x05c2\xf3\xba\x17\xff?'
tbsg27
g4
(g5
(I0
tS'b'
tRp711
(I1
(tg8
I00
S'\xf0\x0f\xdao_]\xde?'
tbsS't_C(trial_PE)[PP]_subj.14'
p712
g4
(g5
(I0
tS'b'
tRp713
(I1
(tg8
I00
S'\x179\xb8\xae\x14\xe1\xdd?'
tbsS't_C(trial_PE)[PP]_subj.15'
p714
g4
(g5
(I0
tS'b'
tRp715
(I1
(tg8
I00
S'\xbb\xd5\xee\xafB\xd7\xd9?'
tbsS't_C(trial_PE)[PP]_subj.16'
p716
g4
(g5
(I0
tS'b'
tRp717
(I1
(tg8
I00
S'I\xe5\xba+/\xb6\xd6?'
tbsS't_C(trial_PE)[PP]_subj.17'
p718
g4
(g5
(I0
tS'b'
tRp719
(I1
(tg8
I00
S'\x85\xfb\tH\x0c$\xd8?'
tbsS't_C(trial_PE)[PP]_subj.10'
p720
g4
(g5
(I0
tS'b'
tRp721
(I1
(tg8
I00
S'\x8a\xe4\x1c\xad\xbd6\xd7?'
tbsS't_C(trial_PE)[PP]_subj.11'
p722
g4
(g5
(I0
tS'b'
tRp723
(I1
(tg8
I00
S'\x86"\x06\x8d\x81\x16\xdc?'
tbsS't_C(trial_PE)[PP]_subj.12'
p724
g4
(g5
(I0
tS'b'
tRp725
(I1
(tg8
I00
S'\x92\x05\xbct\xd1k\xdb?'
tbsS't_C(trial_PE)[PP]_subj.13'
p726
g4
(g5
(I0
tS'b'
tRp727
(I1
(tg8
I00
S'\xd8\xfe\xdf\xfctt\xd9?'
tbsS't_C(trial_PE)[PP]_subj.28'
p728
g4
(g5
(I0
tS'b'
tRp729
(I1
(tg8
I00
S'O\xd3\xda\xfc=\r\xd1?'
tbsS'v_C(trial_PE)[UP]_subj.4'
p730
g4
(g5
(I0
tS'b'
tRp731
(I1
(tg8
I00
S'<\x1ew\xce\x86"\xf2?'
tbsS't_C(trial_PE)[PP]_subj.18'
p732
g4
(g5
(I0
tS'b'
tRp733
(I1
(tg8
I00
S'!`|\x93\xbf\n\xd7?'
tbsS't_C(trial_PE)[PP]_subj.19'
p734
g4
(g5
(I0
tS'b'
tRp735
(I1
(tg8
I00
S'?\x04\xd9G]\xf2\xda?'
tbsS't_C(trial_PE)[UP]'
p736
g4
(g5
(I0
tS'b'
tRp737
(I1
(tg8
I00
S"\xccLB\x17'\xbe\xd7?"
tbsS't_C(trial_PE)[UP]_subj.24'
p738
g4
(g5
(I0
tS'b'
tRp739
(I1
(tg8
I00
S'\x90J\xaa1\x99\x95\xd3?'
tbsS't_C(trial_PE)[UP]_subj.25'
p740
g4
(g5
(I0
tS'b'
tRp741
(I1
(tg8
I00
S'#\xbb_\xfdP#\xdc?'
tbsS't_C(trial_PE)[UP]_subj.26'
p742
g4
(g5
(I0
tS'b'
tRp743
(I1
(tg8
I00
S'\x92\xd0\xaa\x8d\xd4\xd9\xd5?'
tbsS't_C(trial_PE)[UP]_subj.27'
p744
g4
(g5
(I0
tS'b'
tRp745
(I1
(tg8
I00
S'\xac=\x13\xd3-7\xd7?'
tbsS't_C(trial_PE)[UP]_subj.20'
p746
g4
(g5
(I0
tS'b'
tRp747
(I1
(tg8
I00
S'\xde\xec\xc3\t\xf50\xd9?'
tbsS't_C(trial_PE)[UP]_subj.21'
p748
g4
(g5
(I0
tS'b'
tRp749
(I1
(tg8
I00
S'\x1a\xe5\x02\xcd\r\x0f\xd3?'
tbsS't_C(trial_PE)[UP]_subj.22'
p750
g4
(g5
(I0
tS'b'
tRp751
(I1
(tg8
I00
S'0\x0f,\x04\xc5\xe1\xd4?'
tbsS't_C(trial_PE)[UP]_subj.23'
p752
g4
(g5
(I0
tS'b'
tRp753
(I1
(tg8
I00
S'\x16\xc1\xc2u\xa4\xc6\xcf?'
tbsS'a_subj.15'
p754
g4
(g5
(I0
tS'b'
tRp755
(I1
(tg8
I00
S'\xd5\xb5\xcd\xcd%f\x01@'
tbsS't_C(trial_PE)[UP]_subj.28'
p756
g4
(g5
(I0
tS'b'
tRp757
(I1
(tg8
I00
S'\xf3\xda\x01\x0c<\xa7\xd3?'
tbsS't_C(trial_PE)[UP]_subj.29'
p758
g4
(g5
(I0
tS'b'
tRp759
(I1
(tg8
I00
S'\x1au\xe0\xe0\x82L\xd3?'
tbsS't_C(trial_PE)[PU]_subj.25'
p760
g4
(g5
(I0
tS'b'
tRp761
(I1
(tg8
I00
S'T\xc08\xc8\x1d\x11\xcc?'
tbsS'v_C(trial_PE)[T.UP]:pupil_response_1'
p762
g4
(g5
(I0
tS'b'
tRp763
(I1
(tg8
I00
S'\x11\x01\xf48tU\xa4\xbf'
tbsg437
g4
(g5
(I0
tS'b'
tRp764
(I1
(tg8
I00
S'\x1e5]_\xe4c\xe4?'
tbsg114
g4
(g5
(I0
tS'b'
tRp765
(I1
(tg8
I00
S'Jr\xe2\x83\xc8<\xf3?'
tbsg117
g4
(g5
(I0
tS'b'
tRp766
(I1
(tg8
I00
S'\xde\xf3gY\xb4\x98\xe2?'
tbsg294
g4
(g5
(I0
tS'b'
tRp767
(I1
(tg8
I00
S'\x03\xc08i/;\xb5?'
tbsg21
g4
(g5
(I0
tS'b'
tRp768
(I1
(tg8
I00
S'\x10\x10\xb8\xb8~{\xd8?'
tbsS't_C(trial_PE)[UP]_subj.5'
p769
g4
(g5
(I0
tS'b'
tRp770
(I1
(tg8
I00
S'\xbe\xfe\xeb\xd2\x10\x90\xdd?'
tbsS't_C(trial_PE)[PU]_subj.20'
p771
g4
(g5
(I0
tS'b'
tRp772
(I1
(tg8
I00
S'\x9f\xad\xd8\xa0\x86\x16\xd8?'
tbsg18
g4
(g5
(I0
tS'b'
tRp773
(I1
(tg8
I00
S'\xc6>\x18H\x93\xf6\xd6?'
tbsg120
g4
(g5
(I0
tS'b'
tRp774
(I1
(tg8
I00
S'i\x08w\x90\xfd\xe1\xec?'
tbsS't_C(trial_PE)[PU]'
p775
g4
(g5
(I0
tS'b'
tRp776
(I1
(tg8
I00
S'\xc7^\x12e\x02<\xd9?'
tbsS'v_C(trial_PE)[PU]_subj.9'
p777
g4
(g5
(I0
tS'b'
tRp778
(I1
(tg8
I00
S'?\xd7\xd9\xda!O\xed?'
tbsS'v_C(trial_PE)[PU]_subj.8'
p779
g4
(g5
(I0
tS'b'
tRp780
(I1
(tg8
I00
S'\x83\x05\xd6j\xceU\xf1?'
tbsg123
g4
(g5
(I0
tS'b'
tRp781
(I1
(tg8
I00
S'\x14\xab*\xc3\xfe\x94\x93?'
tbsS'v_C(trial_PE)[PU]_subj.5'
p782
g4
(g5
(I0
tS'b'
tRp783
(I1
(tg8
I00
S'\x8dI\xbb\xf1R\x7f\xf1?'
tbsS'v_C(trial_PE)[PU]_subj.4'
p784
g4
(g5
(I0
tS'b'
tRp785
(I1
(tg8
I00
S'\xc2#\x83\x8d\xab\xb5\xe8?'
tbsS'v_C(trial_PE)[PU]_subj.7'
p786
g4
(g5
(I0
tS'b'
tRp787
(I1
(tg8
I00
S'\xd4\x89\x9d`2\x99\xeb?'
tbsS'v_C(trial_PE)[PU]_subj.6'
p788
g4
(g5
(I0
tS'b'
tRp789
(I1
(tg8
I00
S't\xaa\xcbx\x9c\x10\xf0?'
tbsS'v_C(trial_PE)[PU]_subj.1'
p790
g4
(g5
(I0
tS'b'
tRp791
(I1
(tg8
I00
S'E\xc4D\xb1+9\xec?'
tbsS'v_C(trial_PE)[PU]_subj.0'
p792
g4
(g5
(I0
tS'b'
tRp793
(I1
(tg8
I00
S'\xf8\t[\x7f{7\xe3?'
tbsS'v_C(trial_PE)[PU]_subj.3'
p794
g4
(g5
(I0
tS'b'
tRp795
(I1
(tg8
I00
S'\x84h\x99W\x08\x9a\xeb?'
tbsS'v_C(trial_PE)[PU]_subj.2'
p796
g4
(g5
(I0
tS'b'
tRp797
(I1
(tg8
I00
S'L\x00\x15\x9d\xa1\xa2\xed?'
tbsS'a_subj.14'
p798
g4
(g5
(I0
tS'b'
tRp799
(I1
(tg8
I00
S'\x83\x0b\x05\xcava\x00@'
tbsg129
g4
(g5
(I0
tS'b'
tRp800
(I1
(tg8
I00
S'n&\xe1\xd3\x97\xc2\xdd?'
tbsS'a_subj.16'
p801
g4
(g5
(I0
tS'b'
tRp802
(I1
(tg8
I00
S'z=\xce\xb3\x9av\xff?'
tbsg135
g4
(g5
(I0
tS'b'
tRp803
(I1
(tg8
I00
S'{.\x7f>\x98\x8c\xd6?'
tbsS't_C(trial_PE)[PP]_subj.2'
p804
g4
(g5
(I0
tS'b'
tRp805
(I1
(tg8
I00
S'R\xf3\xe0\x96\xab.\xde?'
tbsg141
g4
(g5
(I0
tS'b'
tRp806
(I1
(tg8
I00
S'\xda\x064\x0cx\x08\xdc?'
tbsg144
g4
(g5
(I0
tS'b'
tRp807
(I1
(tg8
I00
S'\x9aN\xf6\xcf\x14\x99\xe2?'
tbsS'a_subj.13'
p808
g4
(g5
(I0
tS'b'
tRp809
(I1
(tg8
I00
S'\xe8\x95X\xe7\xec(\x02@'
tbsg111
g4
(g5
(I0
tS'b'
tRp810
(I1
(tg8
I00
S'\xb8\x96 L\xfc\x9e\xec?'
tbsS'a_subj.18'
p811
g4
(g5
(I0
tS'b'
tRp812
(I1
(tg8
I00
S'\xabF\x16\xe7\xeb\xdd\xf8?'
tbsS'a_subj.19'
p813
g4
(g5
(I0
tS'b'
tRp814
(I1
(tg8
I00
S'D\xaa\xb0\xed\x11k\x00@'
tbsS't_C(trial_PE)[PP]_subj.8'
p815
g4
(g5
(I0
tS'b'
tRp816
(I1
(tg8
I00
S'\x83\x86\xde\x11\xbd\x8c\xdc?'
tbsS't_C(trial_PE)[PP]_subj.9'
p817
g4
(g5
(I0
tS'b'
tRp818
(I1
(tg8
I00
S'\xd7\xe8\xa31/o\xda?'
tbsS't_C(trial_PE)[PP]'
p819
g4
(g5
(I0
tS'b'
tRp820
(I1
(tg8
I00
S'\xfc\xd6<\xf45\xca\xd7?'
tbsg461
g4
(g5
(I0
tS'b'
tRp821
(I1
(tg8
I00
S'\xb3&b\\\xd4\xe7\xf0?'
tbsg464
g4
(g5
(I0
tS'b'
tRp822
(I1
(tg8
I00
S'\x88s\xb1\xa27\xf3\xeb?'
tbsS'v_C(trial_PE)[UP]_subj.3'
p823
g4
(g5
(I0
tS'b'
tRp824
(I1
(tg8
I00
S'e\xb4{J\xa7\x16\xe3?'
tbsg467
g4
(g5
(I0
tS'b'
tRp825
(I1
(tg8
I00
S'\x0b\x81\x01XS\xf0\xe5?'
tbsg470
g4
(g5
(I0
tS'b'
tRp826
(I1
(tg8
I00
S'\x98-\x82\xdc\x11{\xf0?'
tbsg473
g4
(g5
(I0
tS'b'
tRp827
(I1
(tg8
I00
S'_\xf1\xe3\x91\xfc\x81\xee?'
tbsg476
g4
(g5
(I0
tS'b'
tRp828
(I1
(tg8
I00
S'\x19\xcf1\x1e3\xd9\xe9?'
tbsg479
g4
(g5
(I0
tS'b'
tRp829
(I1
(tg8
I00
S'\x11\x81f\x81\xb7\xed\xf0?'
tbsg482
g4
(g5
(I0
tS'b'
tRp830
(I1
(tg8
I00
S'\x82\x87=-\x16\xf7\xe1?'
tbsg485
g4
(g5
(I0
tS'b'
tRp831
(I1
(tg8
I00
S'=\x15\xe0\xd7~\x1f\xed?'
tbsg488
g4
(g5
(I0
tS'b'
tRp832
(I1
(tg8
I00
S'\xfc\xcb\xeb\xb3\xd6\x8e\xf1?'
tbsS'v_C(trial_PE)[UU]_subj.18'
p833
g4
(g5
(I0
tS'b'
tRp834
(I1
(tg8
I00
S'\x80B2\xb5\x01^\xf0?'
tbsS'v_C(trial_PE)[UU]_subj.19'
p835
g4
(g5
(I0
tS'b'
tRp836
(I1
(tg8
I00
S'\xa2\xf4[+\x10\xb5\xea?'
tbsS'v_C(trial_PE)[UU]_subj.10'
p837
g4
(g5
(I0
tS'b'
tRp838
(I1
(tg8
I00
S'\x1f\xd9\x85\x83`\x03\xed?'
tbsS'v_C(trial_PE)[UU]_subj.11'
p839
g4
(g5
(I0
tS'b'
tRp840
(I1
(tg8
I00
S'\xb4\nZ\xd5C{\xed?'
tbsS'v_C(trial_PE)[UU]_subj.12'
p841
g4
(g5
(I0
tS'b'
tRp842
(I1
(tg8
I00
S'\x8f\x91\x87\xe0|\xc7\xea?'
tbsS'v_C(trial_PE)[UU]_subj.13'
p843
g4
(g5
(I0
tS'b'
tRp844
(I1
(tg8
I00
S'z\x95\xee\xb3\x7f2\xed?'
tbsS'v_C(trial_PE)[UU]_subj.14'
p845
g4
(g5
(I0
tS'b'
tRp846
(I1
(tg8
I00
S'\xd7B\x86\xbe\x81#\xe8?'
tbsS't_C(trial_PE)[PU]_subj.30'
p847
g4
(g5
(I0
tS'b'
tRp848
(I1
(tg8
I00
S'\x8e\xce\xac\x7f\xc3\xd4\xd9?'
tbsS'v_C(trial_PE)[UU]_subj.16'
p849
g4
(g5
(I0
tS'b'
tRp850
(I1
(tg8
I00
S'~Bo97\xb9\xeb?'
tbsS't_C(trial_PE)[PU]_subj.32'
p851
g4
(g5
(I0
tS'b'
tRp852
(I1
(tg8
I00
S'\x0e\xff\x13]\xa6L\xd6?'
tbsS't_C(trial_PE)[PU]_subj.7'
p853
g4
(g5
(I0
tS'b'
tRp854
(I1
(tg8
I00
S'N\xf9\x1f\xb7<X\xdd?'
tbsS't_C(trial_PE)[PU]_subj.6'
p855
g4
(g5
(I0
tS'b'
tRp856
(I1
(tg8
I00
S'\xb2\x9b<2\xb5\xb8\xdb?'
tbsS't_C(trial_PE)[PU]_subj.5'
p857
g4
(g5
(I0
tS'b'
tRp858
(I1
(tg8
I00
S"_LJ\xdc'\x18\xde?"
tbsS't_C(trial_PE)[PU]_subj.4'
p859
g4
(g5
(I0
tS'b'
tRp860
(I1
(tg8
I00
S'\x1f\x9cM\x86\xf4\xf3\xd9?'
tbsS't_C(trial_PE)[PU]_subj.3'
p861
g4
(g5
(I0
tS'b'
tRp862
(I1
(tg8
I00
S'\xce\xa0r\xda\xbd\x08\xd9?'
tbsS't_C(trial_PE)[PU]_subj.2'
p863
g4
(g5
(I0
tS'b'
tRp864
(I1
(tg8
I00
S' mF\xe2\x16\x07\xe1?'
tbsS't_C(trial_PE)[PU]_subj.1'
p865
g4
(g5
(I0
tS'b'
tRp866
(I1
(tg8
I00
S'\x06\x8bGUf\x11\xda?'
tbsS't_C(trial_PE)[PU]_subj.0'
p867
g4
(g5
(I0
tS'b'
tRp868
(I1
(tg8
I00
S'\x02\xc7E\xafBe\xe3?'
tbsg344
g4
(g5
(I0
tS'b'
tRp869
(I1
(tg8
I00
S'%\xc4\xa1\x06\xbe\x95\xde?'
tbsg458
g4
(g5
(I0
tS'b'
tRp870
(I1
(tg8
I00
S'*:\xf52\xb0\r\xdb?'
tbsS't_C(trial_PE)[PU]_subj.9'
p871
g4
(g5
(I0
tS'b'
tRp872
(I1
(tg8
I00
S'\xb4{\xe7-\xeb:\xdf?'
tbsS't_C(trial_PE)[PU]_subj.8'
p873
g4
(g5
(I0
tS'b'
tRp874
(I1
(tg8
I00
S'l\xe7-v\xdd\xeb\xde?'
tbsg273
g4
(g5
(I0
tS'b'
tRp875
(I1
(tg8
I00
S'4\xbdR$"\x12\xe1?'
tbsg258
g4
(g5
(I0
tS'b'
tRp876
(I1
(tg8
I00
S'.\xaf\x82\x9dF\xf8\xe6?'
tbsS'v_C(trial_PE)[PP]_subj.31'
p877
g4
(g5
(I0
tS'b'
tRp878
(I1
(tg8
I00
S'\xd6N\xc0? p\xef?'
tbsg57
g4
(g5
(I0
tS'b'
tRp879
(I1
(tg8
I00
S'Eo\x0b\xcfn1\xec?'
tbsg207
g4
(g5
(I0
tS'b'
tRp880
(I1
(tg8
I00
S'\x1e?\xec\x84\xc9\xa8\xd9?'
tbsS'v_C(trial_PE)[PP]_subj.6'
p881
g4
(g5
(I0
tS'b'
tRp882
(I1
(tg8
I00
S'\xf4\x85\x7f\xe3\xb9D\xeb?'
tbsS'v_C(trial_PE)[PP]_subj.7'
p883
g4
(g5
(I0
tS'b'
tRp884
(I1
(tg8
I00
S'\x12r\xd9\x8c\xee)\xe4?'
tbsg216
g4
(g5
(I0
tS'b'
tRp885
(I1
(tg8
I00
S'A\xb9\x8f\xdfiY\xdd?'
tbsg219
g4
(g5
(I0
tS'b'
tRp886
(I1
(tg8
I00
S'\xc0\xf7\x07\xa0l\xc1\xd5?'
tbsg222
g4
(g5
(I0
tS'b'
tRp887
(I1
(tg8
I00
S'L\xb3D\x84 &\xe0?'
tbsS'v_C(trial_PE)[PP]_subj.3'
p888
g4
(g5
(I0
tS'b'
tRp889
(I1
(tg8
I00
S'F\xbe\x1c\x08%\x85\xe8?'
tbsg33
g4
(g5
(I0
tS'b'
tRp890
(I1
(tg8
I00
S'\xfb\xe1@\xd1EM\xe2?'
tbsS't_C(trial_PE)[PU]_subj.31'
p891
g4
(g5
(I0
tS'b'
tRp892
(I1
(tg8
I00
S'\n\x05\xd6S\x7f\xea\xd1?'
tbsS'v_C(trial_PE)[PP]_subj.8'
p893
g4
(g5
(I0
tS'b'
tRp894
(I1
(tg8
I00
S'\xe3\x05\x02\x13\x06\x1a\xee?'
tbsS'v_C(trial_PE)[PP]_subj.9'
p895
g4
(g5
(I0
tS'b'
tRp896
(I1
(tg8
I00
S'Y_E\xc9\x1e4\xe8?'
tbsg228
g4
(g5
(I0
tS'b'
tRp897
(I1
(tg8
I00
S'* \xb4\x84E?\xd6?'
tbsS'v_C(trial_PE)[UU]_subj.15'
p898
g4
(g5
(I0
tS'b'
tRp899
(I1
(tg8
I00
S'\x1a@k?\xf7\xd8\xeb?'
tbsg9
g4
(g5
(I0
tS'b'
tRp900
(I1
(tg8
I00
S'i\xe1\x12\x86\xcf\x81\xd6?'
tbsg2
g4
(g5
(I0
tS'b'
tRp901
(I1
(tg8
I00
S'\x1c8\xc8\tgI\xd9?'
tbsS't_C(trial_PE)[PU]_subj.28'
p902
g4
(g5
(I0
tS'b'
tRp903
(I1
(tg8
I00
S'{\x17\xd1\xd1\xdf\xfa\xd3?'
tbsS't_C(trial_PE)[PU]_subj.29'
p904
g4
(g5
(I0
tS'b'
tRp905
(I1
(tg8
I00
S'\xfd)\r\xf7q\xc5\xd1?'
tbsS't_C(trial_PE)[PU]_subj.26'
p906
g4
(g5
(I0
tS'b'
tRp907
(I1
(tg8
I00
S'h\xe5\x107\xbf\xf4\xd5?'
tbsS't_C(trial_PE)[PU]_subj.27'
p908
g4
(g5
(I0
tS'b'
tRp909
(I1
(tg8
I00
S'D\xbc\xba\x9b7\xfd\xd2?'
tbsS't_C(trial_PE)[PU]_subj.24'
p910
g4
(g5
(I0
tS'b'
tRp911
(I1
(tg8
I00
S'\xd2\x0c{\xb8M\xd1\xd3?'
tbsS'v_C(trial_PE)[UU]_subj.17'
p912
g4
(g5
(I0
tS'b'
tRp913
(I1
(tg8
I00
S'\xc6du\xd3\xcb\xe3\xea?'
tbsS't_C(trial_PE)[PU]_subj.22'
p914
g4
(g5
(I0
tS'b'
tRp915
(I1
(tg8
I00
S'2\x13\x08\xaf\xceJ\xd6?'
tbsS't_C(trial_PE)[PU]_subj.23'
p916
g4
(g5
(I0
tS'b'
tRp917
(I1
(tg8
I00
S' \xed\x89\xb9\x93\x94\xd3?'
tbsS'v_C(trial_PE)[UU]_std'
p918
g4
(g5
(I0
tS'b'
tRp919
(I1
(tg8
I00
S'\xcc\x0e\xf1\xf2\xfd\xa3\xc0?'
tbsS't_C(trial_PE)[PU]_subj.21'
p920
g4
(g5
(I0
tS'b'
tRp921
(I1
(tg8
I00
S'[\xef\x01&"g\xce?'
tbsS'v_C(trial_PE)[UP]_subj.0'
p922
g4
(g5
(I0
tS'b'
tRp923
(I1
(tg8
I00
S'\xba_\xc1\xc1/3\xe8?'
tbsS't_C(trial_PE)[PP]_subj.29'
p924
g4
(g5
(I0
tS'b'
tRp925
(I1
(tg8
I00
S'\xde\xaa\xf8>\x8d\xa9\xd0?'
tbsg234
g4
(g5
(I0
tS'b'
tRp926
(I1
(tg8
I00
S'H\xb9l\x02[}\xf5?'
tbsg237
g4
(g5
(I0
tS'b'
tRp927
(I1
(tg8
I00
S'X\xbeH\x91\xa4\x99\xe6?'
tbsg240
g4
(g5
(I0
tS'b'
tRp928
(I1
(tg8
I00
S'\xb4?\x97D<\x91\xe9?'
tbsg243
g4
(g5
(I0
tS'b'
tRp929
(I1
(tg8
I00
S'\xeeE/`\xfc\xf1\xe8?'
tbsg246
g4
(g5
(I0
tS'b'
tRp930
(I1
(tg8
I00
S'\xf3L\x10\x1f\x8e9\xea?'
tbsg249
g4
(g5
(I0
tS'b'
tRp931
(I1
(tg8
I00
S'\x9b\xf9\x9b\xb8\x8f\xe3\xf0?'
tbsg252
g4
(g5
(I0
tS'b'
tRp932
(I1
(tg8
I00
S'\xc0\xd3\xe9\xce@\x19\xdc?'
tbsg255
g4
(g5
(I0
tS'b'
tRp933
(I1
(tg8
I00
S'\x91\xaa\xb0\xc2\x84V\xea?'
tbsS't_C(trial_PE)[UU]_subj.27'
p934
g4
(g5
(I0
tS'b'
tRp935
(I1
(tg8
I00
S'\xf4pq\x86\x92\\\xdf?'
tbsg261
g4
(g5
(I0
tS'b'
tRp936
(I1
(tg8
I00
S'Uk0Ov\xa0\xf0?'
tbsg213
g4
(g5
(I0
tS'b'
tRp937
(I1
(tg8
I00
S'\rT\x87\x1e{\xc7\xd9?'
tbsS't_C(trial_PE)[UP]_subj.4'
p938
g4
(g5
(I0
tS'b'
tRp939
(I1
(tg8
I00
S'\xb7\xc6<V\xe0\xbb\xd8?'
tbsS't_C(trial_PE)[UP]_subj.7'
p940
g4
(g5
(I0
tS'b'
tRp941
(I1
(tg8
I00
S'\xae\x7f\xf9-\xe5\x06\xe3?'
tbsS't_C(trial_PE)[UP]_subj.6'
p942
g4
(g5
(I0
tS'b'
tRp943
(I1
(tg8
I00
S'>\x9b\x05T4%\xe1?'
tbsS't_C(trial_PE)[UP]_subj.1'
p944
g4
(g5
(I0
tS'b'
tRp945
(I1
(tg8
I00
S'\xb6\xc3\xder\x06p\xd8?'
tbsS't_C(trial_PE)[UP]_subj.0'
p946
g4
(g5
(I0
tS'b'
tRp947
(I1
(tg8
I00
S'\x90\x83\xc2_\xdb\xb4\xe4?'
tbsS't_C(trial_PE)[UP]_subj.3'
p948
g4
(g5
(I0
tS'b'
tRp949
(I1
(tg8
I00
S'*\xbf\xd0\\\x89\xb9\xdb?'
tbsS't_C(trial_PE)[UP]_subj.2'
p950
g4
(g5
(I0
tS'b'
tRp951
(I1
(tg8
I00
S'Hf\xd0\x92\xe7f\xe1?'
tbsS'a_subj.17'
p952
g4
(g5
(I0
tS'b'
tRp953
(I1
(tg8
I00
S'\xc8a\xe1M\xb8\xa1\xfe?'
tbsS't_C(trial_PE)[UP]_subj.9'
p954
g4
(g5
(I0
tS'b'
tRp955
(I1
(tg8
I00
S'?\xd42[x\x1b\xdb?'
tbsS't_C(trial_PE)[UP]_subj.8'
p956
g4
(g5
(I0
tS'b'
tRp957
(I1
(tg8
I00
S'b\\\x83;\x81L\xdb?'
tbsg126
g4
(g5
(I0
tS'b'
tRp958
(I1
(tg8
I00
S'A\x8f1}\x1ao\xda?'
tbsg264
g4
(g5
(I0
tS'b'
tRp959
(I1
(tg8
I00
S'\x8c\x93\x8c\x9f8$\xda?'
tbsg267
g4
(g5
(I0
tS'b'
tRp960
(I1
(tg8
I00
S'(\x1b"Xb\x91\xdc?'
tbsS't_C(trial_PE)[UU]_subj.29'
p961
g4
(g5
(I0
tS'b'
tRp962
(I1
(tg8
I00
S'\x8b)F<\xaa\xab\xcc?'
tbsS't_C(trial_PE)[UU]_subj.28'
p963
g4
(g5
(I0
tS'b'
tRp964
(I1
(tg8
I00
S'\x1bD>S\xdd\x06\xd2?'
tbsg276
g4
(g5
(I0
tS'b'
tRp965
(I1
(tg8
I00
S'\x8aa\xd6\x96\xe0\xe7\xd9?'
tbsg279
g4
(g5
(I0
tS'b'
tRp966
(I1
(tg8
I00
S'\xab\x82\xe8vt\xb8\xda?'
tbsg282
g4
(g5
(I0
tS'b'
tRp967
(I1
(tg8
I00
S'\x9e)\xd3\xba\xed\xe2\xdd?'
tbsg285
g4
(g5
(I0
tS'b'
tRp968
(I1
(tg8
I00
S'`$HBu\xfb\xe1?'
tbsS't_C(trial_PE)[UU]_subj.23'
p969
g4
(g5
(I0
tS'b'
tRp970
(I1
(tg8
I00
S'KS\xb3\xf4\x13\x02\xcb?'
tbsS't_C(trial_PE)[UU]_subj.22'
p971
g4
(g5
(I0
tS'b'
tRp972
(I1
(tg8
I00
S'9\xd3\xb9\xbd\x841\xd0?'
tbsS't_C(trial_PE)[UU]_subj.21'
p973
g4
(g5
(I0
tS'b'
tRp974
(I1
(tg8
I00
S'mR\x9b\xe9\xd0\xb1\xcf?'
tbsS't_C(trial_PE)[UU]_subj.20'
p975
g4
(g5
(I0
tS'b'
tRp976
(I1
(tg8
I00
S'\x80\xba\x08%l>\xd7?'
tbsS'v_C(trial_PE)[UP]_subj.6'
p977
g4
(g5
(I0
tS'b'
tRp978
(I1
(tg8
I00
S'\xf8\xa1U\x1a\x1f\x97\xe7?'
tbsS't_C(trial_PE)[UU]_subj.26'
p979
g4
(g5
(I0
tS'b'
tRp980
(I1
(tg8
I00
S'\xfca\x15Qg\xc1\xd6?'
tbsS't_C(trial_PE)[UU]_subj.25'
p981
g4
(g5
(I0
tS'b'
tRp982
(I1
(tg8
I00
S'!\x06\xaf\xbdqb\xce?'
tbsS't_C(trial_PE)[UU]_subj.24'
p983
g4
(g5
(I0
tS'b'
tRp984
(I1
(tg8
I00
S' \xcf\xd5\xf4~[\xd7?'
tbsS'a_subj.6'
p985
g4
(g5
(I0
tS'b'
tRp986
(I1
(tg8
I00
S'\xb9_\x18o\x06\x8a\x01@'
tbsS'a_subj.7'
p987
g4
(g5
(I0
tS'b'
tRp988
(I1
(tg8
I00
S'\xf3S\xb9\xba\x93\x18\x06@'
tbsS'a_subj.4'
p989
g4
(g5
(I0
tS'b'
tRp990
(I1
(tg8
I00
S'\xa2\x19E\x91\xcdX\xfa?'
tbsS'a_subj.5'
p991
g4
(g5
(I0
tS'b'
tRp992
(I1
(tg8
I00
S'\xef\xacJN\xe6)\xfa?'
tbsS'a_subj.2'
p993
g4
(g5
(I0
tS'b'
tRp994
(I1
(tg8
I00
S'T\xa8\xffX~\x90\x03@'
tbsS'v_C(trial_PE)[T.UU]:pupil_response_1'
p995
g4
(g5
(I0
tS'b'
tRp996
(I1
(tg8
I00
S'X\xda\x0b\xafb\x8b\x9e?'
tbsS'a_subj.0'
p997
g4
(g5
(I0
tS'b'
tRp998
(I1
(tg8
I00
S'\xcb\x80\xe63\xd2\x88\x01@'
tbsS'a_subj.1'
p999
g4
(g5
(I0
tS'b'
tRp1000
(I1
(tg8
I00
S'd\r\xd3X\xce8\xfc?'
tbsS'a_subj.8'
p1001
g4
(g5
(I0
tS'b'
tRp1002
(I1
(tg8
I00
S'\x98\xb6)\xe3}\\\xfd?'
tbsS'a_subj.9'
p1003
g4
(g5
(I0
tS'b'
tRp1004
(I1
(tg8
I00
S'Kj\xbe\x1a\xa9\xb9\xf8?'
tbsS'v_C(trial_PE)[PP]_subj.23'
p1005
g4
(g5
(I0
tS'b'
tRp1006
(I1
(tg8
I00
S'rb\xd7F\x9a\xe7\xea?'
tbsS'v_C(trial_PE)[PP]_subj.22'
p1007
g4
(g5
(I0
tS'b'
tRp1008
(I1
(tg8
I00
S't\\\x89P\xd2\xfe\xf1?'
tbsS'v_C(trial_PE)[PP]_subj.21'
p1009
g4
(g5
(I0
tS'b'
tRp1010
(I1
(tg8
I00
S'8\xc4kk\x15e\xe6?'
tbsS'v_C(trial_PE)[PP]_subj.20'
p1011
g4
(g5
(I0
tS'b'
tRp1012
(I1
(tg8
I00
S'\xef\x97\x11\x7f\x15\xd0\xf4?'
tbsS'v_C(trial_PE)[PP]_subj.27'
p1013
g4
(g5
(I0
tS'b'
tRp1014
(I1
(tg8
I00
S'+\x16I\xb2-\xb1\xe8?'
tbsS'v_C(trial_PE)[PP]_subj.26'
p1015
g4
(g5
(I0
tS'b'
tRp1016
(I1
(tg8
I00
S'8\x9dPd\x01A\xec?'
tbsS'v_C(trial_PE)[PP]_subj.25'
p1017
g4
(g5
(I0
tS'b'
tRp1018
(I1
(tg8
I00
S'\xde\x96\xba\x15i\xfd\xe6?'
tbsS'v_C(trial_PE)[PP]_subj.24'
p1019
g4
(g5
(I0
tS'b'
tRp1020
(I1
(tg8
I00
S'\xb1H\x88\xa9\xf4\x8d\xd8?'
tbsS'v_C(trial_PE)[PP]_subj.29'
p1021
g4
(g5
(I0
tS'b'
tRp1022
(I1
(tg8
I00
S'6Dd\xe1\xcf\xde\xea?'
tbsS'v_C(trial_PE)[PP]_subj.28'
p1023
g4
(g5
(I0
tS'b'
tRp1024
(I1
(tg8
I00
S'\xfd\xbf8\xb1\x17\x9b\xeb?'
tbsS'a'
g4
(g5
(I0
tS'b'
tRp1025
(I1
(tg8
I00
S"\x96\x85\x9b4'\x92\x00@"
tbsS'a_subj.11'
p1026
g4
(g5
(I0
tS'b'
tRp1027
(I1
(tg8
I00
S'\xa8) \xed{o\x01@'
tbsg132
g4
(g5
(I0
tS'b'
tRp1028
(I1
(tg8
I00
S'\x8ad\xe8\n\xfb^\xdb?'
tbsg299
g4
(g5
(I0
tS'b'
tRp1029
(I1
(tg8
I00
S"\x9f'\x19v\x99\xf0\xc1?"
tbsg45
g4
(g5
(I0
tS'b'
tRp1030
(I1
(tg8
I00
S'\xe4\x06>\xb8\x16T\xeb?'
tbsS'v_C(trial_PE)[PP]_subj.4'
p1031
g4
(g5
(I0
tS'b'
tRp1032
(I1
(tg8
I00
S'\xde\xe5\xff\xe53\x8b\xee?'
tbsg302
g4
(g5
(I0
tS'b'
tRp1033
(I1
(tg8
I00
S'\x9eV\x04\x00\xe4\xa5\xb3?'
tbsS't_C(trial_PE)[UU]_std'
p1034
g4
(g5
(I0
tS'b'
tRp1035
(I1
(tg8
I00
S'de\xa1\xd1\xb55\xbf?'
tbsS't_C(trial_PE)[UU]_subj.30'
p1036
g4
(g5
(I0
tS'b'
tRp1037
(I1
(tg8
I00
S'GG\xddn1\x0f\xd3?'
tbsS't_C(trial_PE)[UU]_subj.31'
p1038
g4
(g5
(I0
tS'b'
tRp1039
(I1
(tg8
I00
S'\xc0E\xa5\xdb:\x8a\xd3?'
tbsS't_C(trial_PE)[UU]_subj.32'
p1040
g4
(g5
(I0
tS'b'
tRp1041
(I1
(tg8
I00
S'\x0b\x17\xa3\x91\xea!\xd9?'
tbsS'v_C(trial_PE)[UP]_subj.7'
p1042
g4
(g5
(I0
tS'b'
tRp1043
(I1
(tg8
I00
S'~a\xd2!\xd8\xbf\xe4?'
tbssS'step_methods'
p1044
(dp1045
S'SliceStep_a_subj.17'
p1046
(dp1047
S'adaptive_scale_factor'
p1048
F1
sS'proposal_distribution'
p1049
S'Normal'
p1050
sS'proposal_sd'
p1051
cnumpy.core.multiarray
scalar
p1052
(g8
S'\xc0\x8e\xad8@A\x00@'
tRp1053
sS'accepted'
p1054
F0
sS'check_before_accepting'
p1055
I01
sS'rejected'
p1056
F0
ssS'SliceStep_v_C(trial_PE)[UP]_subj.1'
p1057
(dp1058
g1048
F1
sg1049
g1050
sg1051
g1052
(g8
S'\x15\xf8\x9fN3\x12\xfe?'
tRp1059
sg1054
F0
sg1055
I01
sg1056
F0
ssS'SliceStep_t_C(trial_PE)[PU]_subj.13'
p1060
(dp1061
g1048
F1
sg1049
g1050
sg1051
g1052
(g8
S'\\`\xe2\xf1\x9a\xaf\xdd?'
tRp1062
sg1054
F0
sg1055
I01
sg1056
F0
ssS'SliceStep_v_C(trial_PE)[UU]_subj.31'
p1063
(dp1064
g1048
F1
sg1049
g1050
sg1051
g1052
(g8
S'\x84\xfe\xb8\x05\xbe\xb6\xfd?'
tRp1065
sg1054
F0
sg1055
I01
sg1056
F0
ssS'SliceStep_v_C(trial_PE)[UU]_subj.30'
p1066
(dp1067
g1048
F1
sg1049
g1050
sg1051
g1052
(g8
S'\x80w\x11\xc6\xed2\xfa?'
tRp1068
sg1054
F0
sg1055
I01
sg1056
F0
ssS'SliceStep_v_C(trial_PE)[UP]_subj.3'
p1069
(dp1070
g1048
F1
sg1049
g1050
sg1051
g1052
(g8
S'\x88\xa5Y\x0c\xea\x9e\xfe?'
tRp1071
sg1054
F0
sg1055
I01
sg1056
F0
ssS'SliceStep_v_C(trial_PE)[PP]_subj.15'
p1072
(dp1073
g1048
F1
sg1049
g1050
sg1051
g1052
(g8
S'l\x84\xd6\r\x8d3\xfb?'
tRp1074
sg1054
F0
sg1055
I01
sg1056
F0
ssS'SliceStep_v_C(trial_PE)[UP]_subj.0'
p1075
(dp1076
g1048
F1
sg1049
g1050
sg1051
g1052
(g8
S'\x99jY4c\x8f\xfd?'
tRp1077
sg1054
F0
sg1055
I01
sg1056
F0
ssS'SliceStep_t_C(trial_PE)[UU]_subj.10'
p1078
(dp1079
g1048
F1
sg1049
g1050
sg1051
g1052
(g8
S'3\x0b\xb4\xfb\x01\xf2\xe1?'
tRp1080
sg1054
F0
sg1055
I01
sg1056
F0
ssS'SliceStep_v_C(trial_PE)[UP]_subj.5'
p1081
(dp1082
g1048
F1
sg1049
g1050
sg1051
g1052
(g8
S'O\x86\x8b\xa0\x7f\xfc\xfe?'
tRp1083
sg1054
F0
sg1055
I01
sg1056
F0
ssS'SliceStep_t_C(trial_PE)[UU]'
p1084
(dp1085
g1048
F1
sg1049
g1050
sg1051
g1052
(g8
S'\xd5=\xf0]\xe3\x1a\xdc?'
tRp1086
sg1054
F0
sg1055
I01
sg1056
F0
ssS'SliceStep_t_C(trial_PE)[PU]_subj.9'
p1087
(dp1088
g1048
F1
sg1049
g1050
sg1051
g1052
(g8
S'\x90\xa1W\xc6J\x0c\xdf?'
tRp1089
sg1054
F0
sg1055
I01
sg1056
F0
ssS'SliceStep_v_C(trial_PE)[PP]_subj.17'
p1090
(dp1091
g1048
F1
sg1049
g1050
sg1051
g1052
(g8
S'\xbd9\xccF;F\xf6?'
tRp1092
sg1054
F0
sg1055
I01
sg1056
F0
ssS'SliceStep_a_subj.9'
p1093
(dp1094
g1048
F1
sg1049
g1050
sg1051
g1052
(g8
S'\xef\xc3\x03\x9f\x0b\x11\xf9?'
tRp1095
sg1054
F0
sg1055
I01
sg1056
F0
ssS'SliceStep_a_subj.8'
p1096
(dp1097
g1048
F1
sg1049
g1050
sg1051
g1052
(g8
S'O\xb6\\)\x1fK\xfe?'
tRp1098
sg1054
F0
sg1055
I01
sg1056
F0
ssS'SliceStep_a_subj.7'
p1099
(dp1100
g1048
F1
sg1049
g1050
sg1051
g1052
(g8
S'\x9c\x1b\x02\x0c\x91Q\x05@'
tRp1101
sg1054
F0
sg1055
I01
sg1056
F0
ssS'SliceStep_a_subj.6'
p1102
(dp1103
g1048
F1
sg1049
g1050
sg1051
g1052
(g8
S'\xc0\xae\xe2\xf2\xbcg\x01@'
tRp1104
sg1054
F0
sg1055
I01
sg1056
F0
ssS'SliceStep_a_subj.5'
p1105
(dp1106
g1048
F1
sg1049
g1050
sg1051
g1052
(g8
S'e\r\xde\xad\x9e~\xfd?'
tRp1107
sg1054
F0
sg1055
I01
sg1056
F0
ssS'SliceStep_a_subj.4'
p1108
(dp1109
g1048
F1
sg1049
g1050
sg1051
g1052
(g8
S'\x8b\xf0(aA8\xfc?'
tRp1110
sg1054
F0
sg1055
I01
sg1056
F0
ssS'SliceStep_a_subj.3'
p1111
(dp1112
g1048
F1
sg1049
g1050
sg1051
g1052
(g8
S'\x95\xcb\xfd\xda\xcd\xe1\xfe?'
tRp1113
sg1054
F0
sg1055
I01
sg1056
F0
ssS'SliceStep_a_subj.2'
p1114
(dp1115
g1048
F1
sg1049
g1050
sg1051
g1052
(g8
S'x\xa1H\xe6\xac\x1c\x03@'
tRp1116
sg1054
F0
sg1055
I01
sg1056
F0
ssS'SliceStep_a_subj.1'
p1117
(dp1118
g1048
F1
sg1049
g1050
sg1051
g1052
(g8
S')\xa6\x9e\xbe\x9e\xee\xfc?'
tRp1119
sg1054
F0
sg1055
I01
sg1056
F0
ssS'SliceStep_a_subj.0'
p1120
(dp1121
g1048
F1
sg1049
g1050
sg1051
g1052
(g8
S'p,O\xc6\xaf\xb8\x01@'
tRp1122
sg1054
F0
sg1055
I01
sg1056
F0
ssS'SliceStep_t_C(trial_PE)[PP]_subj.22'
p1123
(dp1124
g1048
F1
sg1049
g1050
sg1051
g1052
(g8
S'\x10\x8f\x88p\xf0\xe2\xda?'
tRp1125
sg1054
F0
sg1055
I01
sg1056
F0
ssS'SliceStep_t_C(trial_PE)[PP]_subj.23'
p1126
(dp1127
g1048
F1
sg1049
g1050
sg1051
g1052
(g8
S'7\xc99(\x14G\xcc?'
tRp1128
sg1054
F0
sg1055
I01
sg1056
F0
ssS'SliceStep_t_C(trial_PE)[PP]_subj.20'
p1129
(dp1130
g1048
F1
sg1049
g1050
sg1051
g1052
(g8
S'\xf0\xcf\x88\xf2\xbe\xdf\xd5?'
tRp1131
sg1054
F0
sg1055
I01
sg1056
F0
ssS'SliceStep_t_C(trial_PE)[PP]_subj.21'
p1132
(dp1133
g1048
F1
sg1049
g1050
sg1051
g1052
(g8
S'\x0c2\xa9\x0b\x16\xc5\xd1?'
tRp1134
sg1054
F0
sg1055
I01
sg1056
F0
ssS'SliceStep_t_C(trial_PE)[PP]_subj.26'
p1135
(dp1136
g1048
F1
sg1049
g1050
sg1051
g1052
(g8
S'\xa0\xeb!o#1\xd3?'
tRp1137
sg1054
F0
sg1055
I01
sg1056
F0
ssS'SliceStep_v_C(trial_PE)[UP]_subj.4'
p1138
(dp1139
g1048
F1
sg1049
g1050
sg1051
g1052
(g8
S'\xb3\xa1\xde,0\x02\xff?'
tRp1140
sg1054
F0
sg1055
I01
sg1056
F0
ssS'SliceStep_t_C(trial_PE)[PP]_subj.24'
p1141
(dp1142
g1048
F1
sg1049
g1050
sg1051
g1052
(g8
S' \xbb?\x9f\x8b\x88\xd4?'
tRp1143
sg1054
F0
sg1055
I01
sg1056
F0
ssS'SliceStep_t_C(trial_PE)[PP]_subj.25'
p1144
(dp1145
g1048
F1
sg1049
g1050
sg1051
g1052
(g8
S'V\x08\xbaxP\x80\xd9?'
tRp1146
sg1054
F0
sg1055
I01
sg1056
F0
ssS'SliceStep_t_C(trial_PE)[UU]_subj.32'
p1147
(dp1148
g1048
F1
sg1049
g1050
sg1051
g1052
(g8
S'O\x05\xa7O/S\xd9?'
tRp1149
sg1054
F0
sg1055
I01
sg1056
F0
ssS'SliceStep_t_C(trial_PE)[PP]_subj.28'
p1150
(dp1151
g1048
F1
sg1049
g1050
sg1051
g1052
(g8
S'\xc5\xdci\xa1\r\x87\xd2?'
tRp1152
sg1054
F0
sg1055
I01
sg1056
F0
ssS'SliceStep_t_C(trial_PE)[UU]_subj.30'
p1153
(dp1154
g1048
F1
sg1049
g1050
sg1051
g1052
(g8
S'\xf5F\xeb\x11\xee\xf0\xdb?'
tRp1155
sg1054
F0
sg1055
I01
sg1056
F0
ssS'SliceStep_v_C(trial_PE)[UP]_subj.32'
p1156
(dp1157
g1048
F1
sg1049
g1050
sg1051
g1052
(g8
S'\x04.3\x96\x7f_\xfd?'
tRp1158
sg1054
F0
sg1055
I01
sg1056
F0
ssS'SliceStep_v_C(trial_PE)[UP]_subj.30'
p1159
(dp1160
g1048
F1
sg1049
g1050
sg1051
g1052
(g8
S'\x9cK\xe0\xc4\x81\x9d\xf8?'
tRp1161
sg1054
F0
sg1055
I01
sg1056
F0
ssS'SliceStep_v_C(trial_PE)[UP]_subj.31'
p1162
(dp1163
g1048
F1
sg1049
g1050
sg1051
g1052
(g8
S'\xc8q\x99\x12Uk\xfd?'
tRp1164
sg1054
F0
sg1055
I01
sg1056
F0
ssS'SliceStep_v_C(trial_PE)[UP]_subj.8'
p1165
(dp1166
g1048
F1
sg1049
g1050
sg1051
g1052
(g8
S'\xa9FQ\xff\x9ds\xfe?'
tRp1167
sg1054
F0
sg1055
I01
sg1056
F0
ssS'SliceStep_t_C(trial_PE)[UP]_subj.13'
p1168
(dp1169
g1048
F1
sg1049
g1050
sg1051
g1052
(g8
S'\x8a\x82\xb4\xd0`\x11\xd9?'
tRp1170
sg1054
F0
sg1055
I01
sg1056
F0
ssS'SliceStep_t_C(trial_PE)[PU]_subj.19'
p1171
(dp1172
g1048
F1
sg1049
g1050
sg1051
g1052
(g8
S'M\x94\x0cW\x94@\xdd?'
tRp1173
sg1054
F0
sg1055
I01
sg1056
F0
ssS'SliceStep_v_C(trial_PE)[UU]_subj.28'
p1174
(dp1175
g1048
F1
sg1049
g1050
sg1051
g1052
(g8
S'\x92{eE\\\xef\xfc?'
tRp1176
sg1054
F0
sg1055
I01
sg1056
F0
ssS'SliceStep_v_C(trial_PE)[UU]_subj.29'
p1177
(dp1178
g1048
F1
sg1049
g1050
sg1051
g1052
(g8
S'\xdf\x90vp\x00\xb9\xfc?'
tRp1179
sg1054
F0
sg1055
I01
sg1056
F0
ssS'SliceStep_v_C(trial_PE)[UU]_subj.22'
p1180
(dp1181
g1048
F1
sg1049
g1050
sg1051
g1052
(g8
S'$\xf16\xb8\xd9\xfd\xfd?'
tRp1182
sg1054
F0
sg1055
I01
sg1056
F0
ssS'SliceStep_v_C(trial_PE)[UU]_subj.23'
p1183
(dp1184
g1048
F1
sg1049
g1050
sg1051
g1052
(g8
S'\xca9\xb0:C\xfd\xfc?'
tRp1185
sg1054
F0
sg1055
I01
sg1056
F0
ssS'SliceStep_v_C(trial_PE)[UU]_subj.20'
p1186
(dp1187
g1048
F1
sg1049
g1050
sg1051
g1052
(g8
S'(\x9b\xa1HM\x12\x00@'
tRp1188
sg1054
F0
sg1055
I01
sg1056
F0
ssS'SliceStep_v_C(trial_PE)[UU]_subj.21'
p1189
(dp1190
g1048
F1
sg1049
g1050
sg1051
g1052
(g8
S'\x1cn19\xfe\x8d\xfe?'
tRp1191
sg1054
F0
sg1055
I01
sg1056
F0
ssS'SliceStep_v_C(trial_PE)[UU]_subj.26'
p1192
(dp1193
g1048
F1
sg1049
g1050
sg1051
g1052
(g8
S'k\x07\xeb\xbc\x8b#\xfd?'
tRp1194
sg1054
F0
sg1055
I01
sg1056
F0
ssS'SliceStep_v_C(trial_PE)[UU]_subj.27'
p1195
(dp1196
g1048
F1
sg1049
g1050
sg1051
g1052
(g8
S'A\xd1\x89\x9dW\xf2\xfb?'
tRp1197
sg1054
F0
sg1055
I01
sg1056
F0
ssS'SliceStep_v_C(trial_PE)[UU]_subj.24'
p1198
(dp1199
g1048
F1
sg1049
g1050
sg1051
g1052
(g8
S'\xe0\xdf\xf0\xc4\xef<\xfb?'
tRp1200
sg1054
F0
sg1055
I01
sg1056
F0
ssS'kNormalNormal_v_C(trial_PE)[PU]'
p1201
(dp1202
g1048
F1
sg1049
g1050
sg1051
g1052
(g8
S'\x12\x94\xbc\xb1b\xb8\xfd?'
tRp1203
sg1054
F0
sg1055
I01
sg1056
F0
ssS'SliceStep_t_C(trial_PE)[PU]_subj.32'
p1204
(dp1205
g1048
F1
sg1049
g1050
sg1051
g1052
(g8
S'\xe6\x07\xffUY\x98\xd5?'
tRp1206
sg1054
F0
sg1055
I01
sg1056
F0
ssS'SliceStep_v_C(trial_PE)[UP]_subj.18'
p1207
(dp1208
g1048
F1
sg1049
g1050
sg1051
g1052
(g8
S'\xa4W\xd1\xb7\xfce\xff?'
tRp1209
sg1054
F0
sg1055
I01
sg1056
F0
ssS'SliceStep_t_C(trial_PE)[PP]_subj.9'
p1210
(dp1211
g1048
F1
sg1049
g1050
sg1051
g1052
(g8
S'B\x04*\x85~E\xdb?'
tRp1212
sg1054
F0
sg1055
I01
sg1056
F0
ssS'SliceStep_t_C(trial_PE)[PP]_subj.8'
p1213
(dp1214
g1048
F1
sg1049
g1050
sg1051
g1052
(g8
S'>\xd3\xa8w\xa2k\xde?'
tRp1215
sg1054
F0
sg1055
I01
sg1056
F0
ssS'SliceStep_v_C(trial_PE)[T.UU]:pupil_response_1'
p1216
(dp1217
g1048
F1
sg1049
g1050
sg1051
g1052
(g8
S'\x18=\xd1\xe8\xa1\x0b\xb3='
tRp1218
sg1054
F0
sg1055
I01
sg1056
F0
ssS'SliceStep_t_C(trial_PE)[PU]_subj.4'
p1219
(dp1220
g1048
F1
sg1049
g1050
sg1051
g1052
(g8
S'\xf1\x7fMY\x8fR\xdb?'
tRp1221
sg1054
F0
sg1055
I01
sg1056
F0
ssS'SliceStep_t_C(trial_PE)[PP]_subj.3'
p1222
(dp1223
g1048
F1
sg1049
g1050
sg1051
g1052
(g8
S'Y\x1a5\x81Q\x00\xdd?'
tRp1224
sg1054
F0
sg1055
I01
sg1056
F0
ssS'SliceStep_t_C(trial_PE)[PP]_subj.2'
p1225
(dp1226
g1048
F1
sg1049
g1050
sg1051
g1052
(g8
S'9?\x84\xd1v\xc3\xe0?'
tRp1227
sg1054
F0
sg1055
I01
sg1056
F0
ssS'SliceStep_t_C(trial_PE)[PP]_subj.1'
p1228
(dp1229
g1048
F1
sg1049
g1050
sg1051
g1052
(g8
S'\xc6.\xf1\xf3\xa9A\xdd?'
tRp1230
sg1054
F0
sg1055
I01
sg1056
F0
ssS'SliceStep_t_C(trial_PE)[PU]_subj.5'
p1231
(dp1232
g1048
F1
sg1049
g1050
sg1051
g1052
(g8
S'\xdc\xdf8\xe6\xa7v\xdd?'
tRp1233
sg1054
F0
sg1055
I01
sg1056
F0
ssS'SliceStep_t_C(trial_PE)[PP]_subj.7'
p1234
(dp1235
g1048
F1
sg1049
g1050
sg1051
g1052
(g8
S'\x1e\x1e\xa3^\x82\xd9\xde?'
tRp1236
sg1054
F0
sg1055
I01
sg1056
F0
ssS'SliceStep_t_C(trial_PE)[PP]_subj.6'
p1237
(dp1238
g1048
F1
sg1049
g1050
sg1051
g1052
(g8
S" 'G\x19@S\xdb?"
tRp1239
sg1054
F0
sg1055
I01
sg1056
F0
ssS'SliceStep_t_C(trial_PE)[PP]_subj.5'
p1240
(dp1241
g1048
F1
sg1049
g1050
sg1051
g1052
(g8
S'\xb9\xbe\xd3\x1b\x17&\xd7?'
tRp1242
sg1054
F0
sg1055
I01
sg1056
F0
ssS'SliceStep_t_C(trial_PE)[PP]_subj.4'
p1243
(dp1244
g1048
F1
sg1049
g1050
sg1051
g1052
(g8
S'\x96\xd2_3\xd0\x17\xdc?'
tRp1245
sg1054
F0
sg1055
I01
sg1056
F0
ssS'SliceStep_t_C(trial_PE)[UU]_subj.28'
p1246
(dp1247
g1048
F1
sg1049
g1050
sg1051
g1052
(g8
S"s'\xa5\xd4\xaf\x84\xd2?"
tRp1248
sg1054
F0
sg1055
I01
sg1056
F0
ssS'SliceStep_t_C(trial_PE)[UU]_subj.29'
p1249
(dp1250
g1048
F1
sg1049
g1050
sg1051
g1052
(g8
S'P\xc3\xd8n\xc3\x87\xcc?'
tRp1251
sg1054
F0
sg1055
I01
sg1056
F0
ssS'SliceStep_v_C(trial_PE)[PP]_subj.1'
p1252
(dp1253
g1048
F1
sg1049
g1050
sg1051
g1052
(g8
S'\xf2OU\xda#\xdc\xf9?'
tRp1254
sg1054
F0
sg1055
I01
sg1056
F0
ssS'SliceStep_t_C(trial_PE)[UU]_subj.20'
p1255
(dp1256
g1048
F1
sg1049
g1050
sg1051
g1052
(g8
S'\xe1\xccV4\x91o\xd7?'
tRp1257
sg1054
F0
sg1055
I01
sg1056
F0
ssS'SliceStep_t_C(trial_PE)[UU]_subj.21'
p1258
(dp1259
g1048
F1
sg1049
g1050
sg1051
g1052
(g8
S'\xf2/\x08\x98\xe5\xf4\xd0?'
tRp1260
sg1054
F0
sg1055
I01
sg1056
F0
ssS'SliceStep_t_C(trial_PE)[UU]_subj.22'
p1261
(dp1262
g1048
F1
sg1049
g1050
sg1051
g1052
(g8
S'\xb6\xc1U\x1a+\x97\xd4?'
tRp1263
sg1054
F0
sg1055
I01
sg1056
F0
ssS'SliceStep_t_C(trial_PE)[UU]_subj.23'
p1264
(dp1265
g1048
F1
sg1049
g1050
sg1051
g1052
(g8
S'\xa5\x1c\xa6\xc4!\xbd\xcd?'
tRp1266
sg1054
F0
sg1055
I01
sg1056
F0
ssS'SliceStep_t_C(trial_PE)[UU]_subj.24'
p1267
(dp1268
g1048
F1
sg1049
g1050
sg1051
g1052
(g8
S'\xe6\xdd\x9d\x85z]\xd6?'
tRp1269
sg1054
F0
sg1055
I01
sg1056
F0
ssS'SliceStep_t_C(trial_PE)[UU]_subj.25'
p1270
(dp1271
g1048
F1
sg1049
g1050
sg1051
g1052
(g8
S'\xa3d \x7f4\x01\xd2?'
tRp1272
sg1054
F0
sg1055
I01
sg1056
F0
ssS'SliceStep_t_C(trial_PE)[UU]_subj.26'
p1273
(dp1274
g1048
F1
sg1049
g1050
sg1051
g1052
(g8
S'\xde\xa7Ah"&\xd7?'
tRp1275
sg1054
F0
sg1055
I01
sg1056
F0
ssS'kNormalNormal_v_C(trial_PE)[UP]'
p1276
(dp1277
g1048
F1
sg1049
g1050
sg1051
g1052
(g8
S'\x9cG\neko\xfd?'
tRp1278
sg1054
F0
sg1055
I01
sg1056
F0
ssS'SliceStep_v_C(trial_PE)[PU]_subj.30'
p1279
(dp1280
g1048
F1
sg1049
g1050
sg1051
g1052
(g8
S'a\xad\xda\x85b\xe0\xfa?'
tRp1281
sg1054
F0
sg1055
I01
sg1056
F0
ssS'SliceStep_v_C(trial_PE)[PU]_subj.31'
p1282
(dp1283
g1048
F1
sg1049
g1050
sg1051
g1052
(g8
S't\xb1w\x04\x9b\x02\xff?'
tRp1284
sg1054
F0
sg1055
I01
sg1056
F0
ssS'SliceStep_v_C(trial_PE)[PU]_subj.32'
p1285
(dp1286
g1048
F1
sg1049
g1050
sg1051
g1052
(g8
S'\xbb\xcc\xb4\xb4%\x9f\xfc?'
tRp1287
sg1054
F0
sg1055
I01
sg1056
F0
ssS'SliceStep_t_C(trial_PE)[PU]_std'
p1288
(dp1289
g1048
F1
sg1049
g1050
sg1051
g1052
(g8
S'1\x12q\xb5l0\xbc?'
tRp1290
sg1054
F0
sg1055
I01
sg1056
F0
ssS'SliceStep_t_C(trial_PE)[PU]_subj.31'
p1291
(dp1292
g1048
F1
sg1049
g1050
sg1051
g1052
(g8
S'\x12\xa1\xabp\x00=\xd2?'
tRp1293
sg1054
F0
sg1055
I01
sg1056
F0
ssS'SliceStep_t_C(trial_PE)[PP]_subj.0'
p1294
(dp1295
g1048
F1
sg1049
g1050
sg1051
g1052
(g8
S']\x05\\\x9d\x81\xbe\xe3?'
tRp1296
sg1054
F0
sg1055
I01
sg1056
F0
ssS'SliceStep_v_C(trial_PE)[PP]_subj.24'
p1297
(dp1298
g1048
F1
sg1049
g1050
sg1051
g1052
(g8
S'$Jiw\xd2\xf5\xf0?'
tRp1299
sg1054
F0
sg1055
I01
sg1056
F0
ssS'SliceStep_t_C(trial_PE)[PP]'
p1300
(dp1301
g1048
F1
sg1049
g1050
sg1051
g1052
(g8
S'\x80\xb6\xabO\x84\xba\xd8?'
tRp1302
sg1054
F0
sg1055
I01
sg1056
F0
ssS'SliceStep_v_C(trial_PE)[PP]_subj.9'
p1303
(dp1304
g1048
F1
sg1049
g1050
sg1051
g1052
(g8
S'\xa5\xe7\x03\xbb\xc7\x91\xfb?'
tRp1305
sg1054
F0
sg1055
I01
sg1056
F0
ssS'SliceStep_v_C(trial_PE)[PP]_subj.8'
p1306
(dp1307
g1048
F1
sg1049
g1050
sg1051
g1052
(g8
S'\xd7*\xa6\xf2\xccq\xfb?'
tRp1308
sg1054
F0
sg1055
I01
sg1056
F0
ssS'SliceStep_t_C(trial_PE)[UU]_std'
p1309
(dp1310
g1048
F1
sg1049
g1050
sg1051
g1052
(g8
S'\xff\xe6\xd3\x82\x81#\xc0?'
tRp1311
sg1054
F0
sg1055
I01
sg1056
F0
ssS'SliceStep_v_C(trial_PE)[PP]_subj.5'
p1312
(dp1313
g1048
F1
sg1049
g1050
sg1051
g1052
(g8
S'\xb9\xbe@\xef-\xb4\xfa?'
tRp1314
sg1054
F0
sg1055
I01
sg1056
F0
ssS'SliceStep_v_C(trial_PE)[PP]_subj.4'
p1315
(dp1316
g1048
F1
sg1049
g1050
sg1051
g1052
(g8
S'\xeb\x92\x88\xd0sB\xfb?'
tRp1317
sg1054
F0
sg1055
I01
sg1056
F0
ssS'SliceStep_v_C(trial_PE)[PP]_subj.7'
p1318
(dp1319
g1048
F1
sg1049
g1050
sg1051
g1052
(g8
S'\xfd\x83&N#\x0c\xf6?'
tRp1320
sg1054
F0
sg1055
I01
sg1056
F0
ssS'SliceStep_v_C(trial_PE)[PP]_subj.6'
p1321
(dp1322
g1048
F1
sg1049
g1050
sg1051
g1052
(g8
S'i.\xba\xb0\x96\x9a\xf7?'
tRp1323
sg1054
F0
sg1055
I01
sg1056
F0
ssS'kNormalNormal_v_C(trial_PE)[UU]'
p1324
(dp1325
g1048
F1
sg1049
g1050
sg1051
g1052
(g8
S'\t\x99~\xd3\x04\x95\xfd?'
tRp1326
sg1054
F0
sg1055
I01
sg1056
F0
ssS'SliceStep_v_C(trial_PE)[PP]_subj.0'
p1327
(dp1328
g1048
F1
sg1049
g1050
sg1051
g1052
(g8
S'\xe3\xa6\x1f\xbe\xcd5\xf6?'
tRp1329
sg1054
F0
sg1055
I01
sg1056
F0
ssS'SliceStep_v_C(trial_PE)[PP]_subj.3'
p1330
(dp1331
g1048
F1
sg1049
g1050
sg1051
g1052
(g8
S'I\xdfk,\xca\xed\xfb?'
tRp1332
sg1054
F0
sg1055
I01
sg1056
F0
ssS'SliceStep_v_C(trial_PE)[PP]_subj.2'
p1333
(dp1334
g1048
F1
sg1049
g1050
sg1051
g1052
(g8
S'\x15\xfe\x17[\xeb\xb5\xf5?'
tRp1335
sg1054
F0
sg1055
I01
sg1056
F0
ssS'SliceStep_t_C(trial_PE)[UU]_subj.19'
p1336
(dp1337
g1048
F1
sg1049
g1050
sg1051
g1052
(g8
S'SN\xb9\xa4M\xab\xe1?'
tRp1338
sg1054
F0
sg1055
I01
sg1056
F0
ssS'SliceStep_t_C(trial_PE)[UU]_subj.18'
p1339
(dp1340
g1048
F1
sg1049
g1050
sg1051
g1052
(g8
S'"\xb5"\x10m*\xd7?'
tRp1341
sg1054
F0
sg1055
I01
sg1056
F0
ssS'SliceStep_t_C(trial_PE)[UU]_subj.15'
p1342
(dp1343
g1048
F1
sg1049
g1050
sg1051
g1052
(g8
S'\xf6i\x7f\x96\xc15\xde?'
tRp1344
sg1054
F0
sg1055
I01
sg1056
F0
ssS'SliceStep_t_C(trial_PE)[UU]_subj.14'
p1345
(dp1346
g1048
F1
sg1049
g1050
sg1051
g1052
(g8
S'\x87\x01\x06\xa8\x97\x85\xe0?'
tRp1347
sg1054
F0
sg1055
I01
sg1056
F0
ssS'SliceStep_t_C(trial_PE)[UU]_subj.17'
p1348
(dp1349
g1048
F1
sg1049
g1050
sg1051
g1052
(g8
S'\x11UOuS\x93\xda?'
tRp1350
sg1054
F0
sg1055
I01
sg1056
F0
ssS'SliceStep_a'
p1351
(dp1352
g1048
F1
sg1049
g1050
sg1051
g1052
(g8
S'\\\xcfv\xac\x1c\xf0\x00@'
tRp1353
sg1054
F0
sg1055
I01
sg1056
F0
ssS'SliceStep_t_C(trial_PE)[UU]_subj.11'
p1354
(dp1355
g1048
F1
sg1049
g1050
sg1051
g1052
(g8
S'\xe7\xcc\xe5\x8a\xeb\x9d\xe3?'
tRp1356
sg1054
F0
sg1055
I01
sg1056
F0
ssS'SliceStep_t_C(trial_PE)[PP]_subj.19'
p1357
(dp1358
g1048
F1
sg1049
g1050
sg1051
g1052
(g8
S'"\xfc\x80\xeb\xc6#\xdc?'
tRp1359
sg1054
F0
sg1055
I01
sg1056
F0
ssS'SliceStep_t_C(trial_PE)[UU]_subj.13'
p1360
(dp1361
g1048
F1
sg1049
g1050
sg1051
g1052
(g8
S'\xd6\xbfN\xba\xa5\xd5\xdc?'
tRp1362
sg1054
F0
sg1055
I01
sg1056
F0
ssS'SliceStep_t_C(trial_PE)[UU]_subj.12'
p1363
(dp1364
g1048
F1
sg1049
g1050
sg1051
g1052
(g8
S'\xc8\xa1\x12\x8e*\x1a\xe0?'
tRp1365
sg1054
F0
sg1055
I01
sg1056
F0
ssS'SliceStep_t_C(trial_PE)[UP]_subj.23'
p1366
(dp1367
g1048
F1
sg1049
g1050
sg1051
g1052
(g8
S'\xbc\xf2Z\x0c7]\xce?'
tRp1368
sg1054
F0
sg1055
I01
sg1056
F0
ssS'SliceStep_a_subj.26'
p1369
(dp1370
g1048
F1
sg1049
g1050
sg1051
g1052
(g8
S'^oT\x92\xe6]\x01@'
tRp1371
sg1054
F0
sg1055
I01
sg1056
F0
ssS'SliceStep_t_C(trial_PE)[UP]_subj.21'
p1372
(dp1373
g1048
F1
sg1049
g1050
sg1051
g1052
(g8
S'\xe28\x15\xba\xc4\x91\xd5?'
tRp1374
sg1054
F0
sg1055
I01
sg1056
F0
ssS'SliceStep_t_C(trial_PE)[UP]_subj.20'
p1375
(dp1376
g1048
F1
sg1049
g1050
sg1051
g1052
(g8
S'\xaf\x0c\xf2,[n\xd8?'
tRp1377
sg1054
F0
sg1055
I01
sg1056
F0
ssS'SliceStep_t_C(trial_PE)[UP]_subj.27'
p1378
(dp1379
g1048
F1
sg1049
g1050
sg1051
g1052
(g8
S'K\xe2\xe0\x8dh#\xdc?'
tRp1380
sg1054
F0
sg1055
I01
sg1056
F0
ssS'SliceStep_t_C(trial_PE)[UP]_subj.26'
p1381
(dp1382
g1048
F1
sg1049
g1050
sg1051
g1052
(g8
S'y\xc7\xa8\x85\xdc\xce\xd5?'
tRp1383
sg1054
F0
sg1055
I01
sg1056
F0
ssS'SliceStep_t_C(trial_PE)[UP]_subj.25'
p1384
(dp1385
g1048
F1
sg1049
g1050
sg1051
g1052
(g8
S'\xb7(\xb8J\xa8j\xdb?'
tRp1386
sg1054
F0
sg1055
I01
sg1056
F0
ssS'SliceStep_t_C(trial_PE)[UP]_subj.24'
p1387
(dp1388
g1048
F1
sg1049
g1050
sg1051
g1052
(g8
S'1\xef<\xda7\xc1\xd5?'
tRp1389
sg1054
F0
sg1055
I01
sg1056
F0
ssS'SliceStep_t_C(trial_PE)[UP]_subj.29'
p1390
(dp1391
g1048
F1
sg1049
g1050
sg1051
g1052
(g8
S'\xcec\x1a^L\xe3\xd1?'
tRp1392
sg1054
F0
sg1055
I01
sg1056
F0
ssS'SliceStep_t_C(trial_PE)[UP]_subj.28'
p1393
(dp1394
g1048
F1
sg1049
g1050
sg1051
g1052
(g8
S'\x8c\xa3\xbeN\x02\x1d\xd6?'
tRp1395
sg1054
F0
sg1055
I01
sg1056
F0
ssS'SliceStep_t_C(trial_PE)[UP]_subj.22'
p1396
(dp1397
g1048
F1
sg1049
g1050
sg1051
g1052
(g8
S'D\x98\x9b\xd8\xf4\xeb\xd7?'
tRp1398
sg1054
F0
sg1055
I01
sg1056
F0
ssS'SliceStep_v_C(trial_PE)[PU]_subj.6'
p1399
(dp1400
g1048
F1
sg1049
g1050
sg1051
g1052
(g8
S'\xec\xb1\x80\x98\xf7\xaf\xfd?'
tRp1401
sg1054
F0
sg1055
I01
sg1056
F0
ssS'SliceStep_t_C(trial_PE)[UP]_subj.0'
p1402
(dp1403
g1048
F1
sg1049
g1050
sg1051
g1052
(g8
S'\xcf\xf2%\xc7vu\xe6?'
tRp1404
sg1054
F0
sg1055
I01
sg1056
F0
ssS'SliceStep_t_C(trial_PE)[UP]_subj.1'
p1405
(dp1406
g1048
F1
sg1049
g1050
sg1051
g1052
(g8
S'\x9a\xea6\xd7\xaaa\xdd?'
tRp1407
sg1054
F0
sg1055
I01
sg1056
F0
ssS'SliceStep_t_C(trial_PE)[UP]_subj.2'
p1408
(dp1409
g1048
F1
sg1049
g1050
sg1051
g1052
(g8
S'U\xd0$\x1a\xf4\x90\xe4?'
tRp1410
sg1054
F0
sg1055
I01
sg1056
F0
ssS'SliceStep_t_C(trial_PE)[UP]_subj.3'
p1411
(dp1412
g1048
F1
sg1049
g1050
sg1051
g1052
(g8
S'\xa1\x93\x00\x84\xf5i\xe4?'
tRp1413
sg1054
F0
sg1055
I01
sg1056
F0
ssS'SliceStep_t_C(trial_PE)[UP]_subj.4'
p1414
(dp1415
g1048
F1
sg1049
g1050
sg1051
g1052
(g8
S'\xcd7\x9bEA\x95\xda?'
tRp1416
sg1054
F0
sg1055
I01
sg1056
F0
ssS'SliceStep_t_C(trial_PE)[UP]_subj.5'
p1417
(dp1418
g1048
F1
sg1049
g1050
sg1051
g1052
(g8
S'I\x1a\xf1-\xb4\xd6\xdd?'
tRp1419
sg1054
F0
sg1055
I01
sg1056
F0
ssS'SliceStep_t_C(trial_PE)[UP]_subj.6'
p1420
(dp1421
g1048
F1
sg1049
g1050
sg1051
g1052
(g8
S'P\xfe\xee\xe1\x14!\xe2?'
tRp1422
sg1054
F0
sg1055
I01
sg1056
F0
ssS'SliceStep_t_C(trial_PE)[UP]_subj.7'
p1423
(dp1424
g1048
F1
sg1049
g1050
sg1051
g1052
(g8
S'\x99\n\x1eO\xdb\x01\xea?'
tRp1425
sg1054
F0
sg1055
I01
sg1056
F0
ssS'SliceStep_t_C(trial_PE)[UP]_subj.8'
p1426
(dp1427
g1048
F1
sg1049
g1050
sg1051
g1052
(g8
S'_l*M\xb9\xd9\xdc?'
tRp1428
sg1054
F0
sg1055
I01
sg1056
F0
ssS'SliceStep_t_C(trial_PE)[UP]_subj.9'
p1429
(dp1430
g1048
F1
sg1049
g1050
sg1051
g1052
(g8
S'\xd2&d\x988?\xdc?'
tRp1431
sg1054
F0
sg1055
I01
sg1056
F0
ssS'SliceStep_a_subj.23'
p1432
(dp1433
g1048
F1
sg1049
g1050
sg1051
g1052
(g8
S'\xd0\xa0\x95\x9e-c\x00@'
tRp1434
sg1054
F0
sg1055
I01
sg1056
F0
ssS'SliceStep_v_C(trial_PE)[PU]_subj.27'
p1435
(dp1436
g1048
F1
sg1049
g1050
sg1051
g1052
(g8
S'\x1c\xf1\x81A\x0f0\xfd?'
tRp1437
sg1054
F0
sg1055
I01
sg1056
F0
ssS'SliceStep_t_C(trial_PE)[PP]_subj.13'
p1438
(dp1439
g1048
F1
sg1049
g1050
sg1051
g1052
(g8
S'/%\xf8\xd8\xc1Q\xdc?'
tRp1440
sg1054
F0
sg1055
I01
sg1056
F0
ssS'SliceStep_v_C(trial_PE)[PU]_subj.25'
p1441
(dp1442
g1048
F1
sg1049
g1050
sg1051
g1052
(g8
S'\xfc\xe9"\x9fg\xf6\xfc?'
tRp1443
sg1054
F0
sg1055
I01
sg1056
F0
ssS'SliceStep_v_C(trial_PE)[PU]_subj.24'
p1444
(dp1445
g1048
F1
sg1049
g1050
sg1051
g1052
(g8
S'9\x11H\xd53\xb5\xfa?'
tRp1446
sg1054
F0
sg1055
I01
sg1056
F0
ssS'SliceStep_v_C(trial_PE)[PU]_subj.23'
p1447
(dp1448
g1048
F1
sg1049
g1050
sg1051
g1052
(g8
S'\xac\xe5\x96\x05N\x86\xfd?'
tRp1449
sg1054
F0
sg1055
I01
sg1056
F0
ssS'SliceStep_v_C(trial_PE)[PU]_subj.22'
p1450
(dp1451
g1048
F1
sg1049
g1050
sg1051
g1052
(g8
S'\xa6\x8b\xe5c\xd6\x98\xfe?'
tRp1452
sg1054
F0
sg1055
I01
sg1056
F0
ssS'SliceStep_v_C(trial_PE)[PP]_subj.16'
p1453
(dp1454
g1048
F1
sg1049
g1050
sg1051
g1052
(g8
S'e\xd5I\xda\x0e\x14\xf8?'
tRp1455
sg1054
F0
sg1055
I01
sg1056
F0
ssS'SliceStep_v_C(trial_PE)[PU]_subj.20'
p1456
(dp1457
g1048
F1
sg1049
g1050
sg1051
g1052
(g8
S'A\xec\x11\xe1Dk\xff?'
tRp1458
sg1054
F0
sg1055
I01
sg1056
F0
ssS'SliceStep_v_C(trial_PE)[UU]_subj.32'
p1459
(dp1460
g1048
F1
sg1049
g1050
sg1051
g1052
(g8
S'l\x8f\x80\x11\xfa\xfd\xfc?'
tRp1461
sg1054
F0
sg1055
I01
sg1056
F0
ssS'SliceStep_v_C(trial_PE)[PU]_subj.3'
p1462
(dp1463
g1048
F1
sg1049
g1050
sg1051
g1052
(g8
S'I\xbdHp\x1f\x84\xfe?'
tRp1464
sg1054
F0
sg1055
I01
sg1056
F0
ssS'SliceStep_t_C(trial_PE)[UP]_std'
p1465
(dp1466
g1048
F1
sg1049
g1050
sg1051
g1052
(g8
S'\xe8\xfe\x81H\xda\xeb\xbd?'
tRp1467
sg1054
F0
sg1055
I01
sg1056
F0
ssS'SliceStep_t_C(trial_PE)[PP]_subj.11'
p1468
(dp1469
g1048
F1
sg1049
g1050
sg1051
g1052
(g8
S'\xb3\x7fl\t\x8b\x84\xdd?'
tRp1470
sg1054
F0
sg1055
I01
sg1056
F0
ssS'SliceStep_v_C(trial_PE)[PU]_subj.29'
p1471
(dp1472
g1048
F1
sg1049
g1050
sg1051
g1052
(g8
S'">\x8d5\xa3\x90\xfc?'
tRp1473
sg1054
F0
sg1055
I01
sg1056
F0
ssS'SliceStep_t_C(trial_PE)[PP]_subj.27'
p1474
(dp1475
g1048
F1
sg1049
g1050
sg1051
g1052
(g8
S'O\xea\xe2\xfc\xbc\xe8\xd7?'
tRp1476
sg1054
F0
sg1055
I01
sg1056
F0
ssS'SliceStep_t_C(trial_PE)[PP]_subj.30'
p1477
(dp1478
g1048
F1
sg1049
g1050
sg1051
g1052
(g8
S'\xf1g\x82\xbc=\xa8\xc5?'
tRp1479
sg1054
F0
sg1055
I01
sg1056
F0
ssS'SliceStep_t_C(trial_PE)[PP]_subj.10'
p1480
(dp1481
g1048
F1
sg1049
g1050
sg1051
g1052
(g8
S'\xb6_\x92\xbcb\xba\xd8?'
tRp1482
sg1054
F0
sg1055
I01
sg1056
F0
ssS'SliceStep_a_subj.12'
p1483
(dp1484
g1048
F1
sg1049
g1050
sg1051
g1052
(g8
S'\xdc\x90\xae\x83\x07\xab\x01@'
tRp1485
sg1054
F0
sg1055
I01
sg1056
F0
ssS'SliceStep_v_C(trial_PE)[PU]_subj.26'
p1486
(dp1487
g1048
F1
sg1049
g1050
sg1051
g1052
(g8
S'\xe0\x8du\xb4\x13\xb1\xfd?'
tRp1488
sg1054
F0
sg1055
I01
sg1056
F0
ssS'SliceStep_t_C(trial_PE)[PP]_subj.17'
p1489
(dp1490
g1048
F1
sg1049
g1050
sg1051
g1052
(g8
S' \xd5\xd94\xd8V\xd8?'
tRp1491
sg1054
F0
sg1055
I01
sg1056
F0
ssS'SliceStep_t_C(trial_PE)[PP]_subj.18'
p1492
(dp1493
g1048
F1
sg1049
g1050
sg1051
g1052
(g8
S'$\xae\xd5c\xcd\x9b\xd6?'
tRp1494
sg1054
F0
sg1055
I01
sg1056
F0
ssS'SliceStep_t_C(trial_PE)[UP]_subj.17'
p1495
(dp1496
g1048
F1
sg1049
g1050
sg1051
g1052
(g8
S'0\x1c\xb2V\xf4\x14\xd8?'
tRp1497
sg1054
F0
sg1055
I01
sg1056
F0
ssS'SliceStep_t_C(trial_PE)[UP]_subj.30'
p1498
(dp1499
g1048
F1
sg1049
g1050
sg1051
g1052
(g8
S'y}!\xa2\xfdi\xd7?'
tRp1500
sg1054
F0
sg1055
I01
sg1056
F0
ssS'SliceStep_t_C(trial_PE)[UP]_subj.31'
p1501
(dp1502
g1048
F1
sg1049
g1050
sg1051
g1052
(g8
S'\xf3\x9d\x83{\xf9\x90\xd3?'
tRp1503
sg1054
F0
sg1055
I01
sg1056
F0
ssS'SliceStep_t_C(trial_PE)[UP]_subj.32'
p1504
(dp1505
g1048
F1
sg1049
g1050
sg1051
g1052
(g8
S'\xf4\xb2M\xa0,\xa9\xd7?'
tRp1506
sg1054
F0
sg1055
I01
sg1056
F0
ssS'SliceStep_t_C(trial_PE)[UP]_subj.14'
p1507
(dp1508
g1048
F1
sg1049
g1050
sg1051
g1052
(g8
S'\x86\x18\xbb\x1a\x95\xc7\xe0?'
tRp1509
sg1054
F0
sg1055
I01
sg1056
F0
ssS'SliceStep_t_C(trial_PE)[UP]_subj.15'
p1510
(dp1511
g1048
F1
sg1049
g1050
sg1051
g1052
(g8
S'\x91\xa4u\xb8\x94q\xda?'
tRp1512
sg1054
F0
sg1055
I01
sg1056
F0
ssS'SliceStep_t_C(trial_PE)[UU]_subj.31'
p1513
(dp1514
g1048
F1
sg1049
g1050
sg1051
g1052
(g8
S'\x99%\xe3x\xcd\xa5\xd2?'
tRp1515
sg1054
F0
sg1055
I01
sg1056
F0
ssS'SliceStep_v_C(trial_PE)[UP]_subj.2'
p1516
(dp1517
g1048
F1
sg1049
g1050
sg1051
g1052
(g8
S'\xd3"\x18\xb5\xd8<\xfd?'
tRp1518
sg1054
F0
sg1055
I01
sg1056
F0
ssS'SliceStep_a_subj.16'
p1519
(dp1520
g1048
F1
sg1049
g1050
sg1051
g1052
(g8
S'<\xd5%\xf9\xc8\xdd\x00@'
tRp1521
sg1054
F0
sg1055
I01
sg1056
F0
ssS'SliceStep_a_subj.15'
p1522
(dp1523
g1048
F1
sg1049
g1050
sg1051
g1052
(g8
S'\x8b\xaa\xf5\xb3\xf6\x9b\x01@'
tRp1524
sg1054
F0
sg1055
I01
sg1056
F0
ssS'SliceStep_t_C(trial_PE)[PP]_subj.29'
p1525
(dp1526
g1048
F1
sg1049
g1050
sg1051
g1052
(g8
S'\xa0\x81\xef\xec<\xa2\xd1?'
tRp1527
sg1054
F0
sg1055
I01
sg1056
F0
ssS'SliceStep_a_subj.13'
p1528
(dp1529
g1048
F1
sg1049
g1050
sg1051
g1052
(g8
S'\xa8P-\xd3d/\x02@'
tRp1530
sg1054
F0
sg1055
I01
sg1056
F0
ssS'SliceStep_v_C(trial_PE)[UP]_subj.7'
p1531
(dp1532
g1048
F1
sg1049
g1050
sg1051
g1052
(g8
S'\xf7}\xa0\t\xec\x12\xfd?'
tRp1533
sg1054
F0
sg1055
I01
sg1056
F0
ssS'SliceStep_a_subj.11'
p1534
(dp1535
g1048
F1
sg1049
g1050
sg1051
g1052
(g8
S'\xa2\xe1\xcba\xe2}\x01@'
tRp1536
sg1054
F0
sg1055
I01
sg1056
F0
ssS'SliceStep_a_subj.10'
p1537
(dp1538
g1048
F1
sg1049
g1050
sg1051
g1052
(g8
S'\xa0\xcd\x1f5Xf\x00@'
tRp1539
sg1054
F0
sg1055
I01
sg1056
F0
ssS'SliceStep_t_C(trial_PE)[PU]_subj.2'
p1540
(dp1541
g1048
F1
sg1049
g1050
sg1051
g1052
(g8
S'\x94C\xd6\xf8\xb9\xbf\xe3?'
tRp1542
sg1054
F0
sg1055
I01
sg1056
F0
ssS'SliceStep_t_C(trial_PE)[PU]_subj.3'
p1543
(dp1544
g1048
F1
sg1049
g1050
sg1051
g1052
(g8
S'\xbc\x052\xce\xa6\xf1\xdf?'
tRp1545
sg1054
F0
sg1055
I01
sg1056
F0
ssS'SliceStep_t_C(trial_PE)[PU]_subj.0'
p1546
(dp1547
g1048
F1
sg1049
g1050
sg1051
g1052
(g8
S'\x1a\xd0G$\x91\x18\xe6?'
tRp1548
sg1054
F0
sg1055
I01
sg1056
F0
ssS'SliceStep_v_C(trial_PE)[UP]_subj.9'
p1549
(dp1550
g1048
F1
sg1049
g1050
sg1051
g1052
(g8
S'\xea\x9dlb{|\xfe?'
tRp1551
sg1054
F0
sg1055
I01
sg1056
F0
ssS'SliceStep_t_C(trial_PE)[PU]_subj.6'
p1552
(dp1553
g1048
F1
sg1049
g1050
sg1051
g1052
(g8
S'x`\xa7\xb4\x04w\xe0?'
tRp1554
sg1054
F0
sg1055
I01
sg1056
F0
ssS'SliceStep_t_C(trial_PE)[PU]_subj.7'
p1555
(dp1556
g1048
F1
sg1049
g1050
sg1051
g1052
(g8
S'\x93\x94\x8cY\x88\x9e\xe2?'
tRp1557
sg1054
F0
sg1055
I01
sg1056
F0
ssS'SliceStep_a_subj.19'
p1558
(dp1559
g1048
F1
sg1049
g1050
sg1051
g1052
(g8
S'\x89D:3$J\x02@'
tRp1560
sg1054
F0
sg1055
I01
sg1056
F0
ssS'SliceStep_a_subj.18'
p1561
(dp1562
g1048
F1
sg1049
g1050
sg1051
g1052
(g8
S'R!t\xb9\t\xfc\xfa?'
tRp1563
sg1054
F0
sg1055
I01
sg1056
F0
ssS'SliceStep_v_C(trial_PE)[UU]_subj.3'
p1564
(dp1565
g1048
F1
sg1049
g1050
sg1051
g1052
(g8
S'\x0e\x16\xca\x0c\x14q\xfe?'
tRp1566
sg1054
F0
sg1055
I01
sg1056
F0
ssS'SliceStep_v_C(trial_PE)[UU]_subj.2'
p1567
(dp1568
g1048
F1
sg1049
g1050
sg1051
g1052
(g8
S'\x17\x07\x1dB@\x9b\xfc?'
tRp1569
sg1054
F0
sg1055
I01
sg1056
F0
ssS'SliceStep_v_C(trial_PE)[UU]_subj.1'
p1570
(dp1571
g1048
F1
sg1049
g1050
sg1051
g1052
(g8
S'\xb8Q\x9d\x13\x08\xe0\xfe?'
tRp1572
sg1054
F0
sg1055
I01
sg1056
F0
ssS'SliceStep_v_C(trial_PE)[UU]_subj.0'
p1573
(dp1574
g1048
F1
sg1049
g1050
sg1051
g1052
(g8
S'\xda\xe4K\x16\xe5e\xfe?'
tRp1575
sg1054
F0
sg1055
I01
sg1056
F0
ssS'SliceStep_v_C(trial_PE)[UU]_subj.7'
p1576
(dp1577
g1048
F1
sg1049
g1050
sg1051
g1052
(g8
S'C\x94\x0f\xb8\xb9\x9a\xfd?'
tRp1578
sg1054
F0
sg1055
I01
sg1056
F0
ssS'SliceStep_v_C(trial_PE)[UU]_subj.6'
p1579
(dp1580
g1048
F1
sg1049
g1050
sg1051
g1052
(g8
S'\x0eLN"\xfd\xde\xfe?'
tRp1581
sg1054
F0
sg1055
I01
sg1056
F0
ssS'SliceStep_v_C(trial_PE)[UU]_subj.5'
p1582
(dp1583
g1048
F1
sg1049
g1050
sg1051
g1052
(g8
S'\x88b\xfe,\xab\xe2\xfe?'
tRp1584
sg1054
F0
sg1055
I01
sg1056
F0
ssS'SliceStep_v_C(trial_PE)[UU]_subj.4'
p1585
(dp1586
g1048
F1
sg1049
g1050
sg1051
g1052
(g8
S'\xd4\x81\xda\x8d\x11k\xfe?'
tRp1587
sg1054
F0
sg1055
I01
sg1056
F0
ssS'SliceStep_v_C(trial_PE)[UU]_subj.9'
p1588
(dp1589
g1048
F1
sg1049
g1050
sg1051
g1052
(g8
S'v\xa8s\xe2Z\xbf\xff?'
tRp1590
sg1054
F0
sg1055
I01
sg1056
F0
ssS'SliceStep_v_C(trial_PE)[UU]_subj.8'
p1591
(dp1592
g1048
F1
sg1049
g1050
sg1051
g1052
(g8
S'J\xa5\xed\x14"\xd7\xfd?'
tRp1593
sg1054
F0
sg1055
I01
sg1056
F0
ssS'SliceStep_t_C(trial_PE)[PP]_subj.31'
p1594
(dp1595
g1048
F1
sg1049
g1050
sg1051
g1052
(g8
S'q\xc5\x18X\xefP\xcb?'
tRp1596
sg1054
F0
sg1055
I01
sg1056
F0
ssS'SliceStep_v_C(trial_PE)[UP]_subj.6'
p1597
(dp1598
g1048
F1
sg1049
g1050
sg1051
g1052
(g8
S'\x04\xe5\xc3\x1f\x18\x9b\xfd?'
tRp1599
sg1054
F0
sg1055
I01
sg1056
F0
ssS'SliceStep_v_C(trial_PE)[UU]_std'
p1600
(dp1601
g1048
F1
sg1049
g1050
sg1051
g1052
(g8
S'N\xa8E\x8fq\xa6\xb3?'
tRp1602
sg1054
F0
sg1055
I01
sg1056
F0
ssS'SliceStep_a_subj.25'
p1603
(dp1604
g1048
F1
sg1049
g1050
sg1051
g1052
(g8
S'\x86,\xbe&\x8f\x82\x01@'
tRp1605
sg1054
F0
sg1055
I01
sg1056
F0
ssS'SliceStep_v_C(trial_PE)[PP]_subj.32'
p1606
(dp1607
g1048
F1
sg1049
g1050
sg1051
g1052
(g8
S'\t{\xdc)\x86\xd3\xf6?'
tRp1608
sg1054
F0
sg1055
I01
sg1056
F0
ssS'SliceStep_v_C(trial_PE)[PP]_subj.31'
p1609
(dp1610
g1048
F1
sg1049
g1050
sg1051
g1052
(g8
S'\xc2\xa7"\xe6\x04\xe6\xf8?'
tRp1611
sg1054
F0
sg1055
I01
sg1056
F0
ssS'SliceStep_v_C(trial_PE)[PP]_subj.30'
p1612
(dp1613
g1048
F1
sg1049
g1050
sg1051
g1052
(g8
S'\x17\xd7\xa6\xcb_\xf5\xe9?'
tRp1614
sg1054
F0
sg1055
I01
sg1056
F0
ssS'SliceStep_v_C(trial_PE)[T.UP]:pupil_response_1'
p1615
(dp1616
g1048
F1
sg1049
g1050
sg1051
g1052
(g8
S'z1\xe2\xe7\x0e\xaf\xbd>'
tRp1617
sg1054
F0
sg1055
I01
sg1056
F0
ssS'SliceStep_v_pupil_response_1'
p1618
(dp1619
g1048
F1
sg1049
g1050
sg1051
g1052
(g8
S'\x00/\xe6d\x96He>'
tRp1620
sg1054
F0
sg1055
I01
sg1056
F0
ssS'SliceStep_t_C(trial_PE)[UU]_subj.27'
p1621
(dp1622
g1048
F1
sg1049
g1050
sg1051
g1052
(g8
S'\xcb2\x8a\x15\x97W\xe0?'
tRp1623
sg1054
F0
sg1055
I01
sg1056
F0
ssS'SliceStep_v_C(trial_PE)[PU]_subj.28'
p1624
(dp1625
g1048
F1
sg1049
g1050
sg1051
g1052
(g8
S'\xc89M\x95a\x08\xfd?'
tRp1626
sg1054
F0
sg1055
I01
sg1056
F0
ssS'SliceStep_v_C(trial_PE)[UU]_subj.10'
p1627
(dp1628
g1048
F1
sg1049
g1050
sg1051
g1052
(g8
S'"\x90\x84\x0bJx\xfd?'
tRp1629
sg1054
F0
sg1055
I01
sg1056
F0
ssS'SliceStep_a_std'
p1630
(dp1631
g1048
F1
sg1049
g1050
sg1051
g1052
(g8
S'\x83#\xbe\xfe\xdbK\xd1?'
tRp1632
sg1054
F0
sg1055
I01
sg1056
F0
ssS'SliceStep_t_C(trial_PE)[UU]_subj.9'
p1633
(dp1634
g1048
F1
sg1049
g1050
sg1051
g1052
(g8
S'\x8el\xf2\x84\xd2\xcc\xde?'
tRp1635
sg1054
F0
sg1055
I01
sg1056
F0
ssS'SliceStep_t_C(trial_PE)[UU]_subj.8'
p1636
(dp1637
g1048
F1
sg1049
g1050
sg1051
g1052
(g8
S'&\x82\xa1\xe2\x08_\xde?'
tRp1638
sg1054
F0
sg1055
I01
sg1056
F0
ssS'kNormalNormal_v_C(trial_PE)[PP]'
p1639
(dp1640
g1048
F1
sg1049
g1050
sg1051
g1052
(g8
S'\xa0\xad[4\xe4\xfa\xf7?'
tRp1641
sg1054
F0
sg1055
I01
sg1056
F0
ssS'SliceStep_v_C(trial_PE)[UU]_subj.18'
p1642
(dp1643
g1048
F1
sg1049
g1050
sg1051
g1052
(g8
S'N\x04\x00\x07R\x97\xfe?'
tRp1644
sg1054
F0
sg1055
I01
sg1056
F0
ssS'SliceStep_t_C(trial_PE)[UU]_subj.1'
p1645
(dp1646
g1048
F1
sg1049
g1050
sg1051
g1052
(g8
S'\x86,\xd3w+\xd0\xde?'
tRp1647
sg1054
F0
sg1055
I01
sg1056
F0
ssS'SliceStep_t_C(trial_PE)[UU]_subj.0'
p1648
(dp1649
g1048
F1
sg1049
g1050
sg1051
g1052
(g8
S'\x10\xed\xaaCW\xfc\xe5?'
tRp1650
sg1054
F0
sg1055
I01
sg1056
F0
ssS'SliceStep_t_C(trial_PE)[UU]_subj.3'
p1651
(dp1652
g1048
F1
sg1049
g1050
sg1051
g1052
(g8
S'c=v\x9d\xc1.\xe6?'
tRp1653
sg1054
F0
sg1055
I01
sg1056
F0
ssS'SliceStep_t_C(trial_PE)[UU]_subj.2'
p1654
(dp1655
g1048
F1
sg1049
g1050
sg1051
g1052
(g8
S'\xf2\xb9AvJy\xe2?'
tRp1656
sg1054
F0
sg1055
I01
sg1056
F0
ssS'SliceStep_t_C(trial_PE)[UU]_subj.5'
p1657
(dp1658
g1048
F1
sg1049
g1050
sg1051
g1052
(g8
S'\x10\xcd$\xceT2\xdc?'
tRp1659
sg1054
F0
sg1055
I01
sg1056
F0
ssS'SliceStep_t_C(trial_PE)[UU]_subj.4'
p1660
(dp1661
g1048
F1
sg1049
g1050
sg1051
g1052
(g8
S'\xf4%\xe9x\xd7\xdf\xda?'
tRp1662
sg1054
F0
sg1055
I01
sg1056
F0
ssS'SliceStep_t_C(trial_PE)[UP]'
p1663
(dp1664
g1048
F1
sg1049
g1050
sg1051
g1052
(g8
S'\xec\x83W\xdc\xd1[\xdc?'
tRp1665
sg1054
F0
sg1055
I01
sg1056
F0
ssS'SliceStep_t_C(trial_PE)[UU]_subj.6'
p1666
(dp1667
g1048
F1
sg1049
g1050
sg1051
g1052
(g8
S'l\x8d\x86\xd2\xed\\\xdf?'
tRp1668
sg1054
F0
sg1055
I01
sg1056
F0
ssS'SliceStep_v_C(trial_PE)[T.PU]:pupil_response_1'
p1669
(dp1670
g1048
F1
sg1049
g1050
sg1051
g1052
(g8
S'\xc0L\xba\x12\x82\x1e\xa6='
tRp1671
sg1054
F0
sg1055
I01
sg1056
F0
ssS'SliceStep_v_C(trial_PE)[UP]_subj.24'
p1672
(dp1673
g1048
F1
sg1049
g1050
sg1051
g1052
(g8
S'SR\x8e\xc59A\xfb?'
tRp1674
sg1054
F0
sg1055
I01
sg1056
F0
ssS'SliceStep_v_C(trial_PE)[PP]_subj.25'
p1675
(dp1676
g1048
F1
sg1049
g1050
sg1051
g1052
(g8
S'\xc3\xdc)\xd6ob\xf8?'
tRp1677
sg1054
F0
sg1055
I01
sg1056
F0
ssS'SliceStep_v_C(trial_PE)[PP]_subj.26'
p1678
(dp1679
g1048
F1
sg1049
g1050
sg1051
g1052
(g8
S'(\xe2\xe5O(\xf6\xf8?'
tRp1680
sg1054
F0
sg1055
I01
sg1056
F0
ssS'SliceStep_v_C(trial_PE)[PP]_subj.27'
p1681
(dp1682
g1048
F1
sg1049
g1050
sg1051
g1052
(g8
S'}\xa0\xf5\x11S\x1e\xf6?'
tRp1683
sg1054
F0
sg1055
I01
sg1056
F0
ssS'SliceStep_v_C(trial_PE)[PP]_subj.20'
p1684
(dp1685
g1048
F1
sg1049
g1050
sg1051
g1052
(g8
S'\x11\xac\xd8\x89\xb8U\xfd?'
tRp1686
sg1054
F0
sg1055
I01
sg1056
F0
ssS'SliceStep_v_C(trial_PE)[PP]_subj.21'
p1687
(dp1688
g1048
F1
sg1049
g1050
sg1051
g1052
(g8
S'\xb3\x0b\xd5\xf9\x8bN\xf7?'
tRp1689
sg1054
F0
sg1055
I01
sg1056
F0
ssS'SliceStep_v_C(trial_PE)[PP]_subj.22'
p1690
(dp1691
g1048
F1
sg1049
g1050
sg1051
g1052
(g8
S'|n\xb4\x07\x12\xe0\xf9?'
tRp1692
sg1054
F0
sg1055
I01
sg1056
F0
ssS'SliceStep_v_C(trial_PE)[PP]_subj.23'
p1693
(dp1694
g1048
F1
sg1049
g1050
sg1051
g1052
(g8
S'\x7f\x16oaW\xf7\xf6?'
tRp1695
sg1054
F0
sg1055
I01
sg1056
F0
ssS'SliceStep_t_C(trial_PE)[PP]_std'
p1696
(dp1697
g1048
F1
sg1049
g1050
sg1051
g1052
(g8
S'\xeb\x06\xaf\xa6\x95H\xb9?'
tRp1698
sg1054
F0
sg1055
I01
sg1056
F0
ssS'SliceStep_v_C(trial_PE)[PU]_subj.21'
p1699
(dp1700
g1048
F1
sg1049
g1050
sg1051
g1052
(g8
S'GN\xf88\xa2.\xfd?'
tRp1701
sg1054
F0
sg1055
I01
sg1056
F0
ssS'SliceStep_v_C(trial_PE)[PP]_subj.28'
p1702
(dp1703
g1048
F1
sg1049
g1050
sg1051
g1052
(g8
S'\xde3\x02\xe2W\xec\xf7?'
tRp1704
sg1054
F0
sg1055
I01
sg1056
F0
ssS'SliceStep_v_C(trial_PE)[PP]_subj.29'
p1705
(dp1706
g1048
F1
sg1049
g1050
sg1051
g1052
(g8
S'%tD%\x88\xf5\xf6?'
tRp1707
sg1054
F0
sg1055
I01
sg1056
F0
ssS'SliceStep_t_C(trial_PE)[UP]_subj.18'
p1708
(dp1709
g1048
F1
sg1049
g1050
sg1051
g1052
(g8
S'\x11\xf9=\\\xb2\x1b\xd8?'
tRp1710
sg1054
F0
sg1055
I01
sg1056
F0
ssS'SliceStep_t_C(trial_PE)[UP]_subj.19'
p1711
(dp1712
g1048
F1
sg1049
g1050
sg1051
g1052
(g8
S'\xa6\xa2\xca\xd4\xcf\xac\xdb?'
tRp1713
sg1054
F0
sg1055
I01
sg1056
F0
ssS'SliceStep_t_C(trial_PE)[PU]_subj.24'
p1714
(dp1715
g1048
F1
sg1049
g1050
sg1051
g1052
(g8
S'\x9cIi;\x0c\xd2\xd5?'
tRp1716
sg1054
F0
sg1055
I01
sg1056
F0
ssS'SliceStep_t_C(trial_PE)[UP]_subj.12'
p1717
(dp1718
g1048
F1
sg1049
g1050
sg1051
g1052
(g8
S'\x13\x83\x8b]\x00\xa7\xe1?'
tRp1719
sg1054
F0
sg1055
I01
sg1056
F0
ssS'SliceStep_t_C(trial_PE)[PP]_subj.12'
p1720
(dp1721
g1048
F1
sg1049
g1050
sg1051
g1052
(g8
S'm\xeew\xe7\xea\x13\xdc?'
tRp1722
sg1054
F0
sg1055
I01
sg1056
F0
ssS'SliceStep_t_C(trial_PE)[UP]_subj.10'
p1723
(dp1724
g1048
F1
sg1049
g1050
sg1051
g1052
(g8
S'?\x9f\xe2\x98\xdf>\xe2?'
tRp1725
sg1054
F0
sg1055
I01
sg1056
F0
ssS'SliceStep_t_C(trial_PE)[UP]_subj.11'
p1726
(dp1727
g1048
F1
sg1049
g1050
sg1051
g1052
(g8
S'\xaa\x8a\xac]\xeal\xdf?'
tRp1728
sg1054
F0
sg1055
I01
sg1056
F0
ssS'SliceStep_t_C(trial_PE)[UP]_subj.16'
p1729
(dp1730
g1048
F1
sg1049
g1050
sg1051
g1052
(g8
S')X`\xaf\x02P\xd9?'
tRp1731
sg1054
F0
sg1055
I01
sg1056
F0
ssS'SliceStep_t_C(trial_PE)[PP]_subj.16'
p1732
(dp1733
g1048
F1
sg1049
g1050
sg1051
g1052
(g8
S'fv\x13EY\x14\xd7?'
tRp1734
sg1054
F0
sg1055
I01
sg1056
F0
ssS'SliceStep_t_C(trial_PE)[PP]_subj.15'
p1735
(dp1736
g1048
F1
sg1049
g1050
sg1051
g1052
(g8
S'\x05\xb2`C\xf9\xff\xd9?'
tRp1737
sg1054
F0
sg1055
I01
sg1056
F0
ssS'SliceStep_t_C(trial_PE)[PP]_subj.14'
p1738
(dp1739
g1048
F1
sg1049
g1050
sg1051
g1052
(g8
S'\xeb\xbd[\x046D\xde?'
tRp1740
sg1054
F0
sg1055
I01
sg1056
F0
ssS'SliceStep_v_C(trial_PE)[UU]_subj.13'
p1741
(dp1742
g1048
F1
sg1049
g1050
sg1051
g1052
(g8
S'0\n/V\xb6\x86\xfe?'
tRp1743
sg1054
F0
sg1055
I01
sg1056
F0
ssS'SliceStep_v_C(trial_PE)[UU]_subj.12'
p1744
(dp1745
g1048
F1
sg1049
g1050
sg1051
g1052
(g8
S'\x92\xf9\x0e\xf9\x08!\xfd?'
tRp1746
sg1054
F0
sg1055
I01
sg1056
F0
ssS'SliceStep_v_C(trial_PE)[UU]_subj.11'
p1747
(dp1748
g1048
F1
sg1049
g1050
sg1051
g1052
(g8
S'l\xd5\t)\x11\xb4\xfd?'
tRp1749
sg1054
F0
sg1055
I01
sg1056
F0
ssS'SliceStep_v_C(trial_PE)[PP]_std'
p1750
(dp1751
g1048
F1
sg1049
g1050
sg1051
g1052
(g8
S'T\x04\xec-r\x8b\xca?'
tRp1752
sg1054
F0
sg1055
I01
sg1056
F0
ssS'SliceStep_v_C(trial_PE)[UU]_subj.17'
p1753
(dp1754
g1048
F1
sg1049
g1050
sg1051
g1052
(g8
S'XkU\xa3\xd6.\xfd?'
tRp1755
sg1054
F0
sg1055
I01
sg1056
F0
ssS'SliceStep_v_C(trial_PE)[UU]_subj.16'
p1756
(dp1757
g1048
F1
sg1049
g1050
sg1051
g1052
(g8
S'\xfc\xce\xa45\x0f\x84\xfc?'
tRp1758
sg1054
F0
sg1055
I01
sg1056
F0
ssS'SliceStep_v_C(trial_PE)[UU]_subj.15'
p1759
(dp1760
g1048
F1
sg1049
g1050
sg1051
g1052
(g8
S'\xc9H\xd4-\x98\xb4\xfe?'
tRp1761
sg1054
F0
sg1055
I01
sg1056
F0
ssS'SliceStep_v_C(trial_PE)[UU]_subj.14'
p1762
(dp1763
g1048
F1
sg1049
g1050
sg1051
g1052
(g8
S';\x8cM\x95\x19S\xfd?'
tRp1764
sg1054
F0
sg1055
I01
sg1056
F0
ssS'SliceStep_a_subj.31'
p1765
(dp1766
g1048
F1
sg1049
g1050
sg1051
g1052
(g8
S'b\x88\x00\x030\xdb\x00@'
tRp1767
sg1054
F0
sg1055
I01
sg1056
F0
ssS'SliceStep_a_subj.30'
p1768
(dp1769
g1048
F1
sg1049
g1050
sg1051
g1052
(g8
S'\x1db\xb5\xd9\x9az\x05@'
tRp1770
sg1054
F0
sg1055
I01
sg1056
F0
ssS'SliceStep_v_C(trial_PE)[UU]_subj.19'
p1771
(dp1772
g1048
F1
sg1049
g1050
sg1051
g1052
(g8
S'\xc15\x99\x80\x0cH\xfc?'
tRp1773
sg1054
F0
sg1055
I01
sg1056
F0
ssS'SliceStep_a_subj.32'
p1774
(dp1775
g1048
F1
sg1049
g1050
sg1051
g1052
(g8
S'\xbf\xfb\x00o\xab\x00\xff?'
tRp1776
sg1054
F0
sg1055
I01
sg1056
F0
ssS'SliceStep_t_C(trial_PE)[UU]_subj.16'
p1777
(dp1778
g1048
F1
sg1049
g1050
sg1051
g1052
(g8
S'\xa2\xe3\xff\x00\x1d\xff\xd7?'
tRp1779
sg1054
F0
sg1055
I01
sg1056
F0
ssS'SliceStep_a_subj.20'
p1780
(dp1781
g1048
F1
sg1049
g1050
sg1051
g1052
(g8
S'%l\xf0\xa7\xf9\xf4\xfb?'
tRp1782
sg1054
F0
sg1055
I01
sg1056
F0
ssS'SliceStep_t_C(trial_PE)[PU]_subj.20'
p1783
(dp1784
g1048
F1
sg1049
g1050
sg1051
g1052
(g8
S'F\x1d\xbf\xe9\x04\xa3\xd7?'
tRp1785
sg1054
F0
sg1055
I01
sg1056
F0
ssS'SliceStep_v_C(trial_PE)[PU]_subj.18'
p1786
(dp1787
g1048
F1
sg1049
g1050
sg1051
g1052
(g8
S'O\x97\x9e\xce\xbb;\xff?'
tRp1788
sg1054
F0
sg1055
I01
sg1056
F0
ssS'SliceStep_v_C(trial_PE)[PU]_subj.19'
p1789
(dp1790
g1048
F1
sg1049
g1050
sg1051
g1052
(g8
S',\x85U\x82\xf10\xfc?'
tRp1791
sg1054
F0
sg1055
I01
sg1056
F0
ssS'SliceStep_v_C(trial_PE)[PU]_subj.16'
p1792
(dp1793
g1048
F1
sg1049
g1050
sg1051
g1052
(g8
S'\xee\xb4\x9c\x90\x81\x94\xfc?'
tRp1794
sg1054
F0
sg1055
I01
sg1056
F0
ssS'SliceStep_v_C(trial_PE)[PU]_subj.17'
p1795
(dp1796
g1048
F1
sg1049
g1050
sg1051
g1052
(g8
S'\x15\xf8\x11X\xb4\xa0\xfc?'
tRp1797
sg1054
F0
sg1055
I01
sg1056
F0
ssS'SliceStep_v_C(trial_PE)[PU]_subj.14'
p1798
(dp1799
g1048
F1
sg1049
g1050
sg1051
g1052
(g8
S'\x1aak\xd1\xf6l\xfe?'
tRp1800
sg1054
F0
sg1055
I01
sg1056
F0
ssS'SliceStep_v_C(trial_PE)[PU]_subj.15'
p1801
(dp1802
g1048
F1
sg1049
g1050
sg1051
g1052
(g8
S'F\t$\xfb\xc0\x06\xff?'
tRp1803
sg1054
F0
sg1055
I01
sg1056
F0
ssS'SliceStep_v_C(trial_PE)[PU]_subj.12'
p1804
(dp1805
g1048
F1
sg1049
g1050
sg1051
g1052
(g8
S'\xaf\xc3~>;\xdb\xfc?'
tRp1806
sg1054
F0
sg1055
I01
sg1056
F0
ssS'SliceStep_v_C(trial_PE)[PU]_subj.13'
p1807
(dp1808
g1048
F1
sg1049
g1050
sg1051
g1052
(g8
S'\xcb\xa2l\x1e\xcd=\xfe?'
tRp1809
sg1054
F0
sg1055
I01
sg1056
F0
ssS'SliceStep_v_C(trial_PE)[PU]_subj.10'
p1810
(dp1811
g1048
F1
sg1049
g1050
sg1051
g1052
(g8
S'M\x98\xa5)\xb3\x17\xfe?'
tRp1812
sg1054
F0
sg1055
I01
sg1056
F0
ssS'SliceStep_v_C(trial_PE)[PU]_subj.11'
p1813
(dp1814
g1048
F1
sg1049
g1050
sg1051
g1052
(g8
S'\rG@\xf8\xdfI\xfd?'
tRp1815
sg1054
F0
sg1055
I01
sg1056
F0
ssS'SliceStep_t_C(trial_PE)[PU]_subj.18'
p1816
(dp1817
g1048
F1
sg1049
g1050
sg1051
g1052
(g8
S'\xb9\xb7\x14\xce\xc4\xbe\xd7?'
tRp1818
sg1054
F0
sg1055
I01
sg1056
F0
ssS'SliceStep_v_C(trial_PE)[PP]_subj.18'
p1819
(dp1820
g1048
F1
sg1049
g1050
sg1051
g1052
(g8
S'\x0b\n\x89\xb2\xde\x85\xfd?'
tRp1821
sg1054
F0
sg1055
I01
sg1056
F0
ssS'SliceStep_sv'
p1822
(dp1823
g1048
F1
sg1049
g1050
sg1051
g1052
(g8
S'\xbbZ]#?\x9d\xf4='
tRp1824
sg1054
F0
sg1055
I01
sg1056
F0
ssS'SliceStep_v_C(trial_PE)[UP]_subj.22'
p1825
(dp1826
g1048
F1
sg1049
g1050
sg1051
g1052
(g8
S'g]\xa4]\x9e\xb8\xfd?'
tRp1827
sg1054
F0
sg1055
I01
sg1056
F0
ssS'SliceStep_t_C(trial_PE)[PU]_subj.8'
p1828
(dp1829
g1048
F1
sg1049
g1050
sg1051
g1052
(g8
S'\x8dj*Lb8\xe0?'
tRp1830
sg1054
F0
sg1055
I01
sg1056
F0
ssS'SliceStep_t_C(trial_PE)[PU]_subj.10'
p1831
(dp1832
g1048
F1
sg1049
g1050
sg1051
g1052
(g8
S'\x0c:\xfc\x19=\x0e\xe3?'
tRp1833
sg1054
F0
sg1055
I01
sg1056
F0
ssS'SliceStep_t_C(trial_PE)[PU]_subj.11'
p1834
(dp1835
g1048
F1
sg1049
g1050
sg1051
g1052
(g8
S'\x99\xe71U\xeaH\xda?'
tRp1836
sg1054
F0
sg1055
I01
sg1056
F0
ssS'SliceStep_t_C(trial_PE)[PU]_subj.12'
p1837
(dp1838
g1048
F1
sg1049
g1050
sg1051
g1052
(g8
S'\xf8\x05p\x97\xd8p\xe1?'
tRp1839
sg1054
F0
sg1055
I01
sg1056
F0
ssS'SliceStep_v_C(trial_PE)[PP]_subj.12'
p1840
(dp1841
g1048
F1
sg1049
g1050
sg1051
g1052
(g8
S']\x07\x85\x0f\xcel\xf4?'
tRp1842
sg1054
F0
sg1055
I01
sg1056
F0
ssS'SliceStep_t_C(trial_PE)[PU]_subj.14'
p1843
(dp1844
g1048
F1
sg1049
g1050
sg1051
g1052
(g8
S'<m\x0c\xc4\xe2d\xe1?'
tRp1845
sg1054
F0
sg1055
I01
sg1056
F0
ssS'SliceStep_t_C(trial_PE)[PU]_subj.15'
p1846
(dp1847
g1048
F1
sg1049
g1050
sg1051
g1052
(g8
S'\r6\xc1\x8e}\x9e\xdf?'
tRp1848
sg1054
F0
sg1055
I01
sg1056
F0
ssS'SliceStep_t_C(trial_PE)[PU]_subj.16'
p1849
(dp1850
g1048
F1
sg1049
g1050
sg1051
g1052
(g8
S'\x1d\x99\x93\xc9KO\xdb?'
tRp1851
sg1054
F0
sg1055
I01
sg1056
F0
ssS'SliceStep_t_C(trial_PE)[PU]_subj.17'
p1852
(dp1853
g1048
F1
sg1049
g1050
sg1051
g1052
(g8
S'~\x02\x9bP\x06|\xdb?'
tRp1854
sg1054
F0
sg1055
I01
sg1056
F0
ssS'SliceStep_v_C(trial_PE)[UP]_subj.10'
p1855
(dp1856
g1048
F1
sg1049
g1050
sg1051
g1052
(g8
S'Y%\x82\xe1\xb3\x13\xfd?'
tRp1857
sg1054
F0
sg1055
I01
sg1056
F0
ssS'SliceStep_v_C(trial_PE)[UP]_subj.11'
p1858
(dp1859
g1048
F1
sg1049
g1050
sg1051
g1052
(g8
S'\xae\xdcn\xfe]\x0b\xfe?'
tRp1860
sg1054
F0
sg1055
I01
sg1056
F0
ssS'SliceStep_v_C(trial_PE)[UP]_subj.12'
p1861
(dp1862
g1048
F1
sg1049
g1050
sg1051
g1052
(g8
S'\x8b\xcf^\x02\xdc\x98\xfd?'
tRp1863
sg1054
F0
sg1055
I01
sg1056
F0
ssS'SliceStep_v_C(trial_PE)[UP]_subj.13'
p1864
(dp1865
g1048
F1
sg1049
g1050
sg1051
g1052
(g8
S'\xd7\xd2\xf5\xcd\x8eC\xfe?'
tRp1866
sg1054
F0
sg1055
I01
sg1056
F0
ssS'SliceStep_v_C(trial_PE)[UP]_subj.14'
p1867
(dp1868
g1048
F1
sg1049
g1050
sg1051
g1052
(g8
S'\x97\xe4\xcc\x83\xe1\x8c\xfd?'
tRp1869
sg1054
F0
sg1055
I01
sg1056
F0
ssS'SliceStep_v_C(trial_PE)[UP]_subj.15'
p1870
(dp1871
g1048
F1
sg1049
g1050
sg1051
g1052
(g8
S'R>@\x1f\xc9 \xff?'
tRp1872
sg1054
F0
sg1055
I01
sg1056
F0
ssS'SliceStep_v_C(trial_PE)[UP]_subj.16'
p1873
(dp1874
g1048
F1
sg1049
g1050
sg1051
g1052
(g8
S'/\xdb\x95\x13\x14\x04\xfd?'
tRp1875
sg1054
F0
sg1055
I01
sg1056
F0
ssS'SliceStep_v_C(trial_PE)[UP]_subj.17'
p1876
(dp1877
g1048
F1
sg1049
g1050
sg1051
g1052
(g8
S'\x0b:\xbd\xbf\xfd\xef\xfb?'
tRp1878
sg1054
F0
sg1055
I01
sg1056
F0
ssS'SliceStep_v_C(trial_PE)[PU]_std'
p1879
(dp1880
g1048
F1
sg1049
g1050
sg1051
g1052
(g8
S'\xeelZn\x19%\xb3?'
tRp1881
sg1054
F0
sg1055
I01
sg1056
F0
ssS'SliceStep_v_C(trial_PE)[UP]_subj.19'
p1882
(dp1883
g1048
F1
sg1049
g1050
sg1051
g1052
(g8
S'\xe1\xeb\xbc\xf9\x80a\xfb?'
tRp1884
sg1054
F0
sg1055
I01
sg1056
F0
ssS'SliceStep_v_C(trial_PE)[UP]_subj.28'
p1885
(dp1886
g1048
F1
sg1049
g1050
sg1051
g1052
(g8
S'\x9b\x05I9\xae\xfd\xfc?'
tRp1887
sg1054
F0
sg1055
I01
sg1056
F0
ssS'SliceStep_t_C(trial_PE)[PU]'
p1888
(dp1889
g1048
F1
sg1049
g1050
sg1051
g1052
(g8
S'-\xc3/\xe1\xd8\x9a\xdb?'
tRp1890
sg1054
F0
sg1055
I01
sg1056
F0
ssS'SliceStep_v_C(trial_PE)[PP]_subj.19'
p1891
(dp1892
g1048
F1
sg1049
g1050
sg1051
g1052
(g8
S'\x89\x84\xc3\x01-\x90\xf4?'
tRp1893
sg1054
F0
sg1055
I01
sg1056
F0
ssS'SliceStep_v_C(trial_PE)[PU]_subj.8'
p1894
(dp1895
g1048
F1
sg1049
g1050
sg1051
g1052
(g8
S'L\xef4\x8f9\xf7\xfe?'
tRp1896
sg1054
F0
sg1055
I01
sg1056
F0
ssS'SliceStep_v_C(trial_PE)[PU]_subj.9'
p1897
(dp1898
g1048
F1
sg1049
g1050
sg1051
g1052
(g8
S'[\xa4\xc2\xc6U\r\xff?'
tRp1899
sg1054
F0
sg1055
I01
sg1056
F0
ssS'SliceStep_a_subj.28'
p1900
(dp1901
g1048
F1
sg1049
g1050
sg1051
g1052
(g8
S")\xbc'%T\xbb\x02@"
tRp1902
sg1054
F0
sg1055
I01
sg1056
F0
ssS'SliceStep_a_subj.29'
p1903
(dp1904
g1048
F1
sg1049
g1050
sg1051
g1052
(g8
S'd\xc9BD\x14\xc1\xfc?'
tRp1905
sg1054
F0
sg1055
I01
sg1056
F0
ssS'SliceStep_v_C(trial_PE)[PU]_subj.4'
p1906
(dp1907
g1048
F1
sg1049
g1050
sg1051
g1052
(g8
S'YCXAg<\xfe?'
tRp1908
sg1054
F0
sg1055
I01
sg1056
F0
ssS'SliceStep_a_subj.27'
p1909
(dp1910
g1048
F1
sg1049
g1050
sg1051
g1052
(g8
S'\x1fpe\\\xe9\x9a\x05@'
tRp1911
sg1054
F0
sg1055
I01
sg1056
F0
ssS'SliceStep_a_subj.24'
p1912
(dp1913
g1048
F1
sg1049
g1050
sg1051
g1052
(g8
S'\x19\xb9<!\x80]\x01@'
tRp1914
sg1054
F0
sg1055
I01
sg1056
F0
ssS'SliceStep_v_C(trial_PE)[PU]_subj.7'
p1915
(dp1916
g1048
F1
sg1049
g1050
sg1051
g1052
(g8
S'\xa6R/qkj\xfd?'
tRp1917
sg1054
F0
sg1055
I01
sg1056
F0
ssS'SliceStep_a_subj.22'
p1918
(dp1919
g1048
F1
sg1049
g1050
sg1051
g1052
(g8
S'\x19\x05\xa8\xf3f\x88\x01@'
tRp1920
sg1054
F0
sg1055
I01
sg1056
F0
ssS'SliceStep_v_C(trial_PE)[PU]_subj.1'
p1921
(dp1922
g1048
F1
sg1049
g1050
sg1051
g1052
(g8
S'\xbaS\x92l\xdco\xff?'
tRp1923
sg1054
F0
sg1055
I01
sg1056
F0
ssS'SliceStep_v_C(trial_PE)[PU]_subj.2'
p1924
(dp1925
g1048
F1
sg1049
g1050
sg1051
g1052
(g8
S'\x05\xbbHq\xba\x1f\xfe?'
tRp1926
sg1054
F0
sg1055
I01
sg1056
F0
ssS'SliceStep_a_subj.21'
p1927
(dp1928
g1048
F1
sg1049
g1050
sg1051
g1052
(g8
S'/>dj\x85X\x02@'
tRp1929
sg1054
F0
sg1055
I01
sg1056
F0
ssS'SliceStep_t_C(trial_PE)[UU]_subj.7'
p1930
(dp1931
g1048
F1
sg1049
g1050
sg1051
g1052
(g8
S'\x89\x1fb3i\xb2\xe4?'
tRp1932
sg1054
F0
sg1055
I01
sg1056
F0
ssS'SliceStep_v_C(trial_PE)[UU]_subj.25'
p1933
(dp1934
g1048
F1
sg1049
g1050
sg1051
g1052
(g8
S'\x00\x97\x7fri\x86\xfc?'
tRp1935
sg1054
F0
sg1055
I01
sg1056
F0
ssS'SliceStep_v_C(trial_PE)[PU]_subj.0'
p1936
(dp1937
g1048
F1
sg1049
g1050
sg1051
g1052
(g8
S'\xda\x1dp\x93H)\xfe?'
tRp1938
sg1054
F0
sg1055
I01
sg1056
F0
ssS'SliceStep_t_C(trial_PE)[PU]_subj.29'
p1939
(dp1940
g1048
F1
sg1049
g1050
sg1051
g1052
(g8
S'PM^_\x8f\xef\xd0?'
tRp1941
sg1054
F0
sg1055
I01
sg1056
F0
ssS'SliceStep_t_C(trial_PE)[PU]_subj.28'
p1942
(dp1943
g1048
F1
sg1049
g1050
sg1051
g1052
(g8
S'\xec\xd5\xc1\x83W\xdc\xd6?'
tRp1944
sg1054
F0
sg1055
I01
sg1056
F0
ssS'SliceStep_v_C(trial_PE)[PU]_subj.5'
p1945
(dp1946
g1048
F1
sg1049
g1050
sg1051
g1052
(g8
S'_`\x9c\x16\xdb:\xff?'
tRp1947
sg1054
F0
sg1055
I01
sg1056
F0
ssS'SliceStep_t_C(trial_PE)[PU]_subj.25'
p1948
(dp1949
g1048
F1
sg1049
g1050
sg1051
g1052
(g8
S',\xb1\xc9\xfe\xd1\xa3\xcb?'
tRp1950
sg1054
F0
sg1055
I01
sg1056
F0
ssS'SliceStep_v_C(trial_PE)[PP]_subj.14'
p1951
(dp1952
g1048
F1
sg1049
g1050
sg1051
g1052
(g8
S"H\x06\xecNr'\xf7?"
tRp1953
sg1054
F0
sg1055
I01
sg1056
F0
ssS'SliceStep_t_C(trial_PE)[PU]_subj.27'
p1954
(dp1955
g1048
F1
sg1049
g1050
sg1051
g1052
(g8
S'M\xb25\xa5\xfeZ\xd6?'
tRp1956
sg1054
F0
sg1055
I01
sg1056
F0
ssS'SliceStep_t_C(trial_PE)[PU]_subj.26'
p1957
(dp1958
g1048
F1
sg1049
g1050
sg1051
g1052
(g8
S'\x8d\xbe\x1b\xa4\xa2\xbe\xd6?'
tRp1959
sg1054
F0
sg1055
I01
sg1056
F0
ssS'SliceStep_t_C(trial_PE)[PU]_subj.21'
p1960
(dp1961
g1048
F1
sg1049
g1050
sg1051
g1052
(g8
S'\x82\xbd\xaeI&@\xd2?'
tRp1962
sg1054
F0
sg1055
I01
sg1056
F0
ssS'SliceStep_t_C(trial_PE)[PU]_subj.30'
p1963
(dp1964
g1048
F1
sg1049
g1050
sg1051
g1052
(g8
S'\xc31\x91Y\xaa4\xdb?'
tRp1965
sg1054
F0
sg1055
I01
sg1056
F0
ssS'SliceStep_t_C(trial_PE)[PU]_subj.23'
p1966
(dp1967
g1048
F1
sg1049
g1050
sg1051
g1052
(g8
S'\xd4\nqt\x7f3\xd2?'
tRp1968
sg1054
F0
sg1055
I01
sg1056
F0
ssS'SliceStep_t_C(trial_PE)[PU]_subj.22'
p1969
(dp1970
g1048
F1
sg1049
g1050
sg1051
g1052
(g8
S'\xe5)\x9d\x880\xa3\xdc?'
tRp1971
sg1054
F0
sg1055
I01
sg1056
F0
ssS'SliceStep_v_C(trial_PE)[UP]_subj.25'
p1972
(dp1973
g1048
F1
sg1049
g1050
sg1051
g1052
(g8
S'\xc9\x06\xb3>\x98*\xfd?'
tRp1974
sg1054
F0
sg1055
I01
sg1056
F0
ssS'SliceStep_v_C(trial_PE)[PP]_subj.11'
p1975
(dp1976
g1048
F1
sg1049
g1050
sg1051
g1052
(g8
S'\xc3\x1d\x97\xd2\xca\xe6\xf9?'
tRp1977
sg1054
F0
sg1055
I01
sg1056
F0
ssS'SliceStep_v_C(trial_PE)[UP]_subj.27'
p1978
(dp1979
g1048
F1
sg1049
g1050
sg1051
g1052
(g8
S'-\xa6\xbb\x87\x0e\x1d\xfd?'
tRp1980
sg1054
F0
sg1055
I01
sg1056
F0
ssS'SliceStep_v_C(trial_PE)[UP]_subj.26'
p1981
(dp1982
g1048
F1
sg1049
g1050
sg1051
g1052
(g8
S'\x9d\n\xd3\xba\xab\x1b\xfd?'
tRp1983
sg1054
F0
sg1055
I01
sg1056
F0
ssS'SliceStep_v_C(trial_PE)[UP]_subj.21'
p1984
(dp1985
g1048
F1
sg1049
g1050
sg1051
g1052
(g8
S'\x84\xc6\x0e\tj\xad\xfc?'
tRp1986
sg1054
F0
sg1055
I01
sg1056
F0
ssS'SliceStep_v_C(trial_PE)[UP]_subj.20'
p1987
(dp1988
g1048
F1
sg1049
g1050
sg1051
g1052
(g8
S'\x1dVX\xfb\x9fL\xff?'
tRp1989
sg1054
F0
sg1055
I01
sg1056
F0
ssS'SliceStep_v_C(trial_PE)[UP]_subj.23'
p1990
(dp1991
g1048
F1
sg1049
g1050
sg1051
g1052
(g8
S'\xc2\x1b\x95\xe5\x8dN\xfd?'
tRp1992
sg1054
F0
sg1055
I01
sg1056
F0
ssS'SliceStep_v_C(trial_PE)[PP]_subj.10'
p1993
(dp1994
g1048
F1
sg1049
g1050
sg1051
g1052
(g8
S'\x7f\x1d\xbb\xd3\xc2\xae\xf6?'
tRp1995
sg1054
F0
sg1055
I01
sg1056
F0
ssS'SliceStep_t_C(trial_PE)[PU]_subj.1'
p1996
(dp1997
g1048
F1
sg1049
g1050
sg1051
g1052
(g8
S'\x018\xc2.\xbc}\xdb?'
tRp1998
sg1054
F0
sg1055
I01
sg1056
F0
ssS'SliceStep_a_subj.14'
p1999
(dp2000
g1048
F1
sg1049
g1050
sg1051
g1052
(g8
S'\xeeA"fFd\x02@'
tRp2001
sg1054
F0
sg1055
I01
sg1056
F0
ssS'SliceStep_v_C(trial_PE)[UP]_subj.29'
p2002
(dp2003
g1048
F1
sg1049
g1050
sg1051
g1052
(g8
S'\x99\xe6\x08\x17\xb6\xd1\xfc?'
tRp2004
sg1054
F0
sg1055
I01
sg1056
F0
ssS'SliceStep_v_C(trial_PE)[PP]_subj.13'
p2005
(dp2006
g1048
F1
sg1049
g1050
sg1051
g1052
(g8
S'.\x16\x1e>\xcc\xaa\xf9?'
tRp2007
sg1054
F0
sg1055
I01
sg1056
F0
ssS'SliceStep_v_C(trial_PE)[UP]_std'
p2008
(dp2009
g1048
F1
sg1049
g1050
sg1051
g1052
(g8
S'$ \xd5JX\xf5\xb4?'
tRp2010
sg1054
F0
sg1055
I01
sg1056
F0
ssS'SliceStep_t_C(trial_PE)[PP]_subj.32'
p2011
(dp2012
g1048
F1
sg1049
g1050
sg1051
g1052
(g8
S'M\x13\xe8C\xf3!\xd7?'
tRp2013
sg1054
F0
sg1055
I01
sg1056
F0
sssS'sampler'
p2014
(dp2015
S'status'
p2016
S'ready'
p2017
sS'_iter'
p2018
g1052
(g7
(S'i8'
I0
I1
tRp2019
(I3
S'<'
NNNI-1
I-1
I0
tbS"\x10'\x00\x00\x00\x00\x00\x00"
tRp2020
sS'_tune_interval'
p2021
I1000
sS'_tuned_count'
p2022
I0
sS'_tune_throughout'
p2023
I01
sS'_burn_till_tuned'
p2024
I00
sS'_current_iter'
p2025
I186
sS'_burn'
p2026
I1000
sS'_thin'
p2027
I5
sssg961
(dp2028
I0
g4
(g5
(I0
tS'b'
tRp2029
(I1
(I0
tg8
I00
S''
tbssg963
(dp2030
I0
g4
(g5
(I0
tS'b'
tRp2031
(I1
(I0
tg8
I00
S''
tbssg969
(dp2032
I0
g4
(g5
(I0
tS'b'
tRp2033
(I1
(I0
tg8
I00
S''
tbssg971
(dp2034
I0
g4
(g5
(I0
tS'b'
tRp2035
(I1
(I0
tg8
I00
S''
tbssg973
(dp2036
I0
g4
(g5
(I0
tS'b'
tRp2037
(I1
(I0
tg8
I00
S''
tbssg975
(dp2038
I0
g4
(g5
(I0
tS'b'
tRp2039
(I1
(I0
tg8
I00
S''
tbssg934
(dp2040
I0
g4
(g5
(I0
tS'b'
tRp2041
(I1
(I0
tg8
I00
S''
tbssg979
(dp2042
I0
g4
(g5
(I0
tS'b'
tRp2043
(I1
(I0
tg8
I00
S''
tbssg981
(dp2044
I0
g4
(g5
(I0
tS'b'
tRp2045
(I1
(I0
tg8
I00
S''
tbssg983
(dp2046
I0
g4
(g5
(I0
tS'b'
tRp2047
(I1
(I0
tg8
I00
S''
tbssg985
(dp2048
I0
g4
(g5
(I0
tS'b'
tRp2049
(I1
(I0
tg8
I00
S''
tbssg987
(dp2050
I0
g4
(g5
(I0
tS'b'
tRp2051
(I1
(I0
tg8
I00
S''
tbssg989
(dp2052
I0
g4
(g5
(I0
tS'b'
tRp2053
(I1
(I0
tg8
I00
S''
tbssg991
(dp2054
I0
g4
(g5
(I0
tS'b'
tRp2055
(I1
(I0
tg8
I00
S''
tbssg993
(dp2056
I0
g4
(g5
(I0
tS'b'
tRp2057
(I1
(I0
tg8
I00
S''
tbssg709
(dp2058
I0
g4
(g5
(I0
tS'b'
tRp2059
(I1
(I0
tg8
I00
S''
tbssg997
(dp2060
I0
g4
(g5
(I0
tS'b'
tRp2061
(I1
(I0
tg8
I00
S''
tbssg999
(dp2062
I0
g4
(g5
(I0
tS'b'
tRp2063
(I1
(I0
tg8
I00
S''
tbssg1001
(dp2064
I0
g4
(g5
(I0
tS'b'
tRp2065
(I1
(I0
tg8
I00
S''
tbssg1003
(dp2066
I0
g4
(g5
(I0
tS'b'
tRp2067
(I1
(I0
tg8
I00
S''
tbssg1005
(dp2068
I0
g4
(g5
(I0
tS'b'
tRp2069
(I1
(I0
tg8
I00
S''
tbssg1007
(dp2070
I0
g4
(g5
(I0
tS'b'
tRp2071
(I1
(I0
tg8
I00
S''
tbssg1009
(dp2072
I0
g4
(g5
(I0
tS'b'
tRp2073
(I1
(I0
tg8
I00
S''
tbssg1011
(dp2074
I0
g4
(g5
(I0
tS'b'
tRp2075
(I1
(I0
tg8
I00
S''
tbssg1013
(dp2076
I0
g4
(g5
(I0
tS'b'
tRp2077
(I1
(I0
tg8
I00
S''
tbssg1015
(dp2078
I0
g4
(g5
(I0
tS'b'
tRp2079
(I1
(I0
tg8
I00
S''
tbssg1017
(dp2080
I0
g4
(g5
(I0
tS'b'
tRp2081
(I1
(I0
tg8
I00
S''
tbssg1019
(dp2082
I0
g4
(g5
(I0
tS'b'
tRp2083
(I1
(I0
tg8
I00
S''
tbssg1021
(dp2084
I0
g4
(g5
(I0
tS'b'
tRp2085
(I1
(I0
tg8
I00
S''
tbssg1023
(dp2086
I0
g4
(g5
(I0
tS'b'
tRp2087
(I1
(I0
tg8
I00
S''
tbssg560
(dp2088
I0
g4
(g5
(I0
tS'b'
tRp2089
(I1
(I0
tg8
I00
S''
tbssg562
(dp2090
I0
g4
(g5
(I0
tS'b'
tRp2091
(I1
(I0
tg8
I00
S''
tbssg564
(dp2092
I0
g4
(g5
(I0
tS'b'
tRp2093
(I1
(I0
tg8
I00
S''
tbssg566
(dp2094
I0
g4
(g5
(I0
tS'b'
tRp2095
(I1
(I0
tg8
I00
S''
tbssg664
(dp2096
I0
g4
(g5
(I0
tS'b'
tRp2097
(I1
(I0
tg8
I00
S''
tbssg569
(dp2098
I0
g4
(g5
(I0
tS'b'
tRp2099
(I1
(I0
tg8
I00
S''
tbssg571
(dp2100
I0
g4
(g5
(I0
tS'b'
tRp2101
(I1
(I0
tg8
I00
S''
tbssg674
(dp2102
I0
g4
(g5
(I0
tS'b'
tRp2103
(I1
(I0
tg8
I00
S''
tbssg536
(dp2104
I0
g4
(g5
(I0
tS'b'
tRp2105
(I1
(I0
tg8
I00
S''
tbssg580
(dp2106
I0
g4
(g5
(I0
tS'b'
tRp2107
(I1
(I0
tg8
I00
S''
tbssg582
(dp2108
I0
g4
(g5
(I0
tS'b'
tRp2109
(I1
(I0
tg8
I00
S''
tbssg728
(dp2110
I0
g4
(g5
(I0
tS'b'
tRp2111
(I1
(I0
tg8
I00
S''
tbssg605
(dp2112
I0
g4
(g5
(I0
tS'b'
tRp2113
(I1
(I0
tg8
I00
S''
tbssg607
(dp2114
I0
g4
(g5
(I0
tS'b'
tRp2115
(I1
(I0
tg8
I00
S''
tbssg610
(dp2116
I0
g4
(g5
(I0
tS'b'
tRp2117
(I1
(I0
tg8
I00
S''
tbssg823
(dp2118
I0
g4
(g5
(I0
tS'b'
tRp2119
(I1
(I0
tg8
I00
S''
tbssg678
(dp2120
I0
g4
(g5
(I0
tS'b'
tRp2121
(I1
(I0
tg8
I00
S''
tbssg680
(dp2122
I0
g4
(g5
(I0
tS'b'
tRp2123
(I1
(I0
tg8
I00
S''
tbssg612
(dp2124
I0
g4
(g5
(I0
tS'b'
tRp2125
(I1
(I0
tg8
I00
S''
tbssg688
(dp2126
I0
g4
(g5
(I0
tS'b'
tRp2127
(I1
(I0
tg8
I00
S''
tbssg922
(dp2128
I0
g4
(g5
(I0
tS'b'
tRp2129
(I1
(I0
tg8
I00
S''
tbssg1042
(dp2130
I0
g4
(g5
(I0
tS'b'
tRp2131
(I1
(I0
tg8
I00
S''
tbssg977
(dp2132
I0
g4
(g5
(I0
tS'b'
tRp2133
(I1
(I0
tg8
I00
S''
tbssg600
(dp2134
I0
g4
(g5
(I0
tS'b'
tRp2135
(I1
(I0
tg8
I00
S''
tbssg730
(dp2136
I0
g4
(g5
(I0
tS'b'
tRp2137
(I1
(I0
tg8
I00
S''
tbssg712
(dp2138
I0
g4
(g5
(I0
tS'b'
tRp2139
(I1
(I0
tg8
I00
S''
tbssg714
(dp2140
I0
g4
(g5
(I0
tS'b'
tRp2141
(I1
(I0
tg8
I00
S''
tbssg716
(dp2142
I0
g4
(g5
(I0
tS'b'
tRp2143
(I1
(I0
tg8
I00
S''
tbssg718
(dp2144
I0
g4
(g5
(I0
tS'b'
tRp2145
(I1
(I0
tg8
I00
S''
tbssg720
(dp2146
I0
g4
(g5
(I0
tS'b'
tRp2147
(I1
(I0
tg8
I00
S''
tbssg722
(dp2148
I0
g4
(g5
(I0
tS'b'
tRp2149
(I1
(I0
tg8
I00
S''
tbssg724
(dp2150
I0
g4
(g5
(I0
tS'b'
tRp2151
(I1
(I0
tg8
I00
S''
tbssg726
(dp2152
I0
g4
(g5
(I0
tS'b'
tRp2153
(I1
(I0
tg8
I00
S''
tbssg732
(dp2154
I0
g4
(g5
(I0
tS'b'
tRp2155
(I1
(I0
tg8
I00
S''
tbssg736
(dp2156
I0
g4
(g5
(I0
tS'b'
tRp2157
(I1
(I0
tg8
I00
S''
tbssg734
(dp2158
I0
g4
(g5
(I0
tS'b'
tRp2159
(I1
(I0
tg8
I00
S''
tbssg762
(dp2160
I0
g4
(g5
(I0
tS'b'
tRp2161
(I1
(I0
tg8
I00
S''
tbssg777
(dp2162
I0
g4
(g5
(I0
tS'b'
tRp2163
(I1
(I0
tg8
I00
S''
tbssg779
(dp2164
I0
g4
(g5
(I0
tS'b'
tRp2165
(I1
(I0
tg8
I00
S''
tbssg782
(dp2166
I0
g4
(g5
(I0
tS'b'
tRp2167
(I1
(I0
tg8
I00
S''
tbssg784
(dp2168
I0
g4
(g5
(I0
tS'b'
tRp2169
(I1
(I0
tg8
I00
S''
tbssg786
(dp2170
I0
g4
(g5
(I0
tS'b'
tRp2171
(I1
(I0
tg8
I00
S''
tbssg788
(dp2172
I0
g4
(g5
(I0
tS'b'
tRp2173
(I1
(I0
tg8
I00
S''
tbssg790
(dp2174
I0
g4
(g5
(I0
tS'b'
tRp2175
(I1
(I0
tg8
I00
S''
tbssg792
(dp2176
I0
g4
(g5
(I0
tS'b'
tRp2177
(I1
(I0
tg8
I00
S''
tbssg794
(dp2178
I0
g4
(g5
(I0
tS'b'
tRp2179
(I1
(I0
tg8
I00
S''
tbssg796
(dp2180
I0
g4
(g5
(I0
tS'b'
tRp2181
(I1
(I0
tg8
I00
S''
tbssg798
(dp2182
I0
g4
(g5
(I0
tS'b'
tRp2183
(I1
(I0
tg8
I00
S''
tbssg754
(dp2184
I0
g4
(g5
(I0
tS'b'
tRp2185
(I1
(I0
tg8
I00
S''
tbssg801
(dp2186
I0
g4
(g5
(I0
tS'b'
tRp2187
(I1
(I0
tg8
I00
S''
tbssg952
(dp2188
I0
g4
(g5
(I0
tS'b'
tRp2189
(I1
(I0
tg8
I00
S''
tbssg684
(dp2190
I0
g4
(g5
(I0
tS'b'
tRp2191
(I1
(I0
tg8
I00
S''
tbssg1026
(dp2192
I0
g4
(g5
(I0
tS'b'
tRp2193
(I1
(I0
tg8
I00
S''
tbssg595
(dp2194
I0
g4
(g5
(I0
tS'b'
tRp2195
(I1
(I0
tg8
I00
S''
tbssg808
(dp2196
I0
g4
(g5
(I0
tS'b'
tRp2197
(I1
(I0
tg8
I00
S''
tbssg811
(dp2198
I0
g4
(g5
(I0
tS'b'
tRp2199
(I1
(I0
tg8
I00
S''
tbssg813
(dp2200
I0
g4
(g5
(I0
tS'b'
tRp2201
(I1
(I0
tg8
I00
S''
tbssg819
(dp2202
I0
g4
(g5
(I0
tS'b'
tRp2203
(I1
(I0
tg8
I00
S''
tbssg891
(dp2204
I0
g4
(g5
(I0
tS'b'
tRp2205
(I1
(I0
tg8
I00
S''
tbssg847
(dp2206
I0
g4
(g5
(I0
tS'b'
tRp2207
(I1
(I0
tg8
I00
S''
tbssg851
(dp2208
I0
g4
(g5
(I0
tS'b'
tRp2209
(I1
(I0
tg8
I00
S''
tbssg1031
(dp2210
I0
g4
(g5
(I0
tS'b'
tRp2211
(I1
(I0
tg8
I00
S''
tbssg614
(dp2212
I0
g4
(g5
(I0
tS'b'
tRp2213
(I1
(I0
tg8
I00
S''
tbssg881
(dp2214
I0
g4
(g5
(I0
tS'b'
tRp2215
(I1
(I0
tg8
I00
S''
tbssg883
(dp2216
I0
g4
(g5
(I0
tS'b'
tRp2217
(I1
(I0
tg8
I00
S''
tbssg627
(dp2218
I0
g4
(g5
(I0
tS'b'
tRp2219
(I1
(I0
tg8
I00
S''
tbssg639
(dp2220
I0
g4
(g5
(I0
tS'b'
tRp2221
(I1
(I0
tg8
I00
S''
tbssg695
(dp2222
I0
g4
(g5
(I0
tS'b'
tRp2223
(I1
(I0
tg8
I00
S''
tbssg888
(dp2224
I0
g4
(g5
(I0
tS'b'
tRp2225
(I1
(I0
tg8
I00
S''
tbssg893
(dp2226
I0
g4
(g5
(I0
tS'b'
tRp2227
(I1
(I0
tg8
I00
S''
tbssg895
(dp2228
I0
g4
(g5
(I0
tS'b'
tRp2229
(I1
(I0
tg8
I00
S''
tbssg918
(dp2230
I0
g4
(g5
(I0
tS'b'
tRp2231
(I1
(I0
tg8
I00
S''
tbssS't_reg.32'
p2232
(dp2233
I0
g4
(g5
(I0
tS'b'
tRp2234
(I1
(I0
I597
I1
tg8
I00
S''
tbssS't_reg.30'
p2235
(dp2236
I0
g4
(g5
(I0
tS'b'
tRp2237
(I1
(I0
I544
I1
tg8
I00
S''
tbssS't_reg.31'
p2238
(dp2239
I0
g4
(g5
(I0
tS'b'
tRp2240
(I1
(I0
I595
I1
tg8
I00
S''
tbssg769
(dp2241
I0
g4
(g5
(I0
tS'b'
tRp2242
(I1
(I0
tg8
I00
S''
tbssg938
(dp2243
I0
g4
(g5
(I0
tS'b'
tRp2244
(I1
(I0
tg8
I00
S''
tbssg940
(dp2245
I0
g4
(g5
(I0
tS'b'
tRp2246
(I1
(I0
tg8
I00
S''
tbssg942
(dp2247
I0
g4
(g5
(I0
tS'b'
tRp2248
(I1
(I0
tg8
I00
S''
tbssg944
(dp2249
I0
g4
(g5
(I0
tS'b'
tRp2250
(I1
(I0
tg8
I00
S''
tbssg946
(dp2251
I0
g4
(g5
(I0
tS'b'
tRp2252
(I1
(I0
tg8
I00
S''
tbssg948
(dp2253
I0
g4
(g5
(I0
tS'b'
tRp2254
(I1
(I0
tg8
I00
S''
tbssg950
(dp2255
I0
g4
(g5
(I0
tS'b'
tRp2256
(I1
(I0
tg8
I00
S''
tbssg954
(dp2257
I0
g4
(g5
(I0
tS'b'
tRp2258
(I1
(I0
tg8
I00
S''
tbssg956
(dp2259
I0
g4
(g5
(I0
tS'b'
tRp2260
(I1
(I0
tg8
I00
S''
tbssg1034
(dp2261
I0
g4
(g5
(I0
tS'b'
tRp2262
(I1
(I0
tg8
I00
S''
tbssg1036
(dp2263
I0
g4
(g5
(I0
tS'b'
tRp2264
(I1
(I0
tg8
I00
S''
tbssg1038
(dp2265
I0
g4
(g5
(I0
tS'b'
tRp2266
(I1
(I0
tg8
I00
S''
tbssg1040
(dp2267
I0
g4
(g5
(I0
tS'b'
tRp2268
(I1
(I0
tg8
I00
S''
tbssg528
(dp2269
I0
g4
(g5
(I0
tS'b'
tRp2270
(I1
(I0
tg8
I00
S''
tbssg530
(dp2271
I0
g4
(g5
(I0
tS'b'
tRp2272
(I1
(I0
tg8
I00
S''
tbssg532
(dp2273
I0
g4
(g5
(I0
tS'b'
tRp2274
(I1
(I0
tg8
I00
S''
tbssg534
(dp2275
I0
g4
(g5
(I0
tS'b'
tRp2276
(I1
(I0
tg8
I00
S''
tbssg924
(dp2277
I0
g4
(g5
(I0
tS'b'
tRp2278
(I1
(I0
tg8
I00
S''
tbssg538
(dp2279
I0
g4
(g5
(I0
tS'b'
tRp2280
(I1
(I0
tg8
I00
S''
tbssg540
(dp2281
I0
g4
(g5
(I0
tS'b'
tRp2282
(I1
(I0
tg8
I00
S''
tbssg542
(dp2283
I0
g4
(g5
(I0
tS'b'
tRp2284
(I1
(I0
tg8
I00
S''
tbssg544
(dp2285
I0
g4
(g5
(I0
tS'b'
tRp2286
(I1
(I0
tg8
I00
S''
tbssg546
(dp2287
I0
g4
(g5
(I0
tS'b'
tRp2288
(I1
(I0
tg8
I00
S''
tbssg548
(dp2289
I0
g4
(g5
(I0
tS'b'
tRp2290
(I1
(I0
tg8
I00
S''
tbssg550
(dp2291
I0
g4
(g5
(I0
tS'b'
tRp2292
(I1
(I0
tg8
I00
S''
tbssg552
(dp2293
I0
g4
(g5
(I0
tS'b'
tRp2294
(I1
(I0
tg8
I00
S''
tbssg554
(dp2295
I0
g4
(g5
(I0
tS'b'
tRp2296
(I1
(I0
tg8
I00
S''
tbssg556
(dp2297
I0
g4
(g5
(I0
tS'b'
tRp2298
(I1
(I0
tg8
I00
S''
tbssg558
(dp2299
I0
g4
(g5
(I0
tS'b'
tRp2300
(I1
(I0
tg8
I00
S''
tbssg666
(dp2301
I0
g4
(g5
(I0
tS'b'
tRp2302
(I1
(I0
tg8
I00
S''
tbssg877
(dp2303
I0
g4
(g5
(I0
tS'b'
tRp2304
(I1
(I0
tg8
I00
S''
tbssg672
(dp2305
I0
g4
(g5
(I0
tS'b'
tRp2306
(I1
(I0
tg8
I00
S''
tbssg576
(dp2307
I0
g4
(g5
(I0
tS'b'
tRp2308
(I1
(I0
tg8
I00
S''
tbssg588
(dp2309
I0
g4
(g5
(I0
tS'b'
tRp2310
(I1
(I0
tg8
I00
S''
tbssg590
(dp2311
I0
g4
(g5
(I0
tS'b'
tRp2312
(I1
(I0
tg8
I00
S''
tbssg593
(dp2313
I0
g4
(g5
(I0
tS'b'
tRp2314
(I1
(I0
tg8
I00
S''
tbssg598
(dp2315
I0
g4
(g5
(I0
tS'b'
tRp2316
(I1
(I0
tg8
I00
S''
tbssg621
(dp2317
I0
g4
(g5
(I0
tS'b'
tRp2318
(I1
(I0
tg8
I00
S''
tbssg623
(dp2319
I0
g4
(g5
(I0
tS'b'
tRp2320
(I1
(I0
tg8
I00
S''
tbssg625
(dp2321
I0
g4
(g5
(I0
tS'b'
tRp2322
(I1
(I0
tg8
I00
S''
tbssg573
(dp2323
I0
g4
(g5
(I0
tS'b'
tRp2324
(I1
(I0
tg8
I00
S''
tbssg629
(dp2325
I0
g4
(g5
(I0
tS'b'
tRp2326
(I1
(I0
tg8
I00
S''
tbssg631
(dp2327
I0
g4
(g5
(I0
tS'b'
tRp2328
(I1
(I0
tg8
I00
S''
tbssg633
(dp2329
I0
g4
(g5
(I0
tS'b'
tRp2330
(I1
(I0
tg8
I00
S''
tbssg635
(dp2331
I0
g4
(g5
(I0
tS'b'
tRp2332
(I1
(I0
tg8
I00
S''
tbssg637
(dp2333
I0
g4
(g5
(I0
tS'b'
tRp2334
(I1
(I0
tg8
I00
S''
tbssg602
(dp2335
I0
g4
(g5
(I0
tS'b'
tRp2336
(I1
(I0
tg8
I00
S''
tbssS'deviance'
p2337
(dp2338
I0
g4
(g5
(I0
tS'b'
tRp2339
(I1
(I0
tg8
I00
S''
tbssg804
(dp2340
I0
g4
(g5
(I0
tS'b'
tRp2341
(I1
(I0
tg8
I00
S''
tbssS't_reg.19'
p2342
(dp2343
I0
g4
(g5
(I0
tS'b'
tRp2344
(I1
(I0
I590
I1
tg8
I00
S''
tbssg995
(dp2345
I0
g4
(g5
(I0
tS'b'
tRp2346
(I1
(I0
tg8
I00
S''
tbssg815
(dp2347
I0
g4
(g5
(I0
tS'b'
tRp2348
(I1
(I0
tg8
I00
S''
tbssg817
(dp2349
I0
g4
(g5
(I0
tS'b'
tRp2350
(I1
(I0
tg8
I00
S''
tbssg738
(dp2351
I0
g4
(g5
(I0
tS'b'
tRp2352
(I1
(I0
tg8
I00
S''
tbssg740
(dp2353
I0
g4
(g5
(I0
tS'b'
tRp2354
(I1
(I0
tg8
I00
S''
tbssg742
(dp2355
I0
g4
(g5
(I0
tS'b'
tRp2356
(I1
(I0
tg8
I00
S''
tbssg744
(dp2357
I0
g4
(g5
(I0
tS'b'
tRp2358
(I1
(I0
tg8
I00
S''
tbssg746
(dp2359
I0
g4
(g5
(I0
tS'b'
tRp2360
(I1
(I0
tg8
I00
S''
tbssg748
(dp2361
I0
g4
(g5
(I0
tS'b'
tRp2362
(I1
(I0
tg8
I00
S''
tbssg750
(dp2363
I0
g4
(g5
(I0
tS'b'
tRp2364
(I1
(I0
tg8
I00
S''
tbssg752
(dp2365
I0
g4
(g5
(I0
tS'b'
tRp2366
(I1
(I0
tg8
I00
S''
tbssg756
(dp2367
I0
g4
(g5
(I0
tS'b'
tRp2368
(I1
(I0
tg8
I00
S''
tbssg758
(dp2369
I0
g4
(g5
(I0
tS'b'
tRp2370
(I1
(I0
tg8
I00
S''
tbssS'v_reg.30'
p2371
(dp2372
I0
g4
(g5
(I0
tS'b'
tRp2373
(I1
(I0
I544
I1
tg8
I00
S''
tbssS'v_reg.31'
p2374
(dp2375
I0
g4
(g5
(I0
tS'b'
tRp2376
(I1
(I0
I595
I1
tg8
I00
S''
tbssS'v_reg.32'
p2377
(dp2378
I0
g4
(g5
(I0
tS'b'
tRp2379
(I1
(I0
I597
I1
tg8
I00
S''
tbssg775
(dp2380
I0
g4
(g5
(I0
tS'b'
tRp2381
(I1
(I0
tg8
I00
S''
tbssg833
(dp2382
I0
g4
(g5
(I0
tS'b'
tRp2383
(I1
(I0
tg8
I00
S''
tbssg835
(dp2384
I0
g4
(g5
(I0
tS'b'
tRp2385
(I1
(I0
tg8
I00
S''
tbssg837
(dp2386
I0
g4
(g5
(I0
tS'b'
tRp2387
(I1
(I0
tg8
I00
S''
tbssg839
(dp2388
I0
g4
(g5
(I0
tS'b'
tRp2389
(I1
(I0
tg8
I00
S''
tbssg841
(dp2390
I0
g4
(g5
(I0
tS'b'
tRp2391
(I1
(I0
tg8
I00
S''
tbssg843
(dp2392
I0
g4
(g5
(I0
tS'b'
tRp2393
(I1
(I0
tg8
I00
S''
tbssg845
(dp2394
I0
g4
(g5
(I0
tS'b'
tRp2395
(I1
(I0
tg8
I00
S''
tbssg898
(dp2396
I0
g4
(g5
(I0
tS'b'
tRp2397
(I1
(I0
tg8
I00
S''
tbssg849
(dp2398
I0
g4
(g5
(I0
tS'b'
tRp2399
(I1
(I0
tg8
I00
S''
tbssg912
(dp2400
I0
g4
(g5
(I0
tS'b'
tRp2401
(I1
(I0
tg8
I00
S''
tbssg853
(dp2402
I0
g4
(g5
(I0
tS'b'
tRp2403
(I1
(I0
tg8
I00
S''
tbssg855
(dp2404
I0
g4
(g5
(I0
tS'b'
tRp2405
(I1
(I0
tg8
I00
S''
tbssg857
(dp2406
I0
g4
(g5
(I0
tS'b'
tRp2407
(I1
(I0
tg8
I00
S''
tbssg859
(dp2408
I0
g4
(g5
(I0
tS'b'
tRp2409
(I1
(I0
tg8
I00
S''
tbssg861
(dp2410
I0
g4
(g5
(I0
tS'b'
tRp2411
(I1
(I0
tg8
I00
S''
tbssg863
(dp2412
I0
g4
(g5
(I0
tS'b'
tRp2413
(I1
(I0
tg8
I00
S''
tbssg865
(dp2414
I0
g4
(g5
(I0
tS'b'
tRp2415
(I1
(I0
tg8
I00
S''
tbssg867
(dp2416
I0
g4
(g5
(I0
tS'b'
tRp2417
(I1
(I0
tg8
I00
S''
tbssg871
(dp2418
I0
g4
(g5
(I0
tS'b'
tRp2419
(I1
(I0
tg8
I00
S''
tbssg873
(dp2420
I0
g4
(g5
(I0
tS'b'
tRp2421
(I1
(I0
tg8
I00
S''
tbssg902
(dp2422
I0
g4
(g5
(I0
tS'b'
tRp2423
(I1
(I0
tg8
I00
S''
tbssg904
(dp2424
I0
g4
(g5
(I0
tS'b'
tRp2425
(I1
(I0
tg8
I00
S''
tbssg906
(dp2426
I0
g4
(g5
(I0
tS'b'
tRp2427
(I1
(I0
tg8
I00
S''
tbssg908
(dp2428
I0
g4
(g5
(I0
tS'b'
tRp2429
(I1
(I0
tg8
I00
S''
tbssg910
(dp2430
I0
g4
(g5
(I0
tS'b'
tRp2431
(I1
(I0
tg8
I00
S''
tbssg760
(dp2432
I0
g4
(g5
(I0
tS'b'
tRp2433
(I1
(I0
tg8
I00
S''
tbssg914
(dp2434
I0
g4
(g5
(I0
tS'b'
tRp2435
(I1
(I0
tg8
I00
S''
tbssg916
(dp2436
I0
g4
(g5
(I0
tS'b'
tRp2437
(I1
(I0
tg8
I00
S''
tbssg771
(dp2438
I0
g4
(g5
(I0
tS'b'
tRp2439
(I1
(I0
tg8
I00
S''
tbssg920
(dp2440
I0
g4
(g5
(I0
tS'b'
tRp2441
(I1
(I0
tg8
I00
S''
tbssg660
(dp2442
I0
g4
(g5
(I0
tS'b'
tRp2443
(I1
(I0
tg8
I00
S''
tbssS't_reg.25'
p2444
(dp2445
I0
g4
(g5
(I0
tS'b'
tRp2446
(I1
(I0
I397
I1
tg8
I00
S''
tbssS't_reg.24'
p2447
(dp2448
I0
g4
(g5
(I0
tS'b'
tRp2449
(I1
(I0
I574
I1
tg8
I00
S''
tbssS't_reg.27'
p2450
(dp2451
I0
g4
(g5
(I0
tS'b'
tRp2452
(I1
(I0
I470
I1
tg8
I00
S''
tbssS't_reg.26'
p2453
(dp2454
I0
g4
(g5
(I0
tS'b'
tRp2455
(I1
(I0
I573
I1
tg8
I00
S''
tbssS't_reg.21'
p2456
(dp2457
I0
g4
(g5
(I0
tS'b'
tRp2458
(I1
(I0
I374
I1
tg8
I00
S''
tbssS't_reg.20'
p2459
(dp2460
I0
g4
(g5
(I0
tS'b'
tRp2461
(I1
(I0
I361
I1
tg8
I00
S''
tbssS't_reg.23'
p2462
(dp2463
I0
g4
(g5
(I0
tS'b'
tRp2464
(I1
(I0
I599
I1
tg8
I00
S''
tbssS't_reg.22'
p2465
(dp2466
I0
g4
(g5
(I0
tS'b'
tRp2467
(I1
(I0
I394
I1
tg8
I00
S''
tbssS't_reg.29'
p2468
(dp2469
I0
g4
(g5
(I0
tS'b'
tRp2470
(I1
(I0
I598
I1
tg8
I00
S''
tbssS't_reg.28'
p2471
(dp2472
I0
g4
(g5
(I0
tS'b'
tRp2473
(I1
(I0
I594
I1
tg8
I00
S''
tbss.